CPU Reset (CPU 0)
EAX=00000000 EBX=00000000 ECX=00000000 EDX=00000000
ESI=00000000 EDI=00000000 EBP=00000000 ESP=00000000
EIP=00000000 EFL=00000000 [-------] CPL=0 II=0 A20=0 SMM=0 HLT=0
ES =0000 00000000 00000000 00000000
CS =0000 00000000 00000000 00000000
SS =0000 00000000 00000000 00000000
DS =0000 00000000 00000000 00000000
FS =0000 00000000 00000000 00000000
GS =0000 00000000 00000000 00000000
LDT=0000 00000000 00000000 00000000
TR =0000 00000000 00000000 00000000
GDT=     00000000 00000000
IDT=     00000000 00000000
CR0=00000000 CR2=00000000 CR3=00000000 CR4=00000000
DR0=0000000000000000 DR1=0000000000000000 DR2=0000000000000000 DR3=0000000000000000 
DR6=0000000000000000 DR7=0000000000000000
CCS=00000000 CCD=00000000 CCO=DYNAMIC
EFER=0000000000000000
FCW=0000 FSW=0000 [ST=0] FTW=ff MXCSR=00000000
FPR0=0000000000000000 0000 FPR1=0000000000000000 0000
FPR2=0000000000000000 0000 FPR3=0000000000000000 0000
FPR4=0000000000000000 0000 FPR5=0000000000000000 0000
FPR6=0000000000000000 0000 FPR7=0000000000000000 0000
XMM00=0000000000000000 0000000000000000 XMM01=0000000000000000 0000000000000000
XMM02=0000000000000000 0000000000000000 XMM03=0000000000000000 0000000000000000
XMM04=0000000000000000 0000000000000000 XMM05=0000000000000000 0000000000000000
XMM06=0000000000000000 0000000000000000 XMM07=0000000000000000 0000000000000000
CPU Reset (CPU 0)
EAX=00000000 EBX=00000000 ECX=00000000 EDX=00060fb1
ESI=00000000 EDI=00000000 EBP=00000000 ESP=00000000
EIP=0000fff0 EFL=00000002 [-------] CPL=0 II=0 A20=1 SMM=0 HLT=0
ES =0000 00000000 0000ffff 00009300
CS =f000 ffff0000 0000ffff 00009b00
SS =0000 00000000 0000ffff 00009300
DS =0000 00000000 0000ffff 00009300
FS =0000 00000000 0000ffff 00009300
GS =0000 00000000 0000ffff 00009300
LDT=0000 00000000 0000ffff 00008200
TR =0000 00000000 0000ffff 00008b00
GDT=     00000000 0000ffff
IDT=     00000000 0000ffff
CR0=60000010 CR2=00000000 CR3=00000000 CR4=00000000
DR0=0000000000000000 DR1=0000000000000000 DR2=0000000000000000 DR3=0000000000000000 
DR6=00000000ffff0ff0 DR7=0000000000000400
CCS=00000000 CCD=00000000 CCO=DYNAMIC
EFER=0000000000000000
FCW=037f FSW=0000 [ST=0] FTW=00 MXCSR=00001f80
FPR0=0000000000000000 0000 FPR1=0000000000000000 0000
FPR2=0000000000000000 0000 FPR3=0000000000000000 0000
FPR4=0000000000000000 0000 FPR5=0000000000000000 0000
FPR6=0000000000000000 0000 FPR7=0000000000000000 0000
XMM00=0000000000000000 0000000000000000 XMM01=0000000000000000 0000000000000000
XMM02=0000000000000000 0000000000000000 XMM03=0000000000000000 0000000000000000
XMM04=0000000000000000 0000000000000000 XMM05=0000000000000000 0000000000000000
XMM06=0000000000000000 0000000000000000 XMM07=0000000000000000 0000000000000000
----------------
IN: 
0xfffffff0:  ea 5b e0 00 f0           ljmpw    $0xf000:$0xe05b

----------------
IN: 
0x000fe05b:  2e 66 83 3e 28 62 00     cmpl     $0, %cs:0x6228
0x000fe062:  0f 85 45 f0              jne      0xfd0ab

----------------
IN: 
0x000fe066:  31 d2                    xorw     %dx, %dx
0x000fe068:  8e d2                    movw     %dx, %ss

----------------
IN: 
0x000fe06a:  66 bc 00 70 00 00        movl     $0x7000, %esp

----------------
IN: 
0x000fe070:  66 ba 5a f4 0e 00        movl     $0xef45a, %edx
0x000fe076:  e9 92 0b                 jmp      0xfec0b

----------------
IN: 
0x000fec0b:  fa                       cli      
0x000fec0c:  fc                       cld      
0x000fec0d:  66 89 c1                 movl     %eax, %ecx
0x000fec10:  66 b8 8f 00 00 00        movl     $0x8f, %eax
0x000fec16:  e6 70                    outb     %al, $0x70

----------------
IN: 
0x000fec18:  e4 71                    inb      $0x71, %al

----------------
IN: 
0x000fec1a:  e4 92                    inb      $0x92, %al

----------------
IN: 
0x000fec1c:  0c 02                    orb      $2, %al
0x000fec1e:  e6 92                    outb     %al, $0x92

----------------
IN: 
0x000fec20:  66 89 c8                 movl     %ecx, %eax
0x000fec23:  2e 0f 01 1e 18 62        lidtw    %cs:0x6218
0x000fec29:  2e 0f 01 16 d8 61        lgdtw    %cs:0x61d8
0x000fec2f:  0f 20 c1                 movl     %cr0, %ecx

----------------
IN: 
0x000fec32:  66 81 e1 ff ff ff 1f     andl     $0x1fffffff, %ecx
0x000fec39:  66 83 c9 01              orl      $1, %ecx
0x000fec3d:  0f 22 c1                 movl     %ecx, %cr0

----------------
IN: 
0x000fec40:  66 ea 48 ec 0f 00 08 00  ljmpl    $0x8:$0xfec48

----------------
IN: 
0x000fec48:  b9 10 00 00 00           movl     $0x10, %ecx
0x000fec4d:  8e d9                    movl     %ecx, %ds

----------------
IN: 
0x000fec4f:  8e c1                    movl     %ecx, %es

----------------
IN: 
0x000fec51:  8e d1                    movl     %ecx, %ss

----------------
IN: 
0x000fec53:  8e e1                    movl     %ecx, %fs

----------------
IN: 
0x000fec55:  8e e9                    movl     %ecx, %gs
0x000fec57:  ff e2                    jmpl     *%edx

----------------
IN: 
0x000ef45a:  53                       pushl    %ebx
0x000ef45b:  83 ec 20                 subl     $0x20, %esp
0x000ef45e:  e8 0f c8 ff ff           calll    0xebc72

----------------
IN: 
0x000ebc72:  68 80 4a 0f 00           pushl    $0xf4a80
0x000ebc77:  68 df fc 0e 00           pushl    $0xefcdf
0x000ebc7c:  e8 de ff ff ff           calll    0xebc5f

----------------
IN: 
0x000ebc5f:  8d 4c 24 08              leal     8(%esp), %ecx
0x000ebc63:  8b 54 24 04              movl     4(%esp), %edx
0x000ebc67:  b8 08 4a 0f 00           movl     $0xf4a08, %eax
0x000ebc6c:  e8 7f f7 ff ff           calll    0xeb3f0

----------------
IN: 
0x000eb3f0:  55                       pushl    %ebp
0x000eb3f1:  57                       pushl    %edi
0x000eb3f2:  56                       pushl    %esi
0x000eb3f3:  53                       pushl    %ebx
0x000eb3f4:  83 ec 0c                 subl     $0xc, %esp
0x000eb3f7:  89 04 24                 movl     %eax, (%esp)
0x000eb3fa:  89 d7                    movl     %edx, %edi
0x000eb3fc:  89 cb                    movl     %ecx, %ebx
0x000eb3fe:  0f be 17                 movsbl   (%edi), %edx
0x000eb401:  84 d2                    testb    %dl, %dl
0x000eb403:  0f 84 5a 02 00 00        je       0xeb663

----------------
IN: 
0x000eb409:  80 fa 25                 cmpb     $0x25, %dl
0x000eb40c:  0f 85 3b 02 00 00        jne      0xeb64d

----------------
IN: 
0x000eb64d:  8b 04 24                 movl     (%esp), %eax
0x000eb650:  e8 06 d9 ff ff           calll    0xe8f5b

----------------
IN: 
0x000e8f5b:  0f be d2                 movsbl   %dl, %edx
0x000e8f5e:  ff 20                    jmpl     *(%eax)

----------------
IN: 
0x000ea585:  88 d0                    movb     %dl, %al
0x000ea587:  66 8b 15 94 60 0f 00     movw     0xf6094, %dx
0x000ea58e:  66 85 d2                 testw    %dx, %dx
0x000ea591:  74 01                    je       0xea594

----------------
IN: 
0x000ea593:  ee                       outb     %al, %dx

----------------
IN: 
0x000ea594:  c3                       retl     

----------------
IN: 
0x000eb655:  89 fe                    movl     %edi, %esi
0x000eb657:  eb 02                    jmp      0xeb65b

----------------
IN: 
0x000eb65b:  8d 7e 01                 leal     1(%esi), %edi
0x000eb65e:  e9 9b fd ff ff           jmp      0xeb3fe

----------------
IN: 
0x000eb3fe:  0f be 17                 movsbl   (%edi), %edx
0x000eb401:  84 d2                    testb    %dl, %dl
0x000eb403:  0f 84 5a 02 00 00        je       0xeb663

----------------
IN: 
0x000eb412:  8d 77 01                 leal     1(%edi), %esi
0x000eb415:  c6 44 24 07 20           movb     $0x20, 7(%esp)
0x000eb41a:  31 c9                    xorl     %ecx, %ecx
0x000eb41c:  0f b6 06                 movzbl   (%esi), %eax
0x000eb41f:  8d 50 d0                 leal     -0x30(%eax), %edx
0x000eb422:  80 fa 09                 cmpb     $9, %dl
0x000eb425:  77 1b                    ja       0xeb442

----------------
IN: 
0x000eb442:  31 d2                    xorl     %edx, %edx
0x000eb444:  3c 6c                    cmpb     $0x6c, %al
0x000eb446:  75 12                    jne      0xeb45a

----------------
IN: 
0x000eb45a:  3c 64                    cmpb     $0x64, %al
0x000eb45c:  74 6d                    je       0xeb4cb

----------------
IN: 
0x000eb45e:  7f 47                    jg       0xeb4a7

----------------
IN: 
0x000eb4a7:  3c 73                    cmpb     $0x73, %al
0x000eb4a9:  0f 84 82 01 00 00        je       0xeb631

----------------
IN: 
0x000eb631:  8d 7b 04                 leal     4(%ebx), %edi
0x000eb634:  8b 1b                    movl     (%ebx), %ebx
0x000eb636:  0f be 13                 movsbl   (%ebx), %edx
0x000eb639:  84 d2                    testb    %dl, %dl
0x000eb63b:  74 1c                    je       0xeb659

----------------
IN: 
0x000eb63d:  8b 04 24                 movl     (%esp), %eax
0x000eb640:  e8 16 d9 ff ff           calll    0xe8f5b

----------------
IN: 
0x000eb645:  43                       incl     %ebx
0x000eb646:  eb ee                    jmp      0xeb636

----------------
IN: 
0x000eb636:  0f be 13                 movsbl   (%ebx), %edx
0x000eb639:  84 d2                    testb    %dl, %dl
0x000eb63b:  74 1c                    je       0xeb659

----------------
IN: 
0x000eb659:  89 fb                    movl     %edi, %ebx
0x000eb65b:  8d 7e 01                 leal     1(%esi), %edi
0x000eb65e:  e9 9b fd ff ff           jmp      0xeb3fe

----------------
IN: 
0x000eb663:  83 c4 0c                 addl     $0xc, %esp
0x000eb666:  5b                       popl     %ebx
0x000eb667:  5e                       popl     %esi
0x000eb668:  5f                       popl     %edi
0x000eb669:  5d                       popl     %ebp
0x000eb66a:  c3                       retl     

----------------
IN: 
0x000ebc71:  c3                       retl     

----------------
IN: 
0x000ebc81:  68 20 4a 0f 00           pushl    $0xf4a20
0x000ebc86:  68 f5 fc 0e 00           pushl    $0xefcf5
0x000ebc8b:  e8 cf ff ff ff           calll    0xebc5f

----------------
IN: 
0x000ebc90:  83 c4 10                 addl     $0x10, %esp
0x000ebc93:  c3                       retl     

----------------
IN: 
0x000ef463:  bb 00 00 00 40           movl     $0x40000000, %ebx
0x000ef468:  8d 44 24 0c              leal     0xc(%esp), %eax
0x000ef46c:  50                       pushl    %eax
0x000ef46d:  8d 44 24 0c              leal     0xc(%esp), %eax
0x000ef471:  50                       pushl    %eax
0x000ef472:  8d 4c 24 0c              leal     0xc(%esp), %ecx
0x000ef476:  8d 54 24 08              leal     8(%esp), %edx
0x000ef47a:  89 d8                    movl     %ebx, %eax
0x000ef47c:  e8 34 9e ff ff           calll    0xe92b5

----------------
IN: 
0x000e92b5:  55                       pushl    %ebp
0x000e92b6:  57                       pushl    %edi
0x000e92b7:  56                       pushl    %esi
0x000e92b8:  53                       pushl    %ebx
0x000e92b9:  89 d7                    movl     %edx, %edi
0x000e92bb:  89 ce                    movl     %ecx, %esi
0x000e92bd:  8b 6c 24 14              movl     0x14(%esp), %ebp
0x000e92c1:  9c                       pushfl   
0x000e92c2:  59                       popl     %ecx
0x000e92c3:  89 ca                    movl     %ecx, %edx
0x000e92c5:  81 f2 00 00 20 00        xorl     $0x200000, %edx
0x000e92cb:  52                       pushl    %edx
0x000e92cc:  9d                       popfl    

----------------
IN: 
0x000e92cd:  9c                       pushfl   
0x000e92ce:  5a                       popl     %edx
0x000e92cf:  51                       pushl    %ecx
0x000e92d0:  9d                       popfl    

----------------
IN: 
0x000e92d1:  31 ca                    xorl     %ecx, %edx
0x000e92d3:  0f ba e2 15              btl      $0x15, %edx
0x000e92d7:  72 11                    jb       0xe92ea

----------------
IN: 
0x000e92ea:  0f a2                    cpuid    
0x000e92ec:  89 07                    movl     %eax, (%edi)
0x000e92ee:  89 1e                    movl     %ebx, (%esi)
0x000e92f0:  89 4d 00                 movl     %ecx, (%ebp)
0x000e92f3:  8b 44 24 18              movl     0x18(%esp), %eax
0x000e92f7:  89 10                    movl     %edx, (%eax)
0x000e92f9:  5b                       popl     %ebx
0x000e92fa:  5e                       popl     %esi
0x000e92fb:  5f                       popl     %edi
0x000e92fc:  5d                       popl     %ebp
0x000e92fd:  c3                       retl     

----------------
IN: 
0x000ef481:  8b 44 24 0c              movl     0xc(%esp), %eax
0x000ef485:  89 44 24 1b              movl     %eax, 0x1b(%esp)
0x000ef489:  8b 44 24 10              movl     0x10(%esp), %eax
0x000ef48d:  89 44 24 1f              movl     %eax, 0x1f(%esp)
0x000ef491:  8b 44 24 14              movl     0x14(%esp), %eax
0x000ef495:  89 44 24 23              movl     %eax, 0x23(%esp)
0x000ef499:  c6 44 24 27 00           movb     $0, 0x27(%esp)
0x000ef49e:  ba bf 41 0f 00           movl     $0xf41bf, %edx
0x000ef4a3:  8d 44 24 1b              leal     0x1b(%esp), %eax
0x000ef4a7:  e8 42 9c ff ff           calll    0xe90ee

----------------
IN: 
0x000e90ee:  53                       pushl    %ebx
0x000e90ef:  31 c9                    xorl     %ecx, %ecx
0x000e90f1:  8a 1c 08                 movb     (%eax, %ecx), %bl
0x000e90f4:  3a 1c 0a                 cmpb     (%edx, %ecx), %bl
0x000e90f7:  74 0c                    je       0xe9105

----------------
IN: 
0x000e90f9:  0f 9d c0                 setge    %al
0x000e90fc:  0f b6 c0                 movzbl   %al, %eax
0x000e90ff:  8d 44 00 ff              leal     -1(%eax, %eax), %eax
0x000e9103:  eb 07                    jmp      0xe910c

----------------
IN: 
0x000e910c:  5b                       popl     %ebx
0x000e910d:  c3                       retl     

----------------
IN: 
0x000ef4ac:  5a                       popl     %edx
0x000ef4ad:  59                       popl     %ecx
0x000ef4ae:  85 c0                    testl    %eax, %eax
0x000ef4b0:  75 41                    jne      0xef4f3

----------------
IN: 
0x000ef4f3:  81 c3 00 01 00 00        addl     $0x100, %ebx
0x000ef4f9:  81 fb 00 00 01 40        cmpl     $0x40010000, %ebx
0x000ef4ff:  0f 85 63 ff ff ff        jne      0xef468

----------------
IN: 
0x000ef468:  8d 44 24 0c              leal     0xc(%esp), %eax
0x000ef46c:  50                       pushl    %eax
0x000ef46d:  8d 44 24 0c              leal     0xc(%esp), %eax
0x000ef471:  50                       pushl    %eax
0x000ef472:  8d 4c 24 0c              leal     0xc(%esp), %ecx
0x000ef476:  8d 54 24 08              leal     8(%esp), %edx
0x000ef47a:  89 d8                    movl     %ebx, %eax
0x000ef47c:  e8 34 9e ff ff           calll    0xe92b5

----------------
IN: 
0x000ef505:  83 3d e0 4a 0f 00 00     cmpl     $0, 0xf4ae0
0x000ef50c:  75 07                    jne      0xef515

----------------
IN: 
0x000ef50e:  68 25 42 0f 00           pushl    $0xf4225
0x000ef513:  eb 1a                    jmp      0xef52f

----------------
IN: 
0x000ef52f:  e8 2b c7 ff ff           calll    0xebc5f

----------------
IN: 
0x000ef534:  58                       popl     %eax
0x000ef535:  e8 b1 e2 ff ff           calll    0xed7eb

----------------
IN: 
0x000ed7eb:  53                       pushl    %ebx
0x000ed7ec:  e8 29 b7 ff ff           calll    0xe8f1a

----------------
IN: 
0x000e8f1a:  a1 e0 55 0f 00           movl     0xf55e0, %eax
0x000e8f1f:  d1 e8                    shrl     $1, %eax
0x000e8f21:  83 e0 01                 andl     $1, %eax
0x000e8f24:  c3                       retl     

----------------
IN: 
0x000ed7f1:  85 c0                    testl    %eax, %eax
0x000ed7f3:  75 72                    jne      0xed867

----------------
IN: 
0x000ed7f5:  83 c8 ff                 orl      $0xffffffff, %eax
0x000ed7f8:  e8 88 da ff ff           calll    0xeb285

----------------
IN: 
0x000eb285:  56                       pushl    %esi
0x000eb286:  53                       pushl    %ebx
0x000eb287:  89 c1                    movl     %eax, %ecx
0x000eb289:  a8 07                    testb    $7, %al
0x000eb28b:  75 2c                    jne      0xeb2b9

----------------
IN: 
0x000eb2b9:  41                       incl     %ecx
0x000eb2ba:  eb f1                    jmp      0xeb2ad

----------------
IN: 
0x000eb2ad:  bb f8 0c 00 00           movl     $0xcf8, %ebx
0x000eb2b2:  be fc 0c 00 00           movl     $0xcfc, %esi
0x000eb2b7:  eb 28                    jmp      0xeb2e1

----------------
IN: 
0x000eb2e1:  89 c8                    movl     %ecx, %eax
0x000eb2e3:  66 c1 e8 08              shrw     $8, %ax
0x000eb2e7:  74 d3                    je       0xeb2bc

----------------
IN: 
0x000eb2bc:  89 c8                    movl     %ecx, %eax
0x000eb2be:  c1 e0 08                 shll     $8, %eax
0x000eb2c1:  25 00 ff ff 00           andl     $0xffff00, %eax
0x000eb2c6:  0d 00 00 00 80           orl      $0x80000000, %eax
0x000eb2cb:  89 da                    movl     %ebx, %edx
0x000eb2cd:  ef                       outl     %eax, %dx

----------------
IN: 
0x000eb2ce:  89 f2                    movl     %esi, %edx
0x000eb2d0:  66 ed                    inw      %dx, %ax

----------------
IN: 
0x000eb2d2:  48                       decl     %eax
0x000eb2d3:  66 83 f8 fd              cmpw     $-3, %ax
0x000eb2d7:  76 18                    jbe      0xeb2f1

----------------
IN: 
0x000eb2f1:  89 c8                    movl     %ecx, %eax
0x000eb2f3:  5b                       popl     %ebx
0x000eb2f4:  5e                       popl     %esi
0x000eb2f5:  c3                       retl     

----------------
IN: 
0x000ed7fd:  89 c3                    movl     %eax, %ebx
0x000ed7ff:  85 c0                    testl    %eax, %eax
0x000ed801:  78 59                    js       0xed85c

----------------
IN: 
0x000ed803:  89 d8                    movl     %ebx, %eax
0x000ed805:  c1 e0 08                 shll     $8, %eax
0x000ed808:  25 00 ff ff 00           andl     $0xffff00, %eax
0x000ed80d:  0d 00 00 00 80           orl      $0x80000000, %eax
0x000ed812:  ba f8 0c 00 00           movl     $0xcf8, %edx
0x000ed817:  ef                       outl     %eax, %dx

----------------
IN: 
0x000ed818:  ba fc 0c 00 00           movl     $0xcfc, %edx
0x000ed81d:  ed                       inl      %dx, %eax

----------------
IN: 
0x000ed81e:  66 3d 86 80              cmpw     $0x8086, %ax
0x000ed822:  75 34                    jne      0xed858

----------------
IN: 
0x000ed824:  0f b7 cb                 movzwl   %bx, %ecx
0x000ed827:  c1 e8 10                 shrl     $0x10, %eax
0x000ed82a:  3d 37 12 00 00           cmpl     $0x1237, %eax
0x000ed82f:  75 07                    jne      0xed838

----------------
IN: 
0x000ed831:  ba 59 00 00 00           movl     $0x59, %edx
0x000ed836:  eb 0c                    jmp      0xed844

----------------
IN: 
0x000ed844:  89 c8                    movl     %ecx, %eax
0x000ed846:  e8 66 db ff ff           calll    0xeb3b1

----------------
IN: 
0x000eb3b1:  53                       pushl    %ebx
0x000eb3b2:  89 d1                    movl     %edx, %ecx
0x000eb3b4:  0f b7 d8                 movzwl   %ax, %ebx
0x000eb3b7:  89 d8                    movl     %ebx, %eax
0x000eb3b9:  c1 e0 08                 shll     $8, %eax
0x000eb3bc:  81 e2 fc 00 00 00        andl     $0xfc, %edx
0x000eb3c2:  09 d0                    orl      %edx, %eax
0x000eb3c4:  0d 00 00 00 80           orl      $0x80000000, %eax
0x000eb3c9:  ba f8 0c 00 00           movl     $0xcf8, %edx
0x000eb3ce:  ef                       outl     %eax, %dx

----------------
IN: 
0x000eb3cf:  89 ca                    movl     %ecx, %edx
0x000eb3d1:  83 e2 03                 andl     $3, %edx
0x000eb3d4:  66 81 c2 fc 0c           addw     $0xcfc, %dx
0x000eb3d9:  ec                       inb      %dx, %al

----------------
IN: 
0x000eb3da:  89 ca                    movl     %ecx, %edx
0x000eb3dc:  a8 10                    testb    $0x10, %al
0x000eb3de:  89 d8                    movl     %ebx, %eax
0x000eb3e0:  75 08                    jne      0xeb3ea

----------------
IN: 
0x000eb3e2:  b9 f6 b2 fe ff           movl     $0xfffeb2f6, %ecx
0x000eb3e7:  5b                       popl     %ebx
0x000eb3e8:  ff e1                    jmpl     *%ecx

----------------
IN: 
0xfffeb2f6:  55                       pushl    %ebp
0xfffeb2f7:  57                       pushl    %edi
0xfffeb2f8:  56                       pushl    %esi
0xfffeb2f9:  53                       pushl    %ebx
0xfffeb2fa:  83 ec 08                 subl     $8, %esp
0xfffeb2fd:  89 d3                    movl     %edx, %ebx
0xfffeb2ff:  0f b7 c0                 movzwl   %ax, %eax
0xfffeb302:  c1 e0 08                 shll     $8, %eax
0xfffeb305:  89 c7                    movl     %eax, %edi
0xfffeb307:  89 d6                    movl     %edx, %esi
0xfffeb309:  81 e6 fc 00 00 00        andl     $0xfc, %esi
0xfffeb30f:  09 c6                    orl      %eax, %esi
0xfffeb311:  81 ce 00 00 00 80        orl      $0x80000000, %esi
0xfffeb317:  bd f8 0c 00 00           movl     $0xcf8, %ebp
0xfffeb31c:  89 f0                    movl     %esi, %eax
0xfffeb31e:  89 ea                    movl     %ebp, %edx
0xfffeb320:  ef                       outl     %eax, %dx

----------------
IN: 
0xfffeb321:  ba fc 0c 00 00           movl     $0xcfc, %edx
0xfffeb326:  ed                       inl      %dx, %eax

----------------
IN: 
0xfffeb327:  89 04 24                 movl     %eax, (%esp)
0xfffeb32a:  89 d9                    movl     %ebx, %ecx
0xfffeb32c:  83 e1 fc                 andl     $0xfffffffc, %ecx
0xfffeb32f:  83 c1 04                 addl     $4, %ecx
0xfffeb332:  81 e1 fc 00 00 00        andl     $0xfc, %ecx
0xfffeb338:  09 f9                    orl      %edi, %ecx
0xfffeb33a:  81 c9 00 00 00 80        orl      $0x80000000, %ecx
0xfffeb340:  89 c8                    movl     %ecx, %eax
0xfffeb342:  89 ea                    movl     %ebp, %edx
0xfffeb344:  ef                       outl     %eax, %dx

----------------
IN: 
0xfffeb345:  ba fc 0c 00 00           movl     $0xcfc, %edx
0xfffeb34a:  ed                       inl      %dx, %eax

----------------
IN: 
0xfffeb34b:  89 44 24 04              movl     %eax, 4(%esp)
0xfffeb34f:  83 e3 03                 andl     $3, %ebx
0xfffeb352:  8d 14 1c                 leal     (%esp, %ebx), %edx
0xfffeb355:  31 c0                    xorl     %eax, %eax
0xfffeb357:  c6 44 02 01 33           movb     $0x33, 1(%edx, %eax)
0xfffeb35c:  40                       incl     %eax
0xfffeb35d:  83 f8 06                 cmpl     $6, %eax
0xfffeb360:  75 f5                    jne      0xfffeb357

----------------
IN: 
0xfffeb357:  c6 44 02 01 33           movb     $0x33, 1(%edx, %eax)
0xfffeb35c:  40                       incl     %eax
0xfffeb35d:  83 f8 06                 cmpl     $6, %eax
0xfffeb360:  75 f5                    jne      0xfffeb357

----------------
IN: 
0xfffeb362:  0f b6 3c 1c              movzbl   (%esp, %ebx), %edi
0xfffeb366:  83 e7 10                 andl     $0x10, %edi
0xfffeb369:  c6 04 1c 30              movb     $0x30, (%esp, %ebx)
0xfffeb36d:  bd f8 0c 00 00           movl     $0xcf8, %ebp
0xfffeb372:  89 f0                    movl     %esi, %eax
0xfffeb374:  89 ea                    movl     %ebp, %edx
0xfffeb376:  ef                       outl     %eax, %dx

----------------
IN: 
0xfffeb377:  bb fc 0c 00 00           movl     $0xcfc, %ebx
0xfffeb37c:  8b 04 24                 movl     (%esp), %eax
0xfffeb37f:  89 da                    movl     %ebx, %edx
0xfffeb381:  ef                       outl     %eax, %dx

----------------
IN: 
0xfffeb382:  89 c8                    movl     %ecx, %eax
0xfffeb384:  89 ea                    movl     %ebp, %edx
0xfffeb386:  ef                       outl     %eax, %dx

----------------
IN: 
0xfffeb387:  8b 44 24 04              movl     4(%esp), %eax
0xfffeb38b:  89 da                    movl     %ebx, %edx
0xfffeb38d:  ef                       outl     %eax, %dx

----------------
IN: 
0xfffeb38e:  89 f8                    movl     %edi, %eax
0xfffeb390:  84 c0                    testb    %al, %al
0xfffeb392:  75 15                    jne      0xfffeb3a9

----------------
IN: 
0xfffeb394:  b8 00 1f 0d 00           movl     $0xd1f00, %eax
0xfffeb399:  b9 00 00 10 00           movl     $0x100000, %ecx
0xfffeb39e:  29 c1                    subl     %eax, %ecx
0xfffeb3a0:  be 00 1f fd ff           movl     $0xfffd1f00, %esi
0xfffeb3a5:  89 c7                    movl     %eax, %edi
0xfffeb3a7:  f3 a4                    rep movsb (%esi), %es:(%edi)

----------------
IN: 
0xfffeb3a7:  f3 a4                    rep movsb (%esi), %es:(%edi)

----------------
IN: 
0xfffeb3a9:  83 c4 08                 addl     $8, %esp
0xfffeb3ac:  5b                       popl     %ebx
0xfffeb3ad:  5e                       popl     %esi
0xfffeb3ae:  5f                       popl     %edi
0xfffeb3af:  5d                       popl     %ebp
0xfffeb3b0:  c3                       retl     

----------------
IN: 
0x000ed84b:  e8 38 c5 ff ff           calll    0xe9d88

----------------
IN: 
0x000e9d88:  83 3d 28 62 0f 00 00     cmpl     $0, 0xf6228
0x000e9d8f:  75 12                    jne      0xe9da3

----------------
IN: 
0x000e9d91:  b0 8f                    movb     $0x8f, %al
0x000e9d93:  e6 70                    outb     %al, $0x70

----------------
IN: 
0x000e9d95:  31 c0                    xorl     %eax, %eax
0x000e9d97:  e6 71                    outb     %al, $0x71

----------------
IN: 
0x000e9d99:  c7 05 28 62 0f 00 01 00  movl     $1, 0xf6228
0x000e9da1:  00 00
0x000e9da3:  c3                       retl     

----------------
IN: 
0x000ed850:  89 1d f8 49 0f 00        movl     %ebx, 0xf49f8
0x000ed856:  eb 0f                    jmp      0xed867

----------------
IN: 
0x000ed867:  5b                       popl     %ebx
0x000ed868:  c3                       retl     

----------------
IN: 
0x000ef53a:  e8 4e 7f ff ff           calll    0xe748d

----------------
IN: 
0x000e748d:  55                       pushl    %ebp
0x000e748e:  57                       pushl    %edi
0x000e748f:  56                       pushl    %esi
0x000e7490:  53                       pushl    %ebx
0x000e7491:  83 ec 70                 subl     $0x70, %esp
0x000e7494:  e8 ef 28 00 00           calll    0xe9d88

----------------
IN: 
0x000e9da3:  c3                       retl     

----------------
IN: 
0x000e7499:  e8 7c 1a 00 00           calll    0xe8f1a

----------------
IN: 
0x000e8f1a:  a1 e0 55 0f 00           movl     0xf55e0, %eax
0x000e8f1f:  d1 e8                    shrl     $1, %eax
0x000e8f21:  83 e0 01                 andl     $1, %eax
0x000e8f24:  c3                       retl     

----------------
IN: 
0x000e749e:  85 c0                    testl    %eax, %eax
0x000e74a0:  75 15                    jne      0xe74b7

----------------
IN: 
0x000e74a2:  66 8b 15 94 60 0f 00     movw     0xf6094, %dx
0x000e74a9:  ec                       inb      %dx, %al

----------------
IN: 
0x000e74aa:  3c e9                    cmpb     $0xe9, %al
0x000e74ac:  74 09                    je       0xe74b7

----------------
IN: 
0x000e74ae:  66 c7 05 94 60 0f 00 00  movw     $0, 0xf6094
0x000e74b6:  00
0x000e74b7:  31 d2                    xorl     %edx, %edx
0x000e74b9:  31 c0                    xorl     %eax, %eax
0x000e74bb:  e8 49 1d 00 00           calll    0xe9209

----------------
IN: 
0x000e9209:  89 d1                    movl     %edx, %ecx
0x000e920b:  8b 15 b8 4d 0f 00        movl     0xf4db8, %edx
0x000e9211:  0f b7 c0                 movzwl   %ax, %eax
0x000e9214:  85 d2                    testl    %edx, %edx
0x000e9216:  74 0b                    je       0xe9223

----------------
IN: 
0x000e9223:  c1 e0 08                 shll     $8, %eax
0x000e9226:  89 ca                    movl     %ecx, %edx
0x000e9228:  81 e2 fc 00 00 00        andl     $0xfc, %edx
0x000e922e:  09 d0                    orl      %edx, %eax
0x000e9230:  0d 00 00 00 80           orl      $0x80000000, %eax
0x000e9235:  ba f8 0c 00 00           movl     $0xcf8, %edx
0x000e923a:  ef                       outl     %eax, %dx

----------------
IN: 
0x000e923b:  83 e1 02                 andl     $2, %ecx
0x000e923e:  8d 91 fc 0c 00 00        leal     0xcfc(%ecx), %edx
0x000e9244:  66 ed                    inw      %dx, %ax

----------------
IN: 
0x000e9246:  c3                       retl     

----------------
IN: 
0x000e74c0:  0f b7 f0                 movzwl   %ax, %esi
0x000e74c3:  8d 46 ff                 leal     -1(%esi), %eax
0x000e74c6:  66 83 f8 fd              cmpw     $-3, %ax
0x000e74ca:  0f 87 18 02 00 00        ja       0xe76e8

----------------
IN: 
0x000e74d0:  ba 02 00 00 00           movl     $2, %edx
0x000e74d5:  31 c0                    xorl     %eax, %eax
0x000e74d7:  e8 2d 1d 00 00           calll    0xe9209

----------------
IN: 
0x000e74dc:  0f b7 d8                 movzwl   %ax, %ebx
0x000e74df:  ba 2c 00 00 00           movl     $0x2c, %edx
0x000e74e4:  31 c0                    xorl     %eax, %eax
0x000e74e6:  e8 1e 1d 00 00           calll    0xe9209

----------------
IN: 
0x000e74eb:  89 c7                    movl     %eax, %edi
0x000e74ed:  ba 2e 00 00 00           movl     $0x2e, %edx
0x000e74f2:  31 c0                    xorl     %eax, %eax
0x000e74f4:  e8 10 1d 00 00           calll    0xe9209

----------------
IN: 
0x000e74f9:  66 81 ff f4 1a           cmpw     $0x1af4, %di
0x000e74fe:  0f 85 e4 01 00 00        jne      0xe76e8

----------------
IN: 
0x000e7504:  66 3d 00 11              cmpw     $0x1100, %ax
0x000e7508:  0f 85 da 01 00 00        jne      0xe76e8

----------------
IN: 
0x000e750e:  83 0d e0 55 0f 00 01     orl      $1, 0xf55e0
0x000e7515:  66 81 fb 37 12           cmpw     $0x1237, %bx
0x000e751a:  74 0e                    je       0xe752a

----------------
IN: 
0x000e752a:  68 ab 3f 0f 00           pushl    $0xf3fab
0x000e752f:  e8 2b 47 00 00           calll    0xebc5f

----------------
IN: 
0x000ebc5f:  8d 4c 24 08              leal     8(%esp), %ecx
0x000ebc63:  8b 54 24 04              movl     4(%esp), %edx
0x000ebc67:  b8 08 4a 0f 00           movl     $0xf4a08, %eax
0x000ebc6c:  e8 7f f7 ff ff           calll    0xeb3f0

----------------
IN: 
0x000eb3f0:  55                       pushl    %ebp
0x000eb3f1:  57                       pushl    %edi
0x000eb3f2:  56                       pushl    %esi
0x000eb3f3:  53                       pushl    %ebx
0x000eb3f4:  83 ec 0c                 subl     $0xc, %esp
0x000eb3f7:  89 04 24                 movl     %eax, (%esp)
0x000eb3fa:  89 d7                    movl     %edx, %edi
0x000eb3fc:  89 cb                    movl     %ecx, %ebx
0x000eb3fe:  0f be 17                 movsbl   (%edi), %edx
0x000eb401:  84 d2                    testb    %dl, %dl
0x000eb403:  0f 84 5a 02 00 00        je       0xeb663

----------------
IN: 
0x000eb409:  80 fa 25                 cmpb     $0x25, %dl
0x000eb40c:  0f 85 3b 02 00 00        jne      0xeb64d

----------------
IN: 
0x000eb64d:  8b 04 24                 movl     (%esp), %eax
0x000eb650:  e8 06 d9 ff ff           calll    0xe8f5b

----------------
IN: 
0x000e8f5b:  0f be d2                 movsbl   %dl, %edx
0x000e8f5e:  ff 20                    jmpl     *(%eax)

----------------
IN: 
0x000ea585:  88 d0                    movb     %dl, %al
0x000ea587:  66 8b 15 94 60 0f 00     movw     0xf6094, %dx
0x000ea58e:  66 85 d2                 testw    %dx, %dx
0x000ea591:  74 01                    je       0xea594

----------------
IN: 
0x000ea594:  c3                       retl     

----------------
IN: 
0x000eb655:  89 fe                    movl     %edi, %esi
0x000eb657:  eb 02                    jmp      0xeb65b

----------------
IN: 
0x000eb65b:  8d 7e 01                 leal     1(%esi), %edi
0x000eb65e:  e9 9b fd ff ff           jmp      0xeb3fe

----------------
IN: 
0x000eb3fe:  0f be 17                 movsbl   (%edi), %edx
0x000eb401:  84 d2                    testb    %dl, %dl
0x000eb403:  0f 84 5a 02 00 00        je       0xeb663

----------------
IN: 
0x000eb663:  83 c4 0c                 addl     $0xc, %esp
0x000eb666:  5b                       popl     %ebx
0x000eb667:  5e                       popl     %esi
0x000eb668:  5f                       popl     %edi
0x000eb669:  5d                       popl     %ebp
0x000eb66a:  c3                       retl     

----------------
IN: 
0x000ebc71:  c3                       retl     

----------------
IN: 
0x000e7534:  5d                       popl     %ebp
0x000e7535:  eb 0f                    jmp      0xe7546

----------------
IN: 
0x000e7546:  8d 5c 24 1c              leal     0x1c(%esp), %ebx
0x000e754a:  53                       pushl    %ebx
0x000e754b:  8d 74 24 1c              leal     0x1c(%esp), %esi
0x000e754f:  56                       pushl    %esi
0x000e7550:  8d 4c 24 1c              leal     0x1c(%esp), %ecx
0x000e7554:  8d 54 24 18              leal     0x18(%esp), %edx
0x000e7558:  31 c0                    xorl     %eax, %eax
0x000e755a:  e8 56 1d 00 00           calll    0xe92b5

----------------
IN: 
0x000e92b5:  55                       pushl    %ebp
0x000e92b6:  57                       pushl    %edi
0x000e92b7:  56                       pushl    %esi
0x000e92b8:  53                       pushl    %ebx
0x000e92b9:  89 d7                    movl     %edx, %edi
0x000e92bb:  89 ce                    movl     %ecx, %esi
0x000e92bd:  8b 6c 24 14              movl     0x14(%esp), %ebp
0x000e92c1:  9c                       pushfl   
0x000e92c2:  59                       popl     %ecx
0x000e92c3:  89 ca                    movl     %ecx, %edx
0x000e92c5:  81 f2 00 00 20 00        xorl     $0x200000, %edx
0x000e92cb:  52                       pushl    %edx
0x000e92cc:  9d                       popfl    

----------------
IN: 
0x000e92cd:  9c                       pushfl   
0x000e92ce:  5a                       popl     %edx
0x000e92cf:  51                       pushl    %ecx
0x000e92d0:  9d                       popfl    

----------------
IN: 
0x000e92d1:  31 ca                    xorl     %ecx, %edx
0x000e92d3:  0f ba e2 15              btl      $0x15, %edx
0x000e92d7:  72 11                    jb       0xe92ea

----------------
IN: 
0x000e92ea:  0f a2                    cpuid    
0x000e92ec:  89 07                    movl     %eax, (%edi)
0x000e92ee:  89 1e                    movl     %ebx, (%esi)
0x000e92f0:  89 4d 00                 movl     %ecx, (%ebp)
0x000e92f3:  8b 44 24 18              movl     0x18(%esp), %eax
0x000e92f7:  89 10                    movl     %edx, (%eax)
0x000e92f9:  5b                       popl     %ebx
0x000e92fa:  5e                       popl     %esi
0x000e92fb:  5f                       popl     %edi
0x000e92fc:  5d                       popl     %ebp
0x000e92fd:  c3                       retl     

----------------
IN: 
0x000e755f:  8b 44 24 1c              movl     0x1c(%esp), %eax
0x000e7563:  89 44 24 38              movl     %eax, 0x38(%esp)
0x000e7567:  8b 44 24 24              movl     0x24(%esp), %eax
0x000e756b:  89 44 24 3c              movl     %eax, 0x3c(%esp)
0x000e756f:  8b 44 24 20              movl     0x20(%esp), %eax
0x000e7573:  89 44 24 40              movl     %eax, 0x40(%esp)
0x000e7577:  c6 44 24 44 00           movb     $0, 0x44(%esp)
0x000e757c:  59                       popl     %ecx
0x000e757d:  5f                       popl     %edi
0x000e757e:  31 ff                    xorl     %edi, %edi
0x000e7580:  83 7c 24 10 00           cmpl     $0, 0x10(%esp)
0x000e7585:  74 1d                    je       0xe75a4

----------------
IN: 
0x000e7587:  53                       pushl    %ebx
0x000e7588:  56                       pushl    %esi
0x000e7589:  8d 4c 24 1c              leal     0x1c(%esp), %ecx
0x000e758d:  8d 54 24 18              leal     0x18(%esp), %edx
0x000e7591:  b8 01 00 00 00           movl     $1, %eax
0x000e7596:  e8 1a 1d 00 00           calll    0xe92b5

----------------
IN: 
0x000e759b:  8b 7c 24 24              movl     0x24(%esp), %edi
0x000e759f:  83 e7 40                 andl     $0x40, %edi
0x000e75a2:  58                       popl     %eax
0x000e75a3:  5a                       popl     %edx
0x000e75a4:  53                       pushl    %ebx
0x000e75a5:  8d 6c 24 1c              leal     0x1c(%esp), %ebp
0x000e75a9:  55                       pushl    %ebp
0x000e75aa:  8d 4c 24 1c              leal     0x1c(%esp), %ecx
0x000e75ae:  8d 54 24 18              leal     0x18(%esp), %edx
0x000e75b2:  b8 00 00 00 80           movl     $0x80000000, %eax
0x000e75b7:  e8 f9 1c 00 00           calll    0xe92b5

----------------
IN: 
0x000e75bc:  8b 74 24 18              movl     0x18(%esp), %esi
0x000e75c0:  59                       popl     %ecx
0x000e75c1:  58                       popl     %eax
0x000e75c2:  81 fe 00 00 00 80        cmpl     $0x80000000, %esi
0x000e75c8:  76 25                    jbe      0xe75ef

----------------
IN: 
0x000e75ca:  53                       pushl    %ebx
0x000e75cb:  55                       pushl    %ebp
0x000e75cc:  8d 4c 24 1c              leal     0x1c(%esp), %ecx
0x000e75d0:  8d 54 24 18              leal     0x18(%esp), %edx
0x000e75d4:  b8 01 00 00 80           movl     $0x80000001, %eax
0x000e75d9:  e8 d7 1c 00 00           calll    0xe92b5

----------------
IN: 
0x000e75de:  8b 44 24 24              movl     0x24(%esp), %eax
0x000e75e2:  c1 e8 1d                 shrl     $0x1d, %eax
0x000e75e5:  83 e0 01                 andl     $1, %eax
0x000e75e8:  a2 a0 8e 0e 00           movb     %al, 0xe8ea0
0x000e75ed:  58                       popl     %eax
0x000e75ee:  5a                       popl     %edx
0x000e75ef:  a0 a0 8e 0e 00           movb     0xe8ea0, %al
0x000e75f4:  85 ff                    testl    %edi, %edi
0x000e75f6:  0f 84 a8 00 00 00        je       0xe76a4

----------------
IN: 
0x000e75fc:  84 c0                    testb    %al, %al
0x000e75fe:  74 10                    je       0xe7610

----------------
IN: 
0x000e7600:  81 fe 07 00 00 80        cmpl     $0x80000007, %esi
0x000e7606:  77 1e                    ja       0xe7626

----------------
IN: 
0x000e7626:  53                       pushl    %ebx
0x000e7627:  8d 44 24 1c              leal     0x1c(%esp), %eax
0x000e762b:  50                       pushl    %eax
0x000e762c:  8d 4c 24 1c              leal     0x1c(%esp), %ecx
0x000e7630:  8d 54 24 18              leal     0x18(%esp), %edx
0x000e7634:  b8 08 00 00 80           movl     $0x80000008, %eax
0x000e7639:  e8 77 1c 00 00           calll    0xe92b5

----------------
IN: 
0x000e763e:  0f b6 5c 24 18           movzbl   0x18(%esp), %ebx
0x000e7643:  5e                       popl     %esi
0x000e7644:  5d                       popl     %ebp
0x000e7645:  83 fb 28                 cmpl     $0x28, %ebx
0x000e7648:  77 40                    ja       0xe768a

----------------
IN: 
0x000e764a:  ba 05 40 0f 00           movl     $0xf4005, %edx
0x000e764f:  8d 44 24 30              leal     0x30(%esp), %eax
0x000e7653:  e8 96 1a 00 00           calll    0xe90ee

----------------
IN: 
0x000e90ee:  53                       pushl    %ebx
0x000e90ef:  31 c9                    xorl     %ecx, %ecx
0x000e90f1:  8a 1c 08                 movb     (%eax, %ecx), %bl
0x000e90f4:  3a 1c 0a                 cmpb     (%edx, %ecx), %bl
0x000e90f7:  74 0c                    je       0xe9105

----------------
IN: 
0x000e90f9:  0f 9d c0                 setge    %al
0x000e90fc:  0f b6 c0                 movzbl   %al, %eax
0x000e90ff:  8d 44 00 ff              leal     -1(%eax, %eax), %eax
0x000e9103:  eb 07                    jmp      0xe910c

----------------
IN: 
0x000e910c:  5b                       popl     %ebx
0x000e910d:  c3                       retl     

----------------
IN: 
0x000e7658:  85 c0                    testl    %eax, %eax
0x000e765a:  75 0e                    jne      0xe766a

----------------
IN: 
0x000e766a:  ba 12 40 0f 00           movl     $0xf4012, %edx
0x000e766f:  8d 44 24 30              leal     0x30(%esp), %eax
0x000e7673:  e8 76 1a 00 00           calll    0xe90ee

----------------
IN: 
0x000e9105:  41                       incl     %ecx
0x000e9106:  84 db                    testb    %bl, %bl
0x000e9108:  75 e7                    jne      0xe90f1

----------------
IN: 
0x000e90f1:  8a 1c 08                 movb     (%eax, %ecx), %bl
0x000e90f4:  3a 1c 0a                 cmpb     (%edx, %ecx), %bl
0x000e90f7:  74 0c                    je       0xe9105

----------------
IN: 
0x000e910a:  31 c0                    xorl     %eax, %eax
0x000e910c:  5b                       popl     %ebx
0x000e910d:  c3                       retl     

----------------
IN: 
0x000e7678:  83 fb 28                 cmpl     $0x28, %ebx
0x000e767b:  75 04                    jne      0xe7681

----------------
IN: 
0x000e767d:  85 c0                    testl    %eax, %eax
0x000e767f:  74 09                    je       0xe768a

----------------
IN: 
0x000e768a:  be 01 00 00 00           movl     $1, %esi
0x000e768f:  b8 a4 3f 0f 00           movl     $0xf3fa4, %eax
0x000e7694:  ba a4 3f 0f 00           movl     $0xf3fa4, %edx
0x000e7699:  b9 a4 3f 0f 00           movl     $0xf3fa4, %ecx
0x000e769e:  85 ff                    testl    %edi, %edi
0x000e76a0:  75 21                    jne      0xe76c3

----------------
IN: 
0x000e76c3:  50                       pushl    %eax
0x000e76c4:  53                       pushl    %ebx
0x000e76c5:  52                       pushl    %edx
0x000e76c6:  51                       pushl    %ecx
0x000e76c7:  8d 44 24 40              leal     0x40(%esp), %eax
0x000e76cb:  50                       pushl    %eax
0x000e76cc:  68 b4 82 0e 00           pushl    $0xe82b4
0x000e76d1:  68 1f 40 0f 00           pushl    $0xf401f
0x000e76d6:  e8 84 45 00 00           calll    0xebc5f

----------------
IN: 
0x000eb412:  8d 77 01                 leal     1(%edi), %esi
0x000eb415:  c6 44 24 07 20           movb     $0x20, 7(%esp)
0x000eb41a:  31 c9                    xorl     %ecx, %ecx
0x000eb41c:  0f b6 06                 movzbl   (%esi), %eax
0x000eb41f:  8d 50 d0                 leal     -0x30(%eax), %edx
0x000eb422:  80 fa 09                 cmpb     $9, %dl
0x000eb425:  77 1b                    ja       0xeb442

----------------
IN: 
0x000eb442:  31 d2                    xorl     %edx, %edx
0x000eb444:  3c 6c                    cmpb     $0x6c, %al
0x000eb446:  75 12                    jne      0xeb45a

----------------
IN: 
0x000eb45a:  3c 64                    cmpb     $0x64, %al
0x000eb45c:  74 6d                    je       0xeb4cb

----------------
IN: 
0x000eb45e:  7f 47                    jg       0xeb4a7

----------------
IN: 
0x000eb4a7:  3c 73                    cmpb     $0x73, %al
0x000eb4a9:  0f 84 82 01 00 00        je       0xeb631

----------------
IN: 
0x000eb631:  8d 7b 04                 leal     4(%ebx), %edi
0x000eb634:  8b 1b                    movl     (%ebx), %ebx
0x000eb636:  0f be 13                 movsbl   (%ebx), %edx
0x000eb639:  84 d2                    testb    %dl, %dl
0x000eb63b:  74 1c                    je       0xeb659

----------------
IN: 
0x000eb63d:  8b 04 24                 movl     (%esp), %eax
0x000eb640:  e8 16 d9 ff ff           calll    0xe8f5b

----------------
IN: 
0x000eb645:  43                       incl     %ebx
0x000eb646:  eb ee                    jmp      0xeb636

----------------
IN: 
0x000eb636:  0f be 13                 movsbl   (%ebx), %edx
0x000eb639:  84 d2                    testb    %dl, %dl
0x000eb63b:  74 1c                    je       0xeb659

----------------
IN: 
0x000eb659:  89 fb                    movl     %edi, %ebx
0x000eb65b:  8d 7e 01                 leal     1(%esi), %edi
0x000eb65e:  e9 9b fd ff ff           jmp      0xeb3fe

----------------
IN: 
0x000eb4cb:  8b 3b                    movl     (%ebx), %edi
0x000eb4cd:  84 d2                    testb    %dl, %dl
0x000eb4cf:  75 05                    jne      0xeb4d6

----------------
IN: 
0x000eb4d1:  83 c3 04                 addl     $4, %ebx
0x000eb4d4:  eb 03                    jmp      0xeb4d9

----------------
IN: 
0x000eb4d9:  85 ff                    testl    %edi, %edi
0x000eb4db:  79 0f                    jns      0xeb4ec

----------------
IN: 
0x000eb4ec:  89 fa                    movl     %edi, %edx
0x000eb4ee:  eb 10                    jmp      0xeb500

----------------
IN: 
0x000eb500:  8b 04 24                 movl     (%esp), %eax
0x000eb503:  e8 58 da ff ff           calll    0xe8f60

----------------
IN: 
0x000e8f60:  57                       pushl    %edi
0x000e8f61:  56                       pushl    %esi
0x000e8f62:  53                       pushl    %ebx
0x000e8f63:  83 ec 0c                 subl     $0xc, %esp
0x000e8f66:  89 c6                    movl     %eax, %esi
0x000e8f68:  89 d1                    movl     %edx, %ecx
0x000e8f6a:  c6 44 24 0b 00           movb     $0, 0xb(%esp)
0x000e8f6f:  8d 5c 24 0a              leal     0xa(%esp), %ebx
0x000e8f73:  bf 0a 00 00 00           movl     $0xa, %edi
0x000e8f78:  89 c8                    movl     %ecx, %eax
0x000e8f7a:  31 d2                    xorl     %edx, %edx
0x000e8f7c:  f7 f7                    divl     %edi
0x000e8f7e:  83 c2 30                 addl     $0x30, %edx
0x000e8f81:  88 13                    movb     %dl, (%ebx)
0x000e8f83:  83 f9 09                 cmpl     $9, %ecx
0x000e8f86:  76 05                    jbe      0xe8f8d

----------------
IN: 
0x000e8f88:  4b                       decl     %ebx
0x000e8f89:  89 c1                    movl     %eax, %ecx
0x000e8f8b:  eb eb                    jmp      0xe8f78

----------------
IN: 
0x000e8f78:  89 c8                    movl     %ecx, %eax
0x000e8f7a:  31 d2                    xorl     %edx, %edx
0x000e8f7c:  f7 f7                    divl     %edi
0x000e8f7e:  83 c2 30                 addl     $0x30, %edx
0x000e8f81:  88 13                    movb     %dl, (%ebx)
0x000e8f83:  83 f9 09                 cmpl     $9, %ecx
0x000e8f86:  76 05                    jbe      0xe8f8d

----------------
IN: 
0x000e8f8d:  85 db                    testl    %ebx, %ebx
0x000e8f8f:  75 05                    jne      0xe8f96

----------------
IN: 
0x000e8f96:  0f be 13                 movsbl   (%ebx), %edx
0x000e8f99:  84 d2                    testb    %dl, %dl
0x000e8f9b:  74 0a                    je       0xe8fa7

----------------
IN: 
0x000e8f9d:  89 f0                    movl     %esi, %eax
0x000e8f9f:  e8 b7 ff ff ff           calll    0xe8f5b

----------------
IN: 
0x000e8fa4:  43                       incl     %ebx
0x000e8fa5:  eb ef                    jmp      0xe8f96

----------------
IN: 
0x000e8fa7:  83 c4 0c                 addl     $0xc, %esp
0x000e8faa:  5b                       popl     %ebx
0x000e8fab:  5e                       popl     %esi
0x000e8fac:  5f                       popl     %edi
0x000e8fad:  c3                       retl     

----------------
IN: 
0x000eb508:  e9 4e 01 00 00           jmp      0xeb65b

----------------
IN: 
0x000e76db:  83 c4 1c                 addl     $0x1c, %esp
0x000e76de:  85 f6                    testl    %esi, %esi
0x000e76e0:  74 06                    je       0xe76e8

----------------
IN: 
0x000e76e2:  88 1d a1 8e 0e 00        movb     %bl, 0xe8ea1
0x000e76e8:  31 ed                    xorl     %ebp, %ebp
0x000e76ea:  be 00 00 00 40           movl     $0x40000000, %esi
0x000e76ef:  31 db                    xorl     %ebx, %ebx
0x000e76f1:  89 5c 24 10              movl     %ebx, 0x10(%esp)
0x000e76f5:  8d 44 24 1c              leal     0x1c(%esp), %eax
0x000e76f9:  50                       pushl    %eax
0x000e76fa:  8d 7c 24 1c              leal     0x1c(%esp), %edi
0x000e76fe:  57                       pushl    %edi
0x000e76ff:  8d 4c 24 1c              leal     0x1c(%esp), %ecx
0x000e7703:  8d 54 24 18              leal     0x18(%esp), %edx
0x000e7707:  89 f0                    movl     %esi, %eax
0x000e7709:  e8 a7 1b 00 00           calll    0xe92b5

----------------
IN: 
0x000e770e:  8b 44 24 18              movl     0x18(%esp), %eax
0x000e7712:  5a                       popl     %edx
0x000e7713:  59                       popl     %ecx
0x000e7714:  39 f0                    cmpl     %esi, %eax
0x000e7716:  72 53                    jb       0xe776b

----------------
IN: 
0x000e7718:  8b 54 24 14              movl     0x14(%esp), %edx
0x000e771c:  89 54 24 30              movl     %edx, 0x30(%esp)
0x000e7720:  8b 54 24 18              movl     0x18(%esp), %edx
0x000e7724:  89 54 24 34              movl     %edx, 0x34(%esp)
0x000e7728:  8b 54 24 1c              movl     0x1c(%esp), %edx
0x000e772c:  89 54 24 38              movl     %edx, 0x38(%esp)
0x000e7730:  c6 44 24 3c 00           movb     $0, 0x3c(%esp)
0x000e7735:  8d 5c 24 30              leal     0x30(%esp), %ebx
0x000e7739:  53                       pushl    %ebx
0x000e773a:  50                       pushl    %eax
0x000e773b:  56                       pushl    %esi
0x000e773c:  68 5a 40 0f 00           pushl    $0xf405a
0x000e7741:  e8 19 45 00 00           calll    0xebc5f

----------------
IN: 
0x000eb4af:  7f 09                    jg       0xeb4ba

----------------
IN: 
0x000eb4ba:  3c 75                    cmpb     $0x75, %al
0x000eb4bc:  74 32                    je       0xeb4f0

----------------
IN: 
0x000eb4be:  3c 78                    cmpb     $0x78, %al
0x000eb4c0:  0f 84 e3 00 00 00        je       0xeb5a9

----------------
IN: 
0x000eb5a9:  3c 58                    cmpb     $0x58, %al
0x000eb5ab:  0f 94 c0                 sete     %al
0x000eb5ae:  0f b6 c0                 movzbl   %al, %eax
0x000eb5b1:  89 c5                    movl     %eax, %ebp
0x000eb5b3:  8b 03                    movl     (%ebx), %eax
0x000eb5b5:  89 44 24 08              movl     %eax, 8(%esp)
0x000eb5b9:  0f be 44 24 07           movsbl   7(%esp), %eax
0x000eb5be:  84 d2                    testb    %dl, %dl
0x000eb5c0:  74 30                    je       0xeb5f2

----------------
IN: 
0x000eb5f2:  8d 7b 04                 leal     4(%ebx), %edi
0x000eb5f5:  55                       pushl    %ebp
0x000eb5f6:  50                       pushl    %eax
0x000eb5f7:  8b 54 24 10              movl     0x10(%esp), %edx
0x000eb5fb:  8b 44 24 08              movl     8(%esp), %eax
0x000eb5ff:  e8 63 da ff ff           calll    0xe9067

----------------
IN: 
0x000e9067:  55                       pushl    %ebp
0x000e9068:  57                       pushl    %edi
0x000e9069:  56                       pushl    %esi
0x000e906a:  53                       pushl    %ebx
0x000e906b:  83 ec 08                 subl     $8, %esp
0x000e906e:  89 d6                    movl     %edx, %esi
0x000e9070:  89 cb                    movl     %ecx, %ebx
0x000e9072:  8b 6c 24 20              movl     0x20(%esp), %ebp
0x000e9076:  8a 54 24 1c              movb     0x1c(%esp), %dl
0x000e907a:  89 f1                    movl     %esi, %ecx
0x000e907c:  bf 01 00 00 00           movl     $1, %edi
0x000e9081:  c1 e9 04                 shrl     $4, %ecx
0x000e9084:  74 03                    je       0xe9089

----------------
IN: 
0x000e9086:  47                       incl     %edi
0x000e9087:  eb f8                    jmp      0xe9081

----------------
IN: 
0x000e9081:  c1 e9 04                 shrl     $4, %ecx
0x000e9084:  74 03                    je       0xe9089

----------------
IN: 
0x000e9089:  29 fb                    subl     %edi, %ebx
0x000e908b:  0f be ca                 movsbl   %dl, %ecx
0x000e908e:  89 0c 24                 movl     %ecx, (%esp)
0x000e9091:  85 db                    testl    %ebx, %ebx
0x000e9093:  7e 13                    jle      0xe90a8

----------------
IN: 
0x000e90a8:  89 6c 24 1c              movl     %ebp, 0x1c(%esp)
0x000e90ac:  89 f9                    movl     %edi, %ecx
0x000e90ae:  89 f2                    movl     %esi, %edx
0x000e90b0:  83 c4 08                 addl     $8, %esp
0x000e90b3:  5b                       popl     %ebx
0x000e90b4:  5e                       popl     %esi
0x000e90b5:  5f                       popl     %edi
0x000e90b6:  5d                       popl     %ebp
0x000e90b7:  e9 12 ff ff ff           jmp      0xe8fce

----------------
IN: 
0x000e8fce:  57                       pushl    %edi
0x000e8fcf:  56                       pushl    %esi
0x000e8fd0:  53                       pushl    %ebx
0x000e8fd1:  89 c6                    movl     %eax, %esi
0x000e8fd3:  89 d3                    movl     %edx, %ebx
0x000e8fd5:  8b 7c 24 10              movl     0x10(%esp), %edi
0x000e8fd9:  49                       decl     %ecx
0x000e8fda:  83 f9 06                 cmpl     $6, %ecx
0x000e8fdd:  77 07                    ja       0xe8fe6

----------------
IN: 
0x000e8fe6:  c1 ea 1c                 shrl     $0x1c, %edx
0x000e8fe9:  89 f9                    movl     %edi, %ecx
0x000e8feb:  e8 be ff ff ff           calll    0xe8fae

----------------
IN: 
0x000e8fae:  53                       pushl    %ebx
0x000e8faf:  89 c3                    movl     %eax, %ebx
0x000e8fb1:  8d 42 30                 leal     0x30(%edx), %eax
0x000e8fb4:  83 fa 09                 cmpl     $9, %edx
0x000e8fb7:  76 0a                    jbe      0xe8fc3

----------------
IN: 
0x000e8fc3:  0f be d0                 movsbl   %al, %edx
0x000e8fc6:  89 d8                    movl     %ebx, %eax
0x000e8fc8:  5b                       popl     %ebx
0x000e8fc9:  e9 8d ff ff ff           jmp      0xe8f5b

----------------
IN: 
0x000e8ff0:  89 da                    movl     %ebx, %edx
0x000e8ff2:  c1 ea 18                 shrl     $0x18, %edx
0x000e8ff5:  83 e2 0f                 andl     $0xf, %edx
0x000e8ff8:  89 f9                    movl     %edi, %ecx
0x000e8ffa:  89 f0                    movl     %esi, %eax

----------------
IN: 
0x000e8ffc:  e8 ad ff ff ff           calll    0xe8fae

----------------
IN: 
0x000e9001:  89 da                    movl     %ebx, %edx
0x000e9003:  c1 ea 14                 shrl     $0x14, %edx
0x000e9006:  83 e2 0f                 andl     $0xf, %edx
0x000e9009:  89 f9                    movl     %edi, %ecx
0x000e900b:  89 f0                    movl     %esi, %eax
0x000e900d:  e8 9c ff ff ff           calll    0xe8fae

----------------
IN: 
0x000e9012:  89 da                    movl     %ebx, %edx
0x000e9014:  c1 ea 10                 shrl     $0x10, %edx
0x000e9017:  83 e2 0f                 andl     $0xf, %edx
0x000e901a:  89 f9                    movl     %edi, %ecx
0x000e901c:  89 f0                    movl     %esi, %eax
0x000e901e:  e8 8b ff ff ff           calll    0xe8fae

----------------
IN: 
0x000e9023:  89 da                    movl     %ebx, %edx
0x000e9025:  c1 ea 0c                 shrl     $0xc, %edx
0x000e9028:  83 e2 0f                 andl     $0xf, %edx
0x000e902b:  89 f9                    movl     %edi, %ecx
0x000e902d:  89 f0                    movl     %esi, %eax
0x000e902f:  e8 7a ff ff ff           calll    0xe8fae

----------------
IN: 
0x000e9034:  89 da                    movl     %ebx, %edx
0x000e9036:  c1 ea 08                 shrl     $8, %edx
0x000e9039:  83 e2 0f                 andl     $0xf, %edx
0x000e903c:  89 f9                    movl     %edi, %ecx
0x000e903e:  89 f0                    movl     %esi, %eax
0x000e9040:  e8 69 ff ff ff           calll    0xe8fae

----------------
IN: 
0x000e9045:  89 da                    movl     %ebx, %edx
0x000e9047:  c1 ea 04                 shrl     $4, %edx
0x000e904a:  83 e2 0f                 andl     $0xf, %edx
0x000e904d:  89 f9                    movl     %edi, %ecx
0x000e904f:  89 f0                    movl     %esi, %eax
0x000e9051:  e8 58 ff ff ff           calll    0xe8fae

----------------
IN: 
0x000e9056:  83 e3 0f                 andl     $0xf, %ebx
0x000e9059:  89 da                    movl     %ebx, %edx
0x000e905b:  89 f9                    movl     %edi, %ecx
0x000e905d:  89 f0                    movl     %esi, %eax
0x000e905f:  5b                       popl     %ebx
0x000e9060:  5e                       popl     %esi
0x000e9061:  5f                       popl     %edi
0x000e9062:  e9 47 ff ff ff           jmp      0xe8fae

----------------
IN: 
0x000eb604:  58                       popl     %eax
0x000eb605:  5a                       popl     %edx
0x000eb606:  eb 51                    jmp      0xeb659

----------------
IN: 
0x000e7746:  ba 7e 40 0f 00           movl     $0xf407e, %edx
0x000e774b:  89 d8                    movl     %ebx, %eax
0x000e774d:  e8 9c 19 00 00           calll    0xe90ee

----------------
IN: 
0x000e7752:  83 c4 10                 addl     $0x10, %esp
0x000e7755:  85 c0                    testl    %eax, %eax
0x000e7757:  75 0a                    jne      0xe7763

----------------
IN: 
0x000e7763:  81 c6 00 01 00 00        addl     $0x100, %esi
0x000e7769:  eb 84                    jmp      0xe76ef

----------------
IN: 
0x000e76ef:  31 db                    xorl     %ebx, %ebx
0x000e76f1:  89 5c 24 10              movl     %ebx, 0x10(%esp)
0x000e76f5:  8d 44 24 1c              leal     0x1c(%esp), %eax
0x000e76f9:  50                       pushl    %eax
0x000e76fa:  8d 7c 24 1c              leal     0x1c(%esp), %edi
0x000e76fe:  57                       pushl    %edi
0x000e76ff:  8d 4c 24 1c              leal     0x1c(%esp), %ecx
0x000e7703:  8d 54 24 18              leal     0x18(%esp), %edx
0x000e7707:  89 f0                    movl     %esi, %eax
0x000e7709:  e8 a7 1b 00 00           calll    0xe92b5

----------------
IN: 
0x000e776b:  83 3d 9c 8e 0e 00 00     cmpl     $0, 0xe8e9c
0x000e7772:  74 5a                    je       0xe77ce

----------------
IN: 
0x000e77ce:  e8 47 17 00 00           calll    0xe8f1a

----------------
IN: 
0x000e77d3:  85 c0                    testl    %eax, %eax
0x000e77d5:  74 4c                    je       0xe7823

----------------
IN: 
0x000e7823:  e8 63 30 ff ff           calll    0xda88b

----------------
IN: 
0x000da88b:  56                       pushl    %esi
0x000da88c:  53                       pushl    %ebx
0x000da88d:  56                       pushl    %esi
0x000da88e:  8b 1d c4 4c 0f 00        movl     0xf4cc4, %ebx
0x000da894:  85 db                    testl    %ebx, %ebx
0x000da896:  75 68                    jne      0xda900

----------------
IN: 
0x000da898:  31 c0                    xorl     %eax, %eax
0x000da89a:  ba 10 05 00 00           movl     $0x510, %edx
0x000da89f:  66 ef                    outw     %ax, %dx

----------------
IN: 
0x000da8a1:  31 c9                    xorl     %ecx, %ecx
0x000da8a3:  ba 11 05 00 00           movl     $0x511, %edx
0x000da8a8:  ec                       inb      %dx, %al

----------------
IN: 
0x000da8a9:  0f b6 c0                 movzbl   %al, %eax
0x000da8ac:  0f be b1 8a 0a 0f 00     movsbl   0xf0a8a(%ecx), %esi
0x000da8b3:  39 f0                    cmpl     %esi, %eax
0x000da8b5:  75 4e                    jne      0xda905

----------------
IN: 
0x000da8b7:  41                       incl     %ecx
0x000da8b8:  83 f9 04                 cmpl     $4, %ecx
0x000da8bb:  75 eb                    jne      0xda8a8

----------------
IN: 
0x000da8a8:  ec                       inb      %dx, %al

----------------
IN: 
0x000da8bd:  68 8f 0a 0f 00           pushl    $0xf0a8f
0x000da8c2:  e8 98 13 01 00           calll    0xebc5f

----------------
IN: 
0x000da8c7:  c7 05 c4 4c 0f 00 01 00  movl     $1, 0xf4cc4
0x000da8cf:  00 00
0x000da8d1:  b9 04 00 00 00           movl     $4, %ecx
0x000da8d6:  ba 01 00 00 00           movl     $1, %edx
0x000da8db:  8d 44 24 04              leal     4(%esp), %eax
0x000da8df:  e8 28 12 01 00           calll    0xebb0c

----------------
IN: 
0x000ebb0c:  56                       pushl    %esi
0x000ebb0d:  53                       pushl    %ebx
0x000ebb0e:  89 c3                    movl     %eax, %ebx
0x000ebb10:  89 d0                    movl     %edx, %eax
0x000ebb12:  89 ce                    movl     %ecx, %esi
0x000ebb14:  83 3d c0 4c 0f 00 00     cmpl     $0, 0xf4cc0
0x000ebb1b:  74 13                    je       0xebb30

----------------
IN: 
0x000ebb30:  ba 10 05 00 00           movl     $0x510, %edx
0x000ebb35:  66 ef                    outw     %ax, %dx

----------------
IN: 
0x000ebb37:  89 ca                    movl     %ecx, %edx
0x000ebb39:  89 d8                    movl     %ebx, %eax
0x000ebb3b:  5b                       popl     %ebx
0x000ebb3c:  5e                       popl     %esi
0x000ebb3d:  e9 a4 ff ff ff           jmp      0xebae6

----------------
IN: 
0x000ebae6:  85 d2                    testl    %edx, %edx
0x000ebae8:  74 21                    je       0xebb0b

----------------
IN: 
0x000ebaea:  83 3d c0 4c 0f 00 00     cmpl     $0, 0xf4cc0
0x000ebaf1:  74 0a                    je       0xebafd

----------------
IN: 
0x000ebafd:  57                       pushl    %edi
0x000ebafe:  89 d1                    movl     %edx, %ecx
0x000ebb00:  89 c7                    movl     %eax, %edi
0x000ebb02:  ba 11 05 00 00           movl     $0x511, %edx
0x000ebb07:  f3 6c                    rep insb %dx, %es:(%edi)

----------------
IN: 
0x000ebb07:  f3 6c                    rep insb %dx, %es:(%edi)

----------------
IN: 
0x000ebb09:  5f                       popl     %edi
0x000ebb0a:  c3                       retl     

----------------
IN: 
0x000da8e4:  5b                       popl     %ebx
0x000da8e5:  f6 04 24 02              testb    $2, (%esp)
0x000da8e9:  74 15                    je       0xda900

----------------
IN: 
0x000da8eb:  68 a2 0a 0f 00           pushl    $0xf0aa2
0x000da8f0:  e8 6a 13 01 00           calll    0xebc5f

----------------
IN: 
0x000da8f5:  c7 05 c0 4c 0f 00 01 00  movl     $1, 0xf4cc0
0x000da8fd:  00 00
0x000da8ff:  59                       popl     %ecx
0x000da900:  bb 01 00 00 00           movl     $1, %ebx
0x000da905:  89 d8                    movl     %ebx, %eax
0x000da907:  5a                       popl     %edx
0x000da908:  5b                       popl     %ebx
0x000da909:  5e                       popl     %esi
0x000da90a:  c3                       retl     

----------------
IN: 
0x000e7828:  85 c0                    testl    %eax, %eax
0x000e782a:  0f 84 a3 01 00 00        je       0xe79d3

----------------
IN: 
0x000e7830:  b9 04 00 00 00           movl     $4, %ecx
0x000e7835:  ba 19 00 00 00           movl     $0x19, %edx
0x000e783a:  89 f8                    movl     %edi, %eax
0x000e783c:  e8 cb 42 00 00           calll    0xebb0c

----------------
IN: 
0x000ebb1d:  c1 e0 10                 shll     $0x10, %eax
0x000ebb20:  83 c8 0a                 orl      $0xa, %eax
0x000ebb23:  89 c1                    movl     %eax, %ecx
0x000ebb25:  89 f2                    movl     %esi, %edx
0x000ebb27:  89 d8                    movl     %ebx, %eax
0x000ebb29:  5b                       popl     %ebx
0x000ebb2a:  5e                       popl     %esi
0x000ebb2b:  e9 62 ff ff ff           jmp      0xeba92

----------------
IN: 
0x000eba92:  56                       pushl    %esi
0x000eba93:  53                       pushl    %ebx
0x000eba94:  83 ec 10                 subl     $0x10, %esp
0x000eba97:  89 d6                    movl     %edx, %esi
0x000eba99:  89 cb                    movl     %ecx, %ebx
0x000eba9b:  31 d2                    xorl     %edx, %edx
0x000eba9d:  e8 22 f0 ff ff           calll    0xeaac4

----------------
IN: 
0x000eaac4:  89 d1                    movl     %edx, %ecx
0x000eaac6:  0f c9                    bswapl   %ecx
0x000eaac8:  89 c2                    movl     %eax, %edx
0x000eaaca:  0f ca                    bswapl   %edx
0x000eaacc:  89 c8                    movl     %ecx, %eax
0x000eaace:  c3                       retl     

----------------
IN: 
0x000ebaa2:  89 44 24 08              movl     %eax, 8(%esp)
0x000ebaa6:  89 54 24 0c              movl     %edx, 0xc(%esp)
0x000ebaaa:  89 f0                    movl     %esi, %eax
0x000ebaac:  e8 32 de ff ff           calll    0xe98e3

----------------
IN: 
0x000e98e3:  0f c8                    bswapl   %eax
0x000e98e5:  c3                       retl     

----------------
IN: 
0x000ebab1:  89 44 24 04              movl     %eax, 4(%esp)
0x000ebab5:  89 d8                    movl     %ebx, %eax
0x000ebab7:  e8 27 de ff ff           calll    0xe98e3

----------------
IN: 
0x000ebabc:  89 04 24                 movl     %eax, (%esp)
0x000ebabf:  89 e0                    movl     %esp, %eax
0x000ebac1:  e8 1d de ff ff           calll    0xe98e3

----------------
IN: 
0x000ebac6:  ba 18 05 00 00           movl     $0x518, %edx
0x000ebacb:  ef                       outl     %eax, %dx

----------------
IN: 
0x000ebacc:  8b 04 24                 movl     (%esp), %eax
0x000ebacf:  e8 0f de ff ff           calll    0xe98e3

----------------
IN: 
0x000ebad4:  83 f8 01                 cmpl     $1, %eax
0x000ebad7:  76 07                    jbe      0xebae0

----------------
IN: 
0x000ebae0:  83 c4 10                 addl     $0x10, %esp
0x000ebae3:  5b                       popl     %ebx
0x000ebae4:  5e                       popl     %esi
0x000ebae5:  c3                       retl     

----------------
IN: 
0x000e7841:  8b 44 24 18              movl     0x18(%esp), %eax
0x000e7845:  e8 99 20 00 00           calll    0xe98e3

----------------
IN: 
0x000e784a:  89 44 24 18              movl     %eax, 0x18(%esp)
0x000e784e:  31 f6                    xorl     %esi, %esi
0x000e7850:  3b 74 24 18              cmpl     0x18(%esp), %esi
0x000e7854:  73 42                    jae      0xe7898

----------------
IN: 
0x000e7856:  ba 40 00 00 00           movl     $0x40, %edx
0x000e785b:  8d 44 24 30              leal     0x30(%esp), %eax
0x000e785f:  e8 82 42 00 00           calll    0xebae6

----------------
IN: 
0x000ebaf3:  b9 02 00 00 00           movl     $2, %ecx
0x000ebaf8:  e9 95 ff ff ff           jmp      0xeba92

----------------
IN: 
0x000e7864:  b9 09 00 00 00           movl     $9, %ecx
0x000e7869:  ba 5e 0f 0f 00           movl     $0xf0f5e, %edx
0x000e786e:  8d 44 24 38              leal     0x38(%esp), %eax
0x000e7872:  e8 56 18 00 00           calll    0xe90cd

----------------
IN: 
0x000e90cd:  01 c1                    addl     %eax, %ecx
0x000e90cf:  39 c1                    cmpl     %eax, %ecx
0x000e90d1:  75 03                    jne      0xe90d6

----------------
IN: 
0x000e90d6:  53                       pushl    %ebx
0x000e90d7:  8a 1a                    movb     (%edx), %bl
0x000e90d9:  38 18                    cmpb     %bl, (%eax)
0x000e90db:  74 07                    je       0xe90e4

----------------
IN: 
0x000e90dd:  19 c0                    sbbl     %eax, %eax
0x000e90df:  83 c8 01                 orl      $1, %eax
0x000e90e2:  eb 08                    jmp      0xe90ec

----------------
IN: 
0x000e90ec:  5b                       popl     %ebx
0x000e90ed:  c3                       retl     

----------------
IN: 
0x000e7877:  85 c0                    testl    %eax, %eax
0x000e7879:  74 03                    je       0xe787e

----------------
IN: 
0x000e787b:  46                       incl     %esi
0x000e787c:  eb d2                    jmp      0xe7850

----------------
IN: 
0x000e7850:  3b 74 24 18              cmpl     0x18(%esp), %esi
0x000e7854:  73 42                    jae      0xe7898

----------------
IN: 
0x000e90e4:  40                       incl     %eax
0x000e90e5:  42                       incl     %edx
0x000e90e6:  39 c1                    cmpl     %eax, %ecx
0x000e90e8:  75 ed                    jne      0xe90d7

----------------
IN: 
0x000e90d7:  8a 1a                    movb     (%edx), %bl
0x000e90d9:  38 18                    cmpb     %bl, (%eax)
0x000e90db:  74 07                    je       0xe90e4

----------------
IN: 
0x000e90ea:  31 c0                    xorl     %eax, %eax
0x000e90ec:  5b                       popl     %ebx
0x000e90ed:  c3                       retl     

----------------
IN: 
0x000e787e:  8b 54 24 34              movl     0x34(%esp), %edx
0x000e7882:  89 d6                    movl     %edx, %esi
0x000e7884:  66 c1 c6 08              rolw     $8, %si
0x000e7888:  8b 44 24 30              movl     0x30(%esp), %eax
0x000e788c:  e8 52 20 00 00           calll    0xe98e3

----------------
IN: 
0x000e7891:  89 c1                    movl     %eax, %ecx
0x000e7893:  66 85 d2                 testw    %dx, %dx
0x000e7896:  75 10                    jne      0xe78a8

----------------
IN: 
0x000e78a8:  ba 10 05 00 00           movl     $0x510, %edx
0x000e78ad:  89 f0                    movl     %esi, %eax
0x000e78af:  66 ef                    outw     %ax, %dx

----------------
IN: 
0x000e78b1:  be 14 00 00 00           movl     $0x14, %esi
0x000e78b6:  89 c8                    movl     %ecx, %eax
0x000e78b8:  31 d2                    xorl     %edx, %edx
0x000e78ba:  f7 f6                    divl     %esi
0x000e78bc:  89 44 24 18              movl     %eax, 0x18(%esp)
0x000e78c0:  31 ed                    xorl     %ebp, %ebp
0x000e78c2:  3b 6c 24 18              cmpl     0x18(%esp), %ebp
0x000e78c6:  0f 83 6d 01 00 00        jae      0xe7a39

----------------
IN: 
0x000e78cc:  ba 14 00 00 00           movl     $0x14, %edx
0x000e78d1:  8d 44 24 1c              leal     0x1c(%esp), %eax
0x000e78d5:  e8 0c 42 00 00           calll    0xebae6

----------------
IN: 
0x000e78da:  8b 44 24 2c              movl     0x2c(%esp), %eax
0x000e78de:  83 f8 01                 cmpl     $1, %eax
0x000e78e1:  74 42                    je       0xe7925

----------------
IN: 
0x000e78e3:  83 f8 02                 cmpl     $2, %eax
0x000e78e6:  0f 85 e1 00 00 00        jne      0xe79cd

----------------
IN: 
0x000e78ec:  6a 02                    pushl    $2
0x000e78ee:  ff 74 24 2c              pushl    0x2c(%esp)
0x000e78f2:  ff 74 24 2c              pushl    0x2c(%esp)
0x000e78f6:  8b 44 24 28              movl     0x28(%esp), %eax
0x000e78fa:  8b 54 24 2c              movl     0x2c(%esp), %edx
0x000e78fe:  e8 fb f2 fe ff           calll    0xd6bfe

----------------
IN: 
0x000d6bfe:  56                       pushl    %esi
0x000d6bff:  53                       pushl    %ebx
0x000d6c00:  8b 5c 24 0c              movl     0xc(%esp), %ebx
0x000d6c04:  8b 4c 24 10              movl     0x10(%esp), %ecx
0x000d6c08:  8b 74 24 14              movl     0x14(%esp), %esi
0x000d6c0c:  85 c9                    testl    %ecx, %ecx
0x000d6c0e:  75 04                    jne      0xd6c14

----------------
IN: 
0x000d6c14:  89 74 24 14              movl     %esi, 0x14(%esp)
0x000d6c18:  89 5c 24 0c              movl     %ebx, 0xc(%esp)
0x000d6c1c:  89 4c 24 10              movl     %ecx, 0x10(%esp)
0x000d6c20:  5b                       popl     %ebx
0x000d6c21:  5e                       popl     %esi
0x000d6c22:  e9 03 fe ff ff           jmp      0xd6a2a

----------------
IN: 
0x000d6a2a:  55                       pushl    %ebp
0x000d6a2b:  57                       pushl    %edi
0x000d6a2c:  56                       pushl    %esi
0x000d6a2d:  53                       pushl    %ebx
0x000d6a2e:  83 ec 24                 subl     $0x24, %esp
0x000d6a31:  89 44 24 08              movl     %eax, 8(%esp)
0x000d6a35:  89 54 24 0c              movl     %edx, 0xc(%esp)
0x000d6a39:  8b 44 24 38              movl     0x38(%esp), %eax
0x000d6a3d:  8b 54 24 3c              movl     0x3c(%esp), %edx
0x000d6a41:  89 44 24 18              movl     %eax, 0x18(%esp)
0x000d6a45:  89 54 24 1c              movl     %edx, 0x1c(%esp)
0x000d6a49:  8b 6c 24 40              movl     0x40(%esp), %ebp
0x000d6a4d:  03 44 24 08              addl     8(%esp), %eax
0x000d6a51:  13 54 24 0c              adcl     0xc(%esp), %edx
0x000d6a55:  89 04 24                 movl     %eax, (%esp)
0x000d6a58:  89 54 24 04              movl     %edx, 4(%esp)
0x000d6a5c:  a1 04 56 0f 00           movl     0xf5604, %eax
0x000d6a61:  89 44 24 20              movl     %eax, 0x20(%esp)
0x000d6a65:  31 db                    xorl     %ebx, %ebx
0x000d6a67:  8b 44 24 20              movl     0x20(%esp), %eax
0x000d6a6b:  39 c3                    cmpl     %eax, %ebx
0x000d6a6d:  0f 8d 54 01 00 00        jge      0xd6bc7

----------------
IN: 
0x000d6bc7:  83 fd ff                 cmpl     $-1, %ebp
0x000d6bca:  74 2a                    je       0xd6bf6

----------------
IN: 
0x000d6bcc:  89 6c 24 40              movl     %ebp, 0x40(%esp)
0x000d6bd0:  8b 44 24 18              movl     0x18(%esp), %eax
0x000d6bd4:  8b 54 24 1c              movl     0x1c(%esp), %edx
0x000d6bd8:  89 44 24 38              movl     %eax, 0x38(%esp)
0x000d6bdc:  89 54 24 3c              movl     %edx, 0x3c(%esp)
0x000d6be0:  8b 54 24 08              movl     8(%esp), %edx
0x000d6be4:  8b 4c 24 0c              movl     0xc(%esp), %ecx
0x000d6be8:  89 d8                    movl     %ebx, %eax
0x000d6bea:  83 c4 24                 addl     $0x24, %esp
0x000d6bed:  5b                       popl     %ebx
0x000d6bee:  5e                       popl     %esi
0x000d6bef:  5f                       popl     %edi
0x000d6bf0:  5d                       popl     %ebp
0x000d6bf1:  e9 98 fd ff ff           jmp      0xd698e

----------------
IN: 
0x000d698e:  55                       pushl    %ebp
0x000d698f:  57                       pushl    %edi
0x000d6990:  56                       pushl    %esi
0x000d6991:  53                       pushl    %ebx
0x000d6992:  83 ec 10                 subl     $0x10, %esp
0x000d6995:  89 14 24                 movl     %edx, (%esp)
0x000d6998:  89 4c 24 04              movl     %ecx, 4(%esp)
0x000d699c:  8b 7c 24 24              movl     0x24(%esp), %edi
0x000d69a0:  8b 6c 24 28              movl     0x28(%esp), %ebp
0x000d69a4:  89 7c 24 08              movl     %edi, 8(%esp)
0x000d69a8:  89 6c 24 0c              movl     %ebp, 0xc(%esp)
0x000d69ac:  8b 7c 24 2c              movl     0x2c(%esp), %edi
0x000d69b0:  8b 1d 04 56 0f 00        movl     0xf5604, %ebx
0x000d69b6:  83 fb 7f                 cmpl     $0x7f, %ebx
0x000d69b9:  7e 16                    jle      0xd69d1

----------------
IN: 
0x000d69d1:  6b f0 14                 imull    $0x14, %eax, %esi
0x000d69d4:  89 d9                    movl     %ebx, %ecx
0x000d69d6:  29 c1                    subl     %eax, %ecx
0x000d69d8:  6b c9 14                 imull    $0x14, %ecx, %ecx
0x000d69db:  8d ae 20 56 0f 00        leal     0xf5620(%esi), %ebp
0x000d69e1:  8d 86 34 56 0f 00        leal     0xf5634(%esi), %eax
0x000d69e7:  89 ea                    movl     %ebp, %edx
0x000d69e9:  e8 9e f6 ff ff           calll    0xd608c

----------------
IN: 
0x000d608c:  57                       pushl    %edi
0x000d608d:  56                       pushl    %esi
0x000d608e:  89 d6                    movl     %edx, %esi
0x000d6090:  39 c2                    cmpl     %eax, %edx
0x000d6092:  72 06                    jb       0xd609a

----------------
IN: 
0x000d609a:  83 e9 01                 subl     $1, %ecx
0x000d609d:  72 08                    jb       0xd60a7

----------------
IN: 
0x000d60a7:  5e                       popl     %esi
0x000d60a8:  5f                       popl     %edi
0x000d60a9:  c3                       retl     

----------------
IN: 
0x000d69ee:  43                       incl     %ebx
0x000d69ef:  89 1d 04 56 0f 00        movl     %ebx, 0xf5604
0x000d69f5:  8b 04 24                 movl     (%esp), %eax
0x000d69f8:  8b 54 24 04              movl     4(%esp), %edx
0x000d69fc:  89 86 20 56 0f 00        movl     %eax, 0xf5620(%esi)
0x000d6a02:  89 96 24 56 0f 00        movl     %edx, 0xf5624(%esi)
0x000d6a08:  8b 44 24 08              movl     8(%esp), %eax
0x000d6a0c:  8b 54 24 0c              movl     0xc(%esp), %edx
0x000d6a10:  89 86 28 56 0f 00        movl     %eax, 0xf5628(%esi)
0x000d6a16:  89 96 2c 56 0f 00        movl     %edx, 0xf562c(%esi)
0x000d6a1c:  89 be 30 56 0f 00        movl     %edi, 0xf5630(%esi)
0x000d6a22:  83 c4 10                 addl     $0x10, %esp
0x000d6a25:  5b                       popl     %ebx
0x000d6a26:  5e                       popl     %esi
0x000d6a27:  5f                       popl     %edi
0x000d6a28:  5d                       popl     %ebp
0x000d6a29:  c3                       retl     

----------------
IN: 
0x000e7903:  ff 74 24 34              pushl    0x34(%esp)
0x000e7907:  ff 74 24 34              pushl    0x34(%esp)
0x000e790b:  ff 74 24 34              pushl    0x34(%esp)
0x000e790f:  ff 74 24 34              pushl    0x34(%esp)
0x000e7913:  68 fc 40 0f 00           pushl    $0xf40fc
0x000e7918:  e8 42 43 00 00           calll    0xebc5f

----------------
IN: 
0x000eb427:  85 c9                    testl    %ecx, %ecx
0x000eb429:  75 04                    jne      0xeb42f

----------------
IN: 
0x000eb42b:  3c 30                    cmpb     $0x30, %al
0x000eb42d:  74 09                    je       0xeb438

----------------
IN: 
0x000eb438:  c6 44 24 07 30           movb     $0x30, 7(%esp)
0x000eb43d:  31 c9                    xorl     %ecx, %ecx
0x000eb43f:  46                       incl     %esi
0x000eb440:  eb da                    jmp      0xeb41c

----------------
IN: 
0x000eb41c:  0f b6 06                 movzbl   (%esi), %eax
0x000eb41f:  8d 50 d0                 leal     -0x30(%eax), %edx
0x000eb422:  80 fa 09                 cmpb     $9, %dl
0x000eb425:  77 1b                    ja       0xeb442

----------------
IN: 
0x000eb42f:  6b c9 0a                 imull    $0xa, %ecx, %ecx
0x000eb432:  8d 4c 01 d0              leal     -0x30(%ecx, %eax), %ecx
0x000eb436:  eb 07                    jmp      0xeb43f

----------------
IN: 
0x000eb43f:  46                       incl     %esi
0x000eb440:  eb da                    jmp      0xeb41c

----------------
IN: 
0x000eb448:  8a 46 01                 movb     1(%esi), %al
0x000eb44b:  3c 6c                    cmpb     $0x6c, %al
0x000eb44d:  74 03                    je       0xeb452

----------------
IN: 
0x000eb452:  8a 46 02                 movb     2(%esi), %al
0x000eb455:  83 c6 02                 addl     $2, %esi
0x000eb458:  b2 01                    movb     $1, %dl
0x000eb45a:  3c 64                    cmpb     $0x64, %al
0x000eb45c:  74 6d                    je       0xeb4cb

----------------
IN: 
0x000eb5c2:  8d 7b 08                 leal     8(%ebx), %edi
0x000eb5c5:  8b 53 04                 movl     4(%ebx), %edx
0x000eb5c8:  85 d2                    testl    %edx, %edx
0x000eb5ca:  74 29                    je       0xeb5f5

----------------
IN: 
0x000eb5cc:  83 e9 08                 subl     $8, %ecx
0x000eb5cf:  55                       pushl    %ebp
0x000eb5d0:  50                       pushl    %eax
0x000eb5d1:  8b 44 24 08              movl     8(%esp), %eax
0x000eb5d5:  e8 8d da ff ff           calll    0xe9067

----------------
IN: 
0x000e9095:  8b 14 24                 movl     (%esp), %edx
0x000e9098:  89 44 24 04              movl     %eax, 4(%esp)
0x000e909c:  e8 ba fe ff ff           calll    0xe8f5b

----------------
IN: 
0x000e90a1:  4b                       decl     %ebx
0x000e90a2:  8b 44 24 04              movl     4(%esp), %eax
0x000e90a6:  eb e9                    jmp      0xe9091

----------------
IN: 
0x000e9091:  85 db                    testl    %ebx, %ebx
0x000e9093:  7e 13                    jle      0xe90a8

----------------
IN: 
0x000e8fdf:  ff 24 8d 60 43 0f 00     jmpl     *0xf4360(, %ecx, 4)

----------------
IN: 
0x000e8fb9:  8d 42 57                 leal     0x57(%edx), %eax
0x000e8fbc:  85 c9                    testl    %ecx, %ecx
0x000e8fbe:  74 03                    je       0xe8fc3

----------------
IN: 
0x000eb5da:  55                       pushl    %ebp
0x000eb5db:  b9 08 00 00 00           movl     $8, %ecx
0x000eb5e0:  8b 54 24 14              movl     0x14(%esp), %edx
0x000eb5e4:  8b 44 24 0c              movl     0xc(%esp), %eax
0x000eb5e8:  e8 e1 d9 ff ff           calll    0xe8fce

----------------
IN: 
0x000eb5ed:  83 c4 0c                 addl     $0xc, %esp
0x000eb5f0:  eb 67                    jmp      0xeb659

----------------
IN: 
0x000e791d:  83 c4 20                 addl     $0x20, %esp
0x000e7920:  e9 a8 00 00 00           jmp      0xe79cd

----------------
IN: 
0x000e79cd:  45                       incl     %ebp
0x000e79ce:  e9 ef fe ff ff           jmp      0xe78c2

----------------
IN: 
0x000e78c2:  3b 6c 24 18              cmpl     0x18(%esp), %ebp
0x000e78c6:  0f 83 6d 01 00 00        jae      0xe7a39

----------------
IN: 
0x000e7925:  6a 01                    pushl    $1
0x000e7927:  ff 74 24 2c              pushl    0x2c(%esp)
0x000e792b:  ff 74 24 2c              pushl    0x2c(%esp)
0x000e792f:  8b 44 24 28              movl     0x28(%esp), %eax
0x000e7933:  8b 54 24 2c              movl     0x2c(%esp), %edx
0x000e7937:  e8 c2 f2 fe ff           calll    0xd6bfe

----------------
IN: 
0x000d6c10:  85 db                    testl    %ebx, %ebx
0x000d6c12:  74 13                    je       0xd6c27

----------------
IN: 
0x000d6a73:  6b c3 14                 imull    $0x14, %ebx, %eax
0x000d6a76:  8b b0 20 56 0f 00        movl     0xf5620(%eax), %esi
0x000d6a7c:  8b b8 24 56 0f 00        movl     0xf5624(%eax), %edi
0x000d6a82:  89 f2                    movl     %esi, %edx
0x000d6a84:  89 f9                    movl     %edi, %ecx
0x000d6a86:  03 90 28 56 0f 00        addl     0xf5628(%eax), %edx
0x000d6a8c:  13 88 2c 56 0f 00        adcl     0xf562c(%eax), %ecx
0x000d6a92:  89 54 24 10              movl     %edx, 0x10(%esp)
0x000d6a96:  89 4c 24 14              movl     %ecx, 0x14(%esp)
0x000d6a9a:  8b 4c 24 08              movl     8(%esp), %ecx
0x000d6a9e:  39 4c 24 10              cmpl     %ecx, 0x10(%esp)
0x000d6aa2:  8b 4c 24 14              movl     0x14(%esp), %ecx
0x000d6aa6:  1b 4c 24 0c              sbbl     0xc(%esp), %ecx
0x000d6aaa:  73 03                    jae      0xd6aaf

----------------
IN: 
0x000d6aaf:  8b 4c 24 08              movl     8(%esp), %ecx
0x000d6ab3:  39 ce                    cmpl     %ecx, %esi
0x000d6ab5:  89 f9                    movl     %edi, %ecx
0x000d6ab7:  1b 4c 24 0c              sbbl     0xc(%esp), %ecx
0x000d6abb:  73 7a                    jae      0xd6b37

----------------
IN: 
0x000d6b37:  6b f3 14                 imull    $0x14, %ebx, %esi
0x000d6b3a:  3b 1d 04 56 0f 00        cmpl     0xf5604, %ebx
0x000d6b40:  0f 8d 81 00 00 00        jge      0xd6bc7

----------------
IN: 
0x000d6b46:  8d 8e 20 56 0f 00        leal     0xf5620(%esi), %ecx
0x000d6b4c:  8b 86 20 56 0f 00        movl     0xf5620(%esi), %eax
0x000d6b52:  8b 96 24 56 0f 00        movl     0xf5624(%esi), %edx
0x000d6b58:  39 04 24                 cmpl     %eax, (%esp)
0x000d6b5b:  8b 7c 24 04              movl     4(%esp), %edi
0x000d6b5f:  19 d7                    sbbl     %edx, %edi
0x000d6b61:  72 64                    jb       0xd6bc7

----------------
IN: 
0x000d609f:  8a 14 0e                 movb     (%esi, %ecx), %dl
0x000d60a2:  88 14 08                 movb     %dl, (%eax, %ecx)
0x000d60a5:  eb f3                    jmp      0xd609a

----------------
IN: 
0x000e793c:  ff 74 24 34              pushl    0x34(%esp)
0x000e7940:  ff 74 24 34              pushl    0x34(%esp)
0x000e7944:  ff 74 24 34              pushl    0x34(%esp)
0x000e7948:  ff 74 24 34              pushl    0x34(%esp)
0x000e794c:  68 30 41 0f 00           pushl    $0xf4130
0x000e7951:  e8 09 43 00 00           calll    0xebc5f

----------------
IN: 
0x000eb5f5:  55                       pushl    %ebp
0x000eb5f6:  50                       pushl    %eax
0x000eb5f7:  8b 54 24 10              movl     0x10(%esp), %edx
0x000eb5fb:  8b 44 24 08              movl     8(%esp), %eax
0x000eb5ff:  e8 63 da ff ff           calll    0xe9067

----------------
IN: 
0x000e7956:  8b 74 24 3c              movl     0x3c(%esp), %esi
0x000e795a:  8b 7c 24 40              movl     0x40(%esp), %edi
0x000e795e:  83 c4 20                 addl     $0x20, %esp
0x000e7961:  83 ff 00                 cmpl     $0, %edi
0x000e7964:  8b 44 24 24              movl     0x24(%esp), %eax
0x000e7968:  8b 54 24 28              movl     0x28(%esp), %edx
0x000e796c:  77 3b                    ja       0xe79a9

----------------
IN: 
0x000e796e:  8b 0d b0 8e 0e 00        movl     0xe8eb0, %ecx
0x000e7974:  31 db                    xorl     %ebx, %ebx
0x000e7976:  89 4c 24 08              movl     %ecx, 8(%esp)
0x000e797a:  89 5c 24 0c              movl     %ebx, 0xc(%esp)
0x000e797e:  89 f1                    movl     %esi, %ecx
0x000e7980:  89 fb                    movl     %edi, %ebx
0x000e7982:  01 c1                    addl     %eax, %ecx
0x000e7984:  11 d3                    adcl     %edx, %ebx
0x000e7986:  89 0c 24                 movl     %ecx, (%esp)
0x000e7989:  89 5c 24 04              movl     %ebx, 4(%esp)
0x000e798d:  8b 1c 24                 movl     (%esp), %ebx
0x000e7990:  39 1d b0 8e 0e 00        cmpl     %ebx, 0xe8eb0
0x000e7996:  8b 5c 24 0c              movl     0xc(%esp), %ebx
0x000e799a:  1b 5c 24 04              sbbl     4(%esp), %ebx
0x000e799e:  73 2d                    jae      0xe79cd

----------------
IN: 
0x000e79a0:  01 f0                    addl     %esi, %eax
0x000e79a2:  a3 b0 8e 0e 00           movl     %eax, 0xe8eb0
0x000e79a7:  eb 24                    jmp      0xe79cd

----------------
IN: 
0x000e7a39:  6a 02                    pushl    $2
0x000e7a3b:  6a 00                    pushl    $0
0x000e7a3d:  68 00 00 04 00           pushl    $0x40000
0x000e7a42:  b8 00 00 fc ff           movl     $0xfffc0000, %eax
0x000e7a47:  31 d2                    xorl     %edx, %edx
0x000e7a49:  e8 dc ef fe ff           calll    0xd6a2a

----------------
IN: 
0x000d6aac:  43                       incl     %ebx
0x000d6aad:  eb b8                    jmp      0xd6a67

----------------
IN: 
0x000d6a67:  8b 44 24 20              movl     0x20(%esp), %eax
0x000d6a6b:  39 c3                    cmpl     %eax, %ebx
0x000d6a6d:  0f 8d 54 01 00 00        jge      0xd6bc7

----------------
IN: 
0x000e7a4e:  83 c4 0c                 addl     $0xc, %esp
0x000e7a51:  6a ff                    pushl    $-1
0x000e7a53:  6a 00                    pushl    $0
0x000e7a55:  68 00 00 05 00           pushl    $0x50000
0x000e7a5a:  b8 00 00 0a 00           movl     $0xa0000, %eax
0x000e7a5f:  31 d2                    xorl     %edx, %edx
0x000e7a61:  e8 c4 ef fe ff           calll    0xd6a2a

----------------
IN: 
0x000d6abd:  8d 88 20 56 0f 00        leal     0xf5620(%eax), %ecx
0x000d6ac3:  8b 41 10                 movl     0x10(%ecx), %eax
0x000d6ac6:  89 44 24 20              movl     %eax, 0x20(%esp)
0x000d6aca:  39 e8                    cmpl     %ebp, %eax
0x000d6acc:  75 1d                    jne      0xd6aeb

----------------
IN: 
0x000d6aeb:  8b 44 24 08              movl     8(%esp), %eax
0x000d6aef:  8b 54 24 0c              movl     0xc(%esp), %edx
0x000d6af3:  29 f0                    subl     %esi, %eax
0x000d6af5:  19 fa                    sbbl     %edi, %edx
0x000d6af7:  89 41 08                 movl     %eax, 8(%ecx)
0x000d6afa:  89 51 0c                 movl     %edx, 0xc(%ecx)
0x000d6afd:  43                       incl     %ebx
0x000d6afe:  8b 44 24 10              movl     0x10(%esp), %eax
0x000d6b02:  39 04 24                 cmpl     %eax, (%esp)
0x000d6b05:  8b 44 24 04              movl     4(%esp), %eax
0x000d6b09:  1b 44 24 14              sbbl     0x14(%esp), %eax
0x000d6b0d:  73 28                    jae      0xd6b37

----------------
IN: 
0x000d6b0f:  ff 74 24 20              pushl    0x20(%esp)
0x000d6b13:  8b 44 24 14              movl     0x14(%esp), %eax
0x000d6b17:  8b 54 24 18              movl     0x18(%esp), %edx
0x000d6b1b:  2b 44 24 04              subl     4(%esp), %eax
0x000d6b1f:  1b 54 24 08              sbbl     8(%esp), %edx
0x000d6b23:  52                       pushl    %edx
0x000d6b24:  50                       pushl    %eax
0x000d6b25:  8b 54 24 0c              movl     0xc(%esp), %edx
0x000d6b29:  8b 4c 24 10              movl     0x10(%esp), %ecx
0x000d6b2d:  89 d8                    movl     %ebx, %eax
0x000d6b2f:  e8 5a fe ff ff           calll    0xd698e

----------------
IN: 
0x000d6b34:  83 c4 0c                 addl     $0xc, %esp
0x000d6b37:  6b f3 14                 imull    $0x14, %ebx, %esi
0x000d6b3a:  3b 1d 04 56 0f 00        cmpl     0xf5604, %ebx
0x000d6b40:  0f 8d 81 00 00 00        jge      0xd6bc7

----------------
IN: 
0x000d6b63:  03 41 08                 addl     8(%ecx), %eax
0x000d6b66:  13 51 0c                 adcl     0xc(%ecx), %edx
0x000d6b69:  89 44 24 10              movl     %eax, 0x10(%esp)
0x000d6b6d:  89 54 24 14              movl     %edx, 0x14(%esp)
0x000d6b71:  8b 44 24 10              movl     0x10(%esp), %eax
0x000d6b75:  39 04 24                 cmpl     %eax, (%esp)
0x000d6b78:  8b 44 24 04              movl     4(%esp), %eax
0x000d6b7c:  1b 44 24 14              sbbl     0x14(%esp), %eax
0x000d6b80:  72 09                    jb       0xd6b8b

----------------
IN: 
0x000d6b8b:  8b 04 24                 movl     (%esp), %eax
0x000d6b8e:  8b 54 24 04              movl     4(%esp), %edx
0x000d6b92:  89 86 20 56 0f 00        movl     %eax, 0xf5620(%esi)
0x000d6b98:  89 96 24 56 0f 00        movl     %edx, 0xf5624(%esi)
0x000d6b9e:  8b 44 24 10              movl     0x10(%esp), %eax
0x000d6ba2:  8b 54 24 14              movl     0x14(%esp), %edx
0x000d6ba6:  2b 04 24                 subl     (%esp), %eax
0x000d6ba9:  1b 54 24 04              sbbl     4(%esp), %edx
0x000d6bad:  89 41 08                 movl     %eax, 8(%ecx)
0x000d6bb0:  89 51 0c                 movl     %edx, 0xc(%ecx)
0x000d6bb3:  3b 69 10                 cmpl     0x10(%ecx), %ebp
0x000d6bb6:  75 0f                    jne      0xd6bc7

----------------
IN: 
0x000d6bf6:  83 c4 24                 addl     $0x24, %esp
0x000d6bf9:  5b                       popl     %ebx
0x000d6bfa:  5e                       popl     %esi
0x000d6bfb:  5f                       popl     %edi
0x000d6bfc:  5d                       popl     %ebp
0x000d6bfd:  c3                       retl     

----------------
IN: 
0x000e7a66:  6a 02                    pushl    $2
0x000e7a68:  6a 00                    pushl    $0
0x000e7a6a:  68 00 00 01 00           pushl    $0x10000
0x000e7a6f:  b8 00 00 0f 00           movl     $0xf0000, %eax
0x000e7a74:  31 d2                    xorl     %edx, %edx
0x000e7a76:  e8 af ef fe ff           calll    0xd6a2a

----------------
IN: 
0x000e7a7b:  a1 04 56 0f 00           movl     0xf5604, %eax
0x000e7a80:  48                       decl     %eax
0x000e7a81:  89 44 24 20              movl     %eax, 0x20(%esp)
0x000e7a85:  83 c4 18                 addl     $0x18, %esp
0x000e7a88:  31 f6                    xorl     %esi, %esi
0x000e7a8a:  31 db                    xorl     %ebx, %ebx
0x000e7a8c:  83 7c 24 08 00           cmpl     $0, 8(%esp)
0x000e7a91:  0f 88 a4 00 00 00        js       0xe7b3b

----------------
IN: 
0x000e7a97:  6b 4c 24 08 14           imull    $0x14, 8(%esp), %ecx
0x000e7a9c:  8b 81 20 56 0f 00        movl     0xf5620(%ecx), %eax
0x000e7aa2:  8b 91 24 56 0f 00        movl     0xf5624(%ecx), %edx
0x000e7aa8:  89 c7                    movl     %eax, %edi
0x000e7aaa:  89 d5                    movl     %edx, %ebp
0x000e7aac:  03 b9 28 56 0f 00        addl     0xf5628(%ecx), %edi
0x000e7ab2:  13 a9 2c 56 0f 00        adcl     0xf562c(%ecx), %ebp
0x000e7ab8:  89 3c 24                 movl     %edi, (%esp)
0x000e7abb:  89 6c 24 04              movl     %ebp, 4(%esp)
0x000e7abf:  bd ff ff 0f 00           movl     $0xfffff, %ebp
0x000e7ac4:  8b 3c 24                 movl     (%esp), %edi
0x000e7ac7:  39 fd                    cmpl     %edi, %ebp
0x000e7ac9:  bd 00 00 00 00           movl     $0, %ebp
0x000e7ace:  1b 6c 24 04              sbbl     4(%esp), %ebp
0x000e7ad2:  73 67                    jae      0xe7b3b

----------------
IN: 
0x000e7ad4:  83 b9 30 56 0f 00 01     cmpl     $1, 0xf5630(%ecx)
0x000e7adb:  75 55                    jne      0xe7b32

----------------
IN: 
0x000e7b32:  ff 4c 24 08              decl     8(%esp)
0x000e7b36:  e9 51 ff ff ff           jmp      0xe7a8c

----------------
IN: 
0x000e7a8c:  83 7c 24 08 00           cmpl     $0, 8(%esp)
0x000e7a91:  0f 88 a4 00 00 00        js       0xe7b3b

----------------
IN: 
0x000e7add:  83 7c 24 04 00           cmpl     $0, 4(%esp)
0x000e7ae2:  77 4e                    ja       0xe7b32

----------------
IN: 
0x000e7ae4:  89 c2                    movl     %eax, %edx
0x000e7ae6:  89 f9                    movl     %edi, %ecx
0x000e7ae8:  85 db                    testl    %ebx, %ebx
0x000e7aea:  75 3c                    jne      0xe7b28

----------------
IN: 
0x000e7aec:  8d 87 00 00 00 ff        leal     -0x1000000(%edi), %eax
0x000e7af2:  83 e0 f0                 andl     $0xfffffff0, %eax
0x000e7af5:  39 c7                    cmpl     %eax, %edi
0x000e7af7:  72 0a                    jb       0xe7b03

----------------
IN: 
0x000e7af9:  8d aa 00 00 00 01        leal     0x1000000(%edx), %ebp
0x000e7aff:  39 e8                    cmpl     %ebp, %eax
0x000e7b01:  73 1c                    jae      0xe7b1f

----------------
IN: 
0x000e7b1f:  89 c3                    movl     %eax, %ebx
0x000e7b21:  89 c1                    movl     %eax, %ecx
0x000e7b23:  be 00 00 00 01           movl     $0x1000000, %esi
0x000e7b28:  b8 f8 8d 0e 00           movl     $0xe8df8, %eax
0x000e7b2d:  e8 e8 f2 fe ff           calll    0xd6e1a

----------------
IN: 
0x000d6e1a:  53                       pushl    %ebx
0x000d6e1b:  83 ec 2c                 subl     $0x2c, %esp
0x000d6e1e:  89 d3                    movl     %edx, %ebx
0x000d6e20:  89 c2                    movl     %eax, %edx
0x000d6e22:  8b 00                    movl     (%eax), %eax
0x000d6e24:  85 c0                    testl    %eax, %eax
0x000d6e26:  75 35                    jne      0xd6e5d

----------------
IN: 
0x000d6e28:  c7 44 24 28 ff ff ff ff  movl     $0xffffffff, 0x28(%esp)
0x000d6e30:  89 5c 24 1c              movl     %ebx, 0x1c(%esp)
0x000d6e34:  89 4c 24 20              movl     %ecx, 0x20(%esp)
0x000d6e38:  31 c0                    xorl     %eax, %eax
0x000d6e3a:  89 44 24 24              movl     %eax, 0x24(%esp)
0x000d6e3e:  8d 44 24 14              leal     0x14(%esp), %eax
0x000d6e42:  e8 e8 d2 ff ff           calll    0xd412f

----------------
IN: 
0x000d412f:  8b 0a                    movl     (%edx), %ecx
0x000d4131:  89 50 04                 movl     %edx, 4(%eax)
0x000d4134:  89 08                    movl     %ecx, (%eax)
0x000d4136:  85 c9                    testl    %ecx, %ecx
0x000d4138:  74 03                    je       0xd413d

----------------
IN: 
0x000d413d:  89 02                    movl     %eax, (%edx)
0x000d413f:  c3                       retl     

----------------
IN: 
0x000d6e47:  89 e0                    movl     %esp, %eax
0x000d6e49:  e8 dc fd ff ff           calll    0xd6c2a

----------------
IN: 
0x000d6c2a:  57                       pushl    %edi
0x000d6c2b:  56                       pushl    %esi
0x000d6c2c:  53                       pushl    %ebx
0x000d6c2d:  89 c3                    movl     %eax, %ebx
0x000d6c2f:  50                       pushl    %eax
0x000d6c30:  b9 10 00 00 00           movl     $0x10, %ecx
0x000d6c35:  ba 2c 00 00 00           movl     $0x2c, %edx
0x000d6c3a:  a1 f8 8d 0e 00           movl     0xe8df8, %eax
0x000d6c3f:  e8 09 f5 ff ff           calll    0xd614d

----------------
IN: 
0x000d614d:  55                       pushl    %ebp
0x000d614e:  57                       pushl    %edi
0x000d614f:  56                       pushl    %esi
0x000d6150:  53                       pushl    %ebx
0x000d6151:  89 ce                    movl     %ecx, %esi
0x000d6153:  8b 4c 24 14              movl     0x14(%esp), %ecx
0x000d6157:  f7 de                    negl     %esi
0x000d6159:  85 c0                    testl    %eax, %eax
0x000d615b:  74 33                    je       0xd6190

----------------
IN: 
0x000d615d:  8b 78 0c                 movl     0xc(%eax), %edi
0x000d6160:  89 fb                    movl     %edi, %ebx
0x000d6162:  29 d3                    subl     %edx, %ebx
0x000d6164:  21 f3                    andl     %esi, %ebx
0x000d6166:  8b 68 10                 movl     0x10(%eax), %ebp
0x000d6169:  03 68 08                 addl     8(%eax), %ebp
0x000d616c:  39 eb                    cmpl     %ebp, %ebx
0x000d616e:  72 1c                    jb       0xd618c

----------------
IN: 
0x000d6170:  39 df                    cmpl     %ebx, %edi
0x000d6172:  72 18                    jb       0xd618c

----------------
IN: 
0x000d6174:  89 59 08                 movl     %ebx, 8(%ecx)
0x000d6177:  89 79 0c                 movl     %edi, 0xc(%ecx)
0x000d617a:  89 51 10                 movl     %edx, 0x10(%ecx)
0x000d617d:  89 58 0c                 movl     %ebx, 0xc(%eax)
0x000d6180:  8b 50 04                 movl     4(%eax), %edx
0x000d6183:  89 c8                    movl     %ecx, %eax
0x000d6185:  e8 a5 df ff ff           calll    0xd412f

----------------
IN: 
0x000d413a:  89 41 04                 movl     %eax, 4(%ecx)
0x000d413d:  89 02                    movl     %eax, (%edx)
0x000d413f:  c3                       retl     

----------------
IN: 
0x000d618a:  eb 06                    jmp      0xd6192

----------------
IN: 
0x000d6192:  89 d8                    movl     %ebx, %eax
0x000d6194:  5b                       popl     %ebx
0x000d6195:  5e                       popl     %esi
0x000d6196:  5f                       popl     %edi
0x000d6197:  5d                       popl     %ebp
0x000d6198:  c3                       retl     

----------------
IN: 
0x000d6c44:  59                       popl     %ecx
0x000d6c45:  85 c0                    testl    %eax, %eax
0x000d6c47:  75 2d                    jne      0xd6c76

----------------
IN: 
0x000d6c76:  89 c2                    movl     %eax, %edx
0x000d6c78:  b9 0b 00 00 00           movl     $0xb, %ecx
0x000d6c7d:  89 c7                    movl     %eax, %edi
0x000d6c7f:  89 de                    movl     %ebx, %esi
0x000d6c81:  f3 a5                    rep movsl (%esi), %es:(%edi)

----------------
IN: 
0x000d6c81:  f3 a5                    rep movsl (%esi), %es:(%edi)

----------------
IN: 
0x000d6c83:  8b 0b                    movl     (%ebx), %ecx
0x000d6c85:  89 08                    movl     %ecx, (%eax)
0x000d6c87:  85 c9                    testl    %ecx, %ecx
0x000d6c89:  74 03                    je       0xd6c8e

----------------
IN: 
0x000d6c8b:  89 41 04                 movl     %eax, 4(%ecx)
0x000d6c8e:  8b 4b 04                 movl     4(%ebx), %ecx
0x000d6c91:  89 48 04                 movl     %ecx, 4(%eax)
0x000d6c94:  89 01                    movl     %eax, (%ecx)
0x000d6c96:  8d 70 14                 leal     0x14(%eax), %esi
0x000d6c99:  8b 4b 14                 movl     0x14(%ebx), %ecx
0x000d6c9c:  89 48 14                 movl     %ecx, 0x14(%eax)
0x000d6c9f:  85 c9                    testl    %ecx, %ecx
0x000d6ca1:  74 03                    je       0xd6ca6

----------------
IN: 
0x000d6ca6:  8b 4b 18                 movl     0x18(%ebx), %ecx
0x000d6ca9:  89 48 18                 movl     %ecx, 0x18(%eax)
0x000d6cac:  89 31                    movl     %esi, (%ecx)
0x000d6cae:  89 d0                    movl     %edx, %eax
0x000d6cb0:  5b                       popl     %ebx
0x000d6cb1:  5e                       popl     %esi
0x000d6cb2:  5f                       popl     %edi
0x000d6cb3:  c3                       retl     

----------------
IN: 
0x000d6e4e:  85 c0                    testl    %eax, %eax
0x000d6e50:  75 12                    jne      0xd6e64

----------------
IN: 
0x000d6e64:  83 c4 2c                 addl     $0x2c, %esp
0x000d6e67:  5b                       popl     %ebx
0x000d6e68:  c3                       retl     

----------------
IN: 
0x000e7b3b:  b9 00 00 09 00           movl     $0x90000, %ecx
0x000e7b40:  ba 00 70 00 00           movl     $0x7000, %edx
0x000e7b45:  b8 fc 8d 0e 00           movl     $0xe8dfc, %eax
0x000e7b4a:  e8 cb f2 fe ff           calll    0xd6e1a

----------------
IN: 
0x000d618c:  8b 00                    movl     (%eax), %eax
0x000d618e:  eb c9                    jmp      0xd6159

----------------
IN: 
0x000d6159:  85 c0                    testl    %eax, %eax
0x000d615b:  74 33                    je       0xd6190

----------------
IN: 
0x000e7b4f:  85 db                    testl    %ebx, %ebx
0x000e7b51:  74 21                    je       0xe7b74

----------------
IN: 
0x000e7b53:  8d 0c 33                 leal     (%ebx, %esi), %ecx
0x000e7b56:  89 da                    movl     %ebx, %edx
0x000e7b58:  b8 04 8e 0e 00           movl     $0xe8e04, %eax
0x000e7b5d:  e8 b8 f2 fe ff           calll    0xd6e1a

----------------
IN: 
0x000e7b62:  89 d8                    movl     %ebx, %eax
0x000e7b64:  31 d2                    xorl     %edx, %edx
0x000e7b66:  6a 02                    pushl    $2
0x000e7b68:  31 ff                    xorl     %edi, %edi
0x000e7b6a:  57                       pushl    %edi
0x000e7b6b:  56                       pushl    %esi
0x000e7b6c:  e8 8d f0 fe ff           calll    0xd6bfe

----------------
IN: 
0x000e7b71:  83 c4 0c                 addl     $0xc, %esp
0x000e7b74:  bd 00 8f 0e 00           movl     $0xe8f00, %ebp
0x000e7b79:  81 ed 20 41 0d 00        subl     $0xd4120, %ebp
0x000e7b7f:  89 ea                    movl     %ebp, %edx
0x000e7b81:  b8 20 00 00 00           movl     $0x20, %eax
0x000e7b86:  e8 b1 67 ff ff           calll    0xde33c

----------------
IN: 
0x000de33c:  56                       pushl    %esi
0x000de33d:  51                       pushl    %ecx
0x000de33e:  89 c6                    movl     %eax, %esi
0x000de340:  89 c1                    movl     %eax, %ecx
0x000de342:  89 14 24                 movl     %edx, (%esp)
0x000de345:  b8 f8 8d 0e 00           movl     $0xe8df8, %eax
0x000de34a:  e8 65 89 ff ff           calll    0xd6cb4

----------------
IN: 
0x000d6cb4:  56                       pushl    %esi
0x000d6cb5:  53                       pushl    %ebx
0x000d6cb6:  83 ec 2c                 subl     $0x2c, %esp
0x000d6cb9:  85 d2                    testl    %edx, %edx
0x000d6cbb:  74 2d                    je       0xd6cea

----------------
IN: 
0x000d6cbd:  c7 44 24 28 ff ff ff ff  movl     $0xffffffff, 0x28(%esp)
0x000d6cc5:  8d 74 24 14              leal     0x14(%esp), %esi
0x000d6cc9:  56                       pushl    %esi
0x000d6cca:  8b 00                    movl     (%eax), %eax
0x000d6ccc:  e8 7c f4 ff ff           calll    0xd614d

----------------
IN: 
0x000d6cd1:  89 c3                    movl     %eax, %ebx
0x000d6cd3:  58                       popl     %eax
0x000d6cd4:  85 db                    testl    %ebx, %ebx
0x000d6cd6:  74 12                    je       0xd6cea

----------------
IN: 
0x000d6cd8:  89 e0                    movl     %esp, %eax
0x000d6cda:  e8 4b ff ff ff           calll    0xd6c2a

----------------
IN: 
0x000d6ca3:  89 71 04                 movl     %esi, 4(%ecx)
0x000d6ca6:  8b 4b 18                 movl     0x18(%ebx), %ecx
0x000d6ca9:  89 48 18                 movl     %ecx, 0x18(%eax)
0x000d6cac:  89 31                    movl     %esi, (%ecx)
0x000d6cae:  89 d0                    movl     %edx, %eax
0x000d6cb0:  5b                       popl     %ebx
0x000d6cb1:  5e                       popl     %esi
0x000d6cb2:  5f                       popl     %edi
0x000d6cb3:  c3                       retl     

----------------
IN: 
0x000d6cdf:  85 c0                    testl    %eax, %eax
0x000d6ce1:  75 09                    jne      0xd6cec

----------------
IN: 
0x000d6cec:  89 d8                    movl     %ebx, %eax
0x000d6cee:  83 c4 2c                 addl     $0x2c, %esp
0x000d6cf1:  5b                       popl     %ebx
0x000d6cf2:  5e                       popl     %esi
0x000d6cf3:  c3                       retl     

----------------
IN: 
0x000de34f:  85 c0                    testl    %eax, %eax
0x000de351:  8b 14 24                 movl     (%esp), %edx
0x000de354:  75 0e                    jne      0xde364

----------------
IN: 
0x000de364:  5a                       popl     %edx
0x000de365:  5e                       popl     %esi
0x000de366:  c3                       retl     

----------------
IN: 
0x000e7b8b:  89 c3                    movl     %eax, %ebx
0x000e7b8d:  85 c0                    testl    %eax, %eax
0x000e7b8f:  75 0a                    jne      0xe7b9b

----------------
IN: 
0x000e7b9b:  55                       pushl    %ebp
0x000e7b9c:  50                       pushl    %eax
0x000e7b9d:  68 20 41 0d 00           pushl    $0xd4120
0x000e7ba2:  68 96 41 0f 00           pushl    $0xf4196
0x000e7ba7:  e8 b3 40 00 00           calll    0xebc5f

----------------
IN: 
0x000eb4b1:  3c 70                    cmpb     $0x70, %al
0x000eb4b3:  74 58                    je       0xeb50d

----------------
IN: 
0x000eb50d:  8d 7b 04                 leal     4(%ebx), %edi
0x000eb510:  8b 1b                    movl     (%ebx), %ebx
0x000eb512:  80 7e 01 50              cmpb     $0x50, 1(%esi)
0x000eb516:  75 5f                    jne      0xeb577

----------------
IN: 
0x000eb577:  ba 30 00 00 00           movl     $0x30, %edx
0x000eb57c:  8b 04 24                 movl     (%esp), %eax
0x000eb57f:  e8 d7 d9 ff ff           calll    0xe8f5b

----------------
IN: 
0x000eb584:  ba 78 00 00 00           movl     $0x78, %edx
0x000eb589:  8b 04 24                 movl     (%esp), %eax
0x000eb58c:  e8 ca d9 ff ff           calll    0xe8f5b

----------------
IN: 
0x000eb591:  6a 00                    pushl    $0
0x000eb593:  b9 08 00 00 00           movl     $8, %ecx
0x000eb598:  89 da                    movl     %ebx, %edx
0x000eb59a:  8b 44 24 04              movl     4(%esp), %eax
0x000eb59e:  e8 2b da ff ff           calll    0xe8fce

----------------
IN: 
0x000eb5a3:  59                       popl     %ecx
0x000eb5a4:  e9 b0 00 00 00           jmp      0xeb659

----------------
IN: 
0x000e7bac:  be 20 41 0d 00           movl     $0xd4120, %esi
0x000e7bb1:  89 df                    movl     %ebx, %edi
0x000e7bb3:  89 e9                    movl     %ebp, %ecx
0x000e7bb5:  f3 a4                    rep movsb (%esi), %es:(%edi)

----------------
IN: 
0x000e7bb5:  f3 a4                    rep movsb (%esi), %es:(%edi)

----------------
IN: 
0x000e7bb7:  89 da                    movl     %ebx, %edx
0x000e7bb9:  81 ea 20 41 0d 00        subl     $0xd4120, %edx
0x000e7bbf:  83 c4 10                 addl     $0x10, %esp
0x000e7bc2:  b8 00 1f 0d 00           movl     $0xd1f00, %eax
0x000e7bc7:  3d b8 28 0d 00           cmpl     $0xd28b8, %eax
0x000e7bcc:  73 0b                    jae      0xe7bd9

----------------
IN: 
0x000e7bce:  8b 08                    movl     (%eax), %ecx
0x000e7bd0:  01 d9                    addl     %ebx, %ecx
0x000e7bd2:  01 11                    addl     %edx, (%ecx)
0x000e7bd4:  83 c0 04                 addl     $4, %eax
0x000e7bd7:  eb ee                    jmp      0xe7bc7

----------------
IN: 
0x000e7bc7:  3d b8 28 0d 00           cmpl     $0xd28b8, %eax
0x000e7bcc:  73 0b                    jae      0xe7bd9

----------------
IN: 
0x000e7bd9:  b9 20 41 0d 00           movl     $0xd4120, %ecx
0x000e7bde:  29 d9                    subl     %ebx, %ecx
0x000e7be0:  b8 b8 28 0d 00           movl     $0xd28b8, %eax
0x000e7be5:  3d 48 38 0d 00           cmpl     $0xd3848, %eax
0x000e7bea:  73 0b                    jae      0xe7bf7

----------------
IN: 
0x000e7bec:  8b 30                    movl     (%eax), %esi
0x000e7bee:  01 de                    addl     %ebx, %esi
0x000e7bf0:  01 0e                    addl     %ecx, (%esi)
0x000e7bf2:  83 c0 04                 addl     $4, %eax
0x000e7bf5:  eb ee                    jmp      0xe7be5

----------------
IN: 
0x000e7be5:  3d 48 38 0d 00           cmpl     $0xd3848, %eax
0x000e7bea:  73 0b                    jae      0xe7bf7

----------------
IN: 
0x000e7bf7:  b8 48 38 0d 00           movl     $0xd3848, %eax
0x000e7bfc:  3d 54 38 0d 00           cmpl     $0xd3854, %eax
0x000e7c01:  73 0d                    jae      0xe7c10

----------------
IN: 
0x000e7c03:  8b 08                    movl     (%eax), %ecx
0x000e7c05:  01 91 00 1f 0d 00        addl     %edx, 0xd1f00(%ecx)
0x000e7c0b:  83 c0 04                 addl     $4, %eax
0x000e7c0e:  eb ec                    jmp      0xe7bfc

----------------
IN: 
0x000e7bfc:  3d 54 38 0d 00           cmpl     $0xd3854, %eax
0x000e7c01:  73 0d                    jae      0xe7c10

----------------
IN: 
0x000e7c10:  b8 6e 48 0e 00           movl     $0xe486e, %eax
0x000e7c15:  3d 00 8f 0e 00           cmpl     $0xe8f00, %eax
0x000e7c1a:  73 09                    jae      0xe7c25

----------------
IN: 
0x000e7c1c:  01 c2                    addl     %eax, %edx
0x000e7c1e:  3d 20 41 0d 00           cmpl     $0xd4120, %eax
0x000e7c23:  73 05                    jae      0xe7c2a

----------------
IN: 
0x000e7c2a:  31 c0                    xorl     %eax, %eax
0x000e7c2c:  ff d2                    calll    *%edx

----------------
IN: 
0x06ffb8ce:  55                       pushl    %ebp
0x06ffb8cf:  57                       pushl    %edi
0x06ffb8d0:  56                       pushl    %esi
0x06ffb8d1:  53                       pushl    %ebx
0x06ffb8d2:  81 ec 28 01 00 00        subl     $0x128, %esp
0x06ffb8d8:  e8 b5 74 ff ff           calll    0x6ff2d92

----------------
IN: 
0x06ff2d92:  57                       pushl    %edi
0x06ff2d93:  56                       pushl    %esi
0x06ff2d94:  53                       pushl    %ebx
0x06ff2d95:  81 ec 94 00 00 00        subl     $0x94, %esp
0x06ff2d9b:  31 c0                    xorl     %eax, %eax
0x06ff2d9d:  8b 0c 85 44 fe ff 06     movl     0x6fffe44(, %eax, 4), %ecx
0x06ff2da4:  8b 11                    movl     (%ecx), %edx
0x06ff2da6:  85 d2                    testl    %edx, %edx
0x06ff2da8:  74 03                    je       0x6ff2dad

----------------
IN: 
0x06ff2daa:  89 4a 04                 movl     %ecx, 4(%edx)
0x06ff2dad:  40                       incl     %eax
0x06ff2dae:  83 f8 05                 cmpl     $5, %eax
0x06ff2db1:  75 ea                    jne      0x6ff2d9d

----------------
IN: 
0x06ff2d9d:  8b 0c 85 44 fe ff 06     movl     0x6fffe44(, %eax, 4), %ecx
0x06ff2da4:  8b 11                    movl     (%ecx), %edx
0x06ff2da6:  85 d2                    testl    %edx, %edx
0x06ff2da8:  74 03                    je       0x6ff2dad

----------------
IN: 
0x06ff2dad:  40                       incl     %eax
0x06ff2dae:  83 f8 05                 cmpl     $5, %eax
0x06ff2db1:  75 ea                    jne      0x6ff2d9d

----------------
IN: 
0x06ff2db3:  b9 20 41 0d 00           movl     $0xd4120, %ecx
0x06ff2db8:  81 e9 60 38 0d 00        subl     $0xd3860, %ecx
0x06ff2dbe:  ba 60 38 0d 00           movl     $0xd3860, %edx
0x06ff2dc3:  b8 40 86 0e 00           movl     $0xe8640, %eax
0x06ff2dc8:  e8 1f a3 ff ff           calll    0x6fed0ec

----------------
IN: 
0x06fed0ec:  57                       pushl    %edi
0x06fed0ed:  56                       pushl    %esi
0x06fed0ee:  89 d6                    movl     %edx, %esi
0x06fed0f0:  39 c2                    cmpl     %eax, %edx
0x06fed0f2:  72 06                    jb       0x6fed0fa

----------------
IN: 
0x06fed0fa:  83 e9 01                 subl     $1, %ecx
0x06fed0fd:  72 08                    jb       0x6fed107

----------------
IN: 
0x06fed0ff:  8a 14 0e                 movb     (%esi, %ecx), %dl
0x06fed102:  88 14 08                 movb     %dl, (%eax, %ecx)
0x06fed105:  eb f3                    jmp      0x6fed0fa

----------------
IN: 
0x06fed107:  5e                       popl     %esi
0x06fed108:  5f                       popl     %edi
0x06fed109:  c3                       retl     

----------------
IN: 
0x06ff2dcd:  89 c1                    movl     %eax, %ecx
0x06ff2dcf:  ba 10 90 0d 00           movl     $0xd9010, %edx
0x06ff2dd4:  b8 68 fe ff 06           movl     $0x6fffe68, %eax
0x06ff2dd9:  e8 9c b0 ff ff           calll    0x6fede7a

----------------
IN: 
0x06fede7a:  53                       pushl    %ebx
0x06fede7b:  83 ec 2c                 subl     $0x2c, %esp
0x06fede7e:  89 d3                    movl     %edx, %ebx
0x06fede80:  89 c2                    movl     %eax, %edx
0x06fede82:  8b 00                    movl     (%eax), %eax
0x06fede84:  85 c0                    testl    %eax, %eax
0x06fede86:  75 35                    jne      0x6fedebd

----------------
IN: 
0x06fede88:  c7 44 24 28 ff ff ff ff  movl     $0xffffffff, 0x28(%esp)
0x06fede90:  89 5c 24 1c              movl     %ebx, 0x1c(%esp)
0x06fede94:  89 4c 24 20              movl     %ecx, 0x20(%esp)
0x06fede98:  31 c0                    xorl     %eax, %eax
0x06fede9a:  89 44 24 24              movl     %eax, 0x24(%esp)
0x06fede9e:  8d 44 24 14              leal     0x14(%esp), %eax
0x06fedea2:  e8 e8 d2 ff ff           calll    0x6feb18f

----------------
IN: 
0x06feb18f:  8b 0a                    movl     (%edx), %ecx
0x06feb191:  89 50 04                 movl     %edx, 4(%eax)
0x06feb194:  89 08                    movl     %ecx, (%eax)
0x06feb196:  85 c9                    testl    %ecx, %ecx
0x06feb198:  74 03                    je       0x6feb19d

----------------
IN: 
0x06feb19d:  89 02                    movl     %eax, (%edx)
0x06feb19f:  c3                       retl     

----------------
IN: 
0x06fedea7:  89 e0                    movl     %esp, %eax
0x06fedea9:  e8 dc fd ff ff           calll    0x6fedc8a

----------------
IN: 
0x06fedc8a:  57                       pushl    %edi
0x06fedc8b:  56                       pushl    %esi
0x06fedc8c:  53                       pushl    %ebx
0x06fedc8d:  89 c3                    movl     %eax, %ebx
0x06fedc8f:  50                       pushl    %eax
0x06fedc90:  b9 10 00 00 00           movl     $0x10, %ecx
0x06fedc95:  ba 2c 00 00 00           movl     $0x2c, %edx
0x06fedc9a:  a1 58 fe ff 06           movl     0x6fffe58, %eax
0x06fedc9f:  e8 09 f5 ff ff           calll    0x6fed1ad

----------------
IN: 
0x06fed1ad:  55                       pushl    %ebp
0x06fed1ae:  57                       pushl    %edi
0x06fed1af:  56                       pushl    %esi
0x06fed1b0:  53                       pushl    %ebx
0x06fed1b1:  89 ce                    movl     %ecx, %esi
0x06fed1b3:  8b 4c 24 14              movl     0x14(%esp), %ecx
0x06fed1b7:  f7 de                    negl     %esi
0x06fed1b9:  85 c0                    testl    %eax, %eax
0x06fed1bb:  74 33                    je       0x6fed1f0

----------------
IN: 
0x06fed1bd:  8b 78 0c                 movl     0xc(%eax), %edi
0x06fed1c0:  89 fb                    movl     %edi, %ebx
0x06fed1c2:  29 d3                    subl     %edx, %ebx
0x06fed1c4:  21 f3                    andl     %esi, %ebx
0x06fed1c6:  8b 68 10                 movl     0x10(%eax), %ebp
0x06fed1c9:  03 68 08                 addl     8(%eax), %ebp
0x06fed1cc:  39 eb                    cmpl     %ebp, %ebx
0x06fed1ce:  72 1c                    jb       0x6fed1ec

----------------
IN: 
0x06fed1ec:  8b 00                    movl     (%eax), %eax
0x06fed1ee:  eb c9                    jmp      0x6fed1b9

----------------
IN: 
0x06fed1b9:  85 c0                    testl    %eax, %eax
0x06fed1bb:  74 33                    je       0x6fed1f0

----------------
IN: 
0x06fed1d0:  39 df                    cmpl     %ebx, %edi
0x06fed1d2:  72 18                    jb       0x6fed1ec

----------------
IN: 
0x06fed1d4:  89 59 08                 movl     %ebx, 8(%ecx)
0x06fed1d7:  89 79 0c                 movl     %edi, 0xc(%ecx)
0x06fed1da:  89 51 10                 movl     %edx, 0x10(%ecx)
0x06fed1dd:  89 58 0c                 movl     %ebx, 0xc(%eax)
0x06fed1e0:  8b 50 04                 movl     4(%eax), %edx
0x06fed1e3:  89 c8                    movl     %ecx, %eax
0x06fed1e5:  e8 a5 df ff ff           calll    0x6feb18f

----------------
IN: 
0x06feb19a:  89 41 04                 movl     %eax, 4(%ecx)
0x06feb19d:  89 02                    movl     %eax, (%edx)
0x06feb19f:  c3                       retl     

----------------
IN: 
0x06fed1ea:  eb 06                    jmp      0x6fed1f2

----------------
IN: 
0x06fed1f2:  89 d8                    movl     %ebx, %eax
0x06fed1f4:  5b                       popl     %ebx
0x06fed1f5:  5e                       popl     %esi
0x06fed1f6:  5f                       popl     %edi
0x06fed1f7:  5d                       popl     %ebp
0x06fed1f8:  c3                       retl     

----------------
IN: 
0x06fedca4:  59                       popl     %ecx
0x06fedca5:  85 c0                    testl    %eax, %eax
0x06fedca7:  75 2d                    jne      0x6fedcd6

----------------
IN: 
0x06fedcd6:  89 c2                    movl     %eax, %edx
0x06fedcd8:  b9 0b 00 00 00           movl     $0xb, %ecx
0x06fedcdd:  89 c7                    movl     %eax, %edi
0x06fedcdf:  89 de                    movl     %ebx, %esi
0x06fedce1:  f3 a5                    rep movsl (%esi), %es:(%edi)

----------------
IN: 
0x06fedce1:  f3 a5                    rep movsl (%esi), %es:(%edi)

----------------
IN: 
0x06fedce3:  8b 0b                    movl     (%ebx), %ecx
0x06fedce5:  89 08                    movl     %ecx, (%eax)
0x06fedce7:  85 c9                    testl    %ecx, %ecx
0x06fedce9:  74 03                    je       0x6fedcee

----------------
IN: 
0x06fedceb:  89 41 04                 movl     %eax, 4(%ecx)
0x06fedcee:  8b 4b 04                 movl     4(%ebx), %ecx
0x06fedcf1:  89 48 04                 movl     %ecx, 4(%eax)
0x06fedcf4:  89 01                    movl     %eax, (%ecx)
0x06fedcf6:  8d 70 14                 leal     0x14(%eax), %esi
0x06fedcf9:  8b 4b 14                 movl     0x14(%ebx), %ecx
0x06fedcfc:  89 48 14                 movl     %ecx, 0x14(%eax)
0x06fedcff:  85 c9                    testl    %ecx, %ecx
0x06fedd01:  74 03                    je       0x6fedd06

----------------
IN: 
0x06fedd06:  8b 4b 18                 movl     0x18(%ebx), %ecx
0x06fedd09:  89 48 18                 movl     %ecx, 0x18(%eax)
0x06fedd0c:  89 31                    movl     %esi, (%ecx)
0x06fedd0e:  89 d0                    movl     %edx, %eax
0x06fedd10:  5b                       popl     %ebx
0x06fedd11:  5e                       popl     %esi
0x06fedd12:  5f                       popl     %edi
0x06fedd13:  c3                       retl     

----------------
IN: 
0x06fedeae:  85 c0                    testl    %eax, %eax
0x06fedeb0:  75 12                    jne      0x6fedec4

----------------
IN: 
0x06fedec4:  83 c4 2c                 addl     $0x2c, %esp
0x06fedec7:  5b                       popl     %ebx
0x06fedec8:  c3                       retl     

----------------
IN: 
0x06ff2dde:  a1 68 fe ff 06           movl     0x6fffe68, %eax
0x06ff2de3:  31 d2                    xorl     %edx, %edx
0x06ff2de5:  85 c0                    testl    %eax, %eax
0x06ff2de7:  74 06                    je       0x6ff2def

----------------
IN: 
0x06ff2de9:  89 c2                    movl     %eax, %edx
0x06ff2deb:  8b 00                    movl     (%eax), %eax
0x06ff2ded:  eb f6                    jmp      0x6ff2de5

----------------
IN: 
0x06ff2de5:  85 c0                    testl    %eax, %eax
0x06ff2de7:  74 06                    je       0x6ff2def

----------------
IN: 
0x06ff2def:  89 15 b4 4d 0f 00        movl     %edx, 0xf4db4
0x06ff2df5:  b9 e0 55 0f 00           movl     $0xf55e0, %ecx
0x06ff2dfa:  81 e9 e0 4d 0f 00        subl     $0xf4de0, %ecx
0x06ff2e00:  31 d2                    xorl     %edx, %edx
0x06ff2e02:  b8 e0 4d 0f 00           movl     $0xf4de0, %eax
0x06ff2e07:  e8 4e 72 0f f9           calll    0xea05a

----------------
IN: 
0x000ea05a:  85 c9                    testl    %ecx, %ecx
0x000ea05c:  74 06                    je       0xea064

----------------
IN: 
0x000ea05e:  49                       decl     %ecx
0x000ea05f:  88 14 08                 movb     %dl, (%eax, %ecx)
0x000ea062:  eb f6                    jmp      0xea05a

----------------
IN: 
0x000ea064:  c3                       retl     

----------------
IN: 
0x06ff2e0c:  b9 e0 55 0f 00           movl     $0xf55e0, %ecx
0x06ff2e11:  89 c2                    movl     %eax, %edx
0x06ff2e13:  b8 60 fe ff 06           movl     $0x6fffe60, %eax
0x06ff2e18:  e8 5d b0 ff ff           calll    0x6fede7a

----------------
IN: 
0x06ff2e1d:  e8 a7 87 ff ff           calll    0x6feb5c9

----------------
IN: 
0x06feb5c9:  56                       pushl    %esi
0x06feb5ca:  53                       pushl    %ebx
0x06feb5cb:  8b 0d 04 56 0f 00        movl     0xf5604, %ecx
0x06feb5d1:  8d 59 ff                 leal     -1(%ecx), %ebx
0x06feb5d4:  6b c9 14                 imull    $0x14, %ecx, %ecx
0x06feb5d7:  81 c1 20 56 0f 00        addl     $0xf5620, %ecx
0x06feb5dd:  85 db                    testl    %ebx, %ebx
0x06feb5df:  78 20                    js       0x6feb601

----------------
IN: 
0x06feb5e1:  8b 41 f4                 movl     -0xc(%ecx), %eax
0x06feb5e4:  8b 51 f8                 movl     -8(%ecx), %edx
0x06feb5e7:  03 41 ec                 addl     -0x14(%ecx), %eax
0x06feb5ea:  13 51 f0                 adcl     -0x10(%ecx), %edx
0x06feb5ed:  83 fa 00                 cmpl     $0, %edx
0x06feb5f0:  77 09                    ja       0x6feb5fb

----------------
IN: 
0x06feb5fb:  4b                       decl     %ebx
0x06feb5fc:  83 e9 14                 subl     $0x14, %ecx
0x06feb5ff:  eb dc                    jmp      0x6feb5dd

----------------
IN: 
0x06feb5dd:  85 db                    testl    %ebx, %ebx
0x06feb5df:  78 20                    js       0x6feb601

----------------
IN: 
0x06feb5f2:  8b 71 fc                 movl     -4(%ecx), %esi
0x06feb5f5:  83 e6 fd                 andl     $0xfffffffd, %esi
0x06feb5f8:  4e                       decl     %esi
0x06feb5f9:  74 08                    je       0x6feb603

----------------
IN: 
0x06feb603:  3d 00 00 10 00           cmpl     $0x100000, %eax
0x06feb608:  73 05                    jae      0x6feb60f

----------------
IN: 
0x06feb60f:  a3 00 56 0f 00           movl     %eax, 0xf5600
0x06feb614:  5b                       popl     %ebx
0x06feb615:  5e                       popl     %esi
0x06feb616:  c3                       retl     

----------------
IN: 
0x06ff2e22:  e8 c4 ea ff ff           calll    0x6ff18eb

----------------
IN: 
0x06ff18eb:  56                       pushl    %esi
0x06ff18ec:  53                       pushl    %ebx
0x06ff18ed:  56                       pushl    %esi
0x06ff18ee:  8b 1d c4 4c 0f 00        movl     0xf4cc4, %ebx
0x06ff18f4:  85 db                    testl    %ebx, %ebx
0x06ff18f6:  75 68                    jne      0x6ff1960

----------------
IN: 
0x06ff1960:  bb 01 00 00 00           movl     $1, %ebx
0x06ff1965:  89 d8                    movl     %ebx, %eax
0x06ff1967:  5a                       popl     %edx
0x06ff1968:  5b                       popl     %ebx
0x06ff1969:  5e                       popl     %esi
0x06ff196a:  c3                       retl     

----------------
IN: 
0x06ff2e27:  85 c0                    testl    %eax, %eax
0x06ff2e29:  75 0c                    jne      0x6ff2e37

----------------
IN: 
0x06ff2e37:  6a 02                    pushl    $2
0x06ff2e39:  31 c9                    xorl     %ecx, %ecx
0x06ff2e3b:  ba 0e 00 00 00           movl     $0xe, %edx
0x06ff2e40:  b8 ed 0e 0f 00           movl     $0xf0eed, %eax
0x06ff2e45:  e8 0c b2 ff ff           calll    0x6fee056

----------------
IN: 
0x06fee056:  55                       pushl    %ebp
0x06fee057:  57                       pushl    %edi
0x06fee058:  56                       pushl    %esi
0x06fee059:  53                       pushl    %ebx
0x06fee05a:  53                       pushl    %ebx
0x06fee05b:  89 04 24                 movl     %eax, (%esp)
0x06fee05e:  89 d7                    movl     %edx, %edi
0x06fee060:  89 ce                    movl     %ecx, %esi
0x06fee062:  8b 6c 24 18              movl     0x18(%esp), %ebp
0x06fee066:  b8 94 00 00 00           movl     $0x94, %eax
0x06fee06b:  e8 8f fd ff ff           calll    0x6feddff

----------------
IN: 
0x06feddff:  53                       pushl    %ebx
0x06fede00:  89 c3                    movl     %eax, %ebx
0x06fede02:  e8 e7 ff ff ff           calll    0x6feddee

----------------
IN: 
0x06feddee:  89 c2                    movl     %eax, %edx
0x06feddf0:  b9 10 00 00 00           movl     $0x10, %ecx
0x06feddf5:  b8 58 fe ff 06           movl     $0x6fffe58, %eax
0x06feddfa:  e9 15 ff ff ff           jmp      0x6fedd14

----------------
IN: 
0x06fedd14:  56                       pushl    %esi
0x06fedd15:  53                       pushl    %ebx
0x06fedd16:  83 ec 2c                 subl     $0x2c, %esp
0x06fedd19:  85 d2                    testl    %edx, %edx
0x06fedd1b:  74 2d                    je       0x6fedd4a

----------------
IN: 
0x06fedd1d:  c7 44 24 28 ff ff ff ff  movl     $0xffffffff, 0x28(%esp)
0x06fedd25:  8d 74 24 14              leal     0x14(%esp), %esi
0x06fedd29:  56                       pushl    %esi
0x06fedd2a:  8b 00                    movl     (%eax), %eax
0x06fedd2c:  e8 7c f4 ff ff           calll    0x6fed1ad

----------------
IN: 
0x06fedd31:  89 c3                    movl     %eax, %ebx
0x06fedd33:  58                       popl     %eax
0x06fedd34:  85 db                    testl    %ebx, %ebx
0x06fedd36:  74 12                    je       0x6fedd4a

----------------
IN: 
0x06fedd38:  89 e0                    movl     %esp, %eax
0x06fedd3a:  e8 4b ff ff ff           calll    0x6fedc8a

----------------
IN: 
0x06fedd03:  89 71 04                 movl     %esi, 4(%ecx)
0x06fedd06:  8b 4b 18                 movl     0x18(%ebx), %ecx
0x06fedd09:  89 48 18                 movl     %ecx, 0x18(%eax)
0x06fedd0c:  89 31                    movl     %esi, (%ecx)
0x06fedd0e:  89 d0                    movl     %edx, %eax
0x06fedd10:  5b                       popl     %ebx
0x06fedd11:  5e                       popl     %esi
0x06fedd12:  5f                       popl     %edi
0x06fedd13:  c3                       retl     

----------------
IN: 
0x06fedd3f:  85 c0                    testl    %eax, %eax
0x06fedd41:  75 09                    jne      0x6fedd4c

----------------
IN: 
0x06fedd4c:  89 d8                    movl     %ebx, %eax
0x06fedd4e:  83 c4 2c                 addl     $0x2c, %esp
0x06fedd51:  5b                       popl     %ebx
0x06fedd52:  5e                       popl     %esi
0x06fedd53:  c3                       retl     

----------------
IN: 
0x06fede07:  85 c0                    testl    %eax, %eax
0x06fede09:  75 12                    jne      0x6fede1d

----------------
IN: 
0x06fede1d:  5b                       popl     %ebx
0x06fede1e:  c3                       retl     

----------------
IN: 
0x06fee070:  85 c0                    testl    %eax, %eax
0x06fee072:  75 14                    jne      0x6fee088

----------------
IN: 
0x06fee088:  89 c3                    movl     %eax, %ebx
0x06fee08a:  b9 94 00 00 00           movl     $0x94, %ecx
0x06fee08f:  31 d2                    xorl     %edx, %edx
0x06fee091:  e8 c4 bf 0f f9           calll    0xea05a

----------------
IN: 
0x06fee096:  8d 40 04                 leal     4(%eax), %eax
0x06fee099:  b9 80 00 00 00           movl     $0x80, %ecx
0x06fee09e:  8b 14 24                 movl     (%esp), %edx
0x06fee0a1:  e8 08 d1 ff ff           calll    0x6feb1ae

----------------
IN: 
0x06feb1ae:  56                       pushl    %esi
0x06feb1af:  53                       pushl    %ebx
0x06feb1b0:  8d 5a 01                 leal     1(%edx), %ebx
0x06feb1b3:  8d 34 0a                 leal     (%edx, %ecx), %esi
0x06feb1b6:  89 c1                    movl     %eax, %ecx
0x06feb1b8:  8a 53 ff                 movb     -1(%ebx), %dl
0x06feb1bb:  84 d2                    testb    %dl, %dl
0x06feb1bd:  74 09                    je       0x6feb1c8

----------------
IN: 
0x06feb1bf:  41                       incl     %ecx
0x06feb1c0:  88 51 ff                 movb     %dl, -1(%ecx)
0x06feb1c3:  43                       incl     %ebx
0x06feb1c4:  39 f3                    cmpl     %esi, %ebx
0x06feb1c6:  75 f0                    jne      0x6feb1b8

----------------
IN: 
0x06feb1b8:  8a 53 ff                 movb     -1(%ebx), %dl
0x06feb1bb:  84 d2                    testb    %dl, %dl
0x06feb1bd:  74 09                    je       0x6feb1c8

----------------
IN: 
0x06feb1c8:  c6 01 00                 movb     $0, (%ecx)
0x06feb1cb:  5b                       popl     %ebx
0x06feb1cc:  5e                       popl     %esi
0x06feb1cd:  c3                       retl     

----------------
IN: 
0x06fee0a6:  89 ab 84 00 00 00        movl     %ebp, 0x84(%ebx)
0x06fee0ac:  89 bb 8c 00 00 00        movl     %edi, 0x8c(%ebx)
0x06fee0b2:  89 b3 90 00 00 00        movl     %esi, 0x90(%ebx)
0x06fee0b8:  c7 83 88 00 00 00 5d d4  movl     $0x6fed45d, 0x88(%ebx)
0x06fee0c0:  fe 06
0x06fee0c2:  a1 3c fe ff 06           movl     0x6fffe3c, %eax
0x06fee0c7:  89 03                    movl     %eax, (%ebx)
0x06fee0c9:  89 1d 3c fe ff 06        movl     %ebx, 0x6fffe3c
0x06fee0cf:  58                       popl     %eax
0x06fee0d0:  5b                       popl     %ebx
0x06fee0d1:  5e                       popl     %esi
0x06fee0d2:  5f                       popl     %edi
0x06fee0d3:  5d                       popl     %ebp
0x06fee0d4:  c3                       retl     

----------------
IN: 
0x06ff2e4a:  6a 01                    pushl    $1
0x06ff2e4c:  31 c9                    xorl     %ecx, %ecx
0x06ff2e4e:  ba 02 80 00 00           movl     $0x8002, %edx
0x06ff2e53:  b8 00 0f 0f 00           movl     $0xf0f00, %eax
0x06ff2e58:  e8 f9 b1 ff ff           calll    0x6fee056

----------------
IN: 
0x06ff2e5d:  6a 02                    pushl    $2
0x06ff2e5f:  31 c9                    xorl     %ecx, %ecx
0x06ff2e61:  ba 0f 00 00 00           movl     $0xf, %edx
0x06ff2e66:  b8 12 0f 0f 00           movl     $0xf0f12, %eax
0x06ff2e6b:  e8 e6 b1 ff ff           calll    0x6fee056

----------------
IN: 
0x06ff2e70:  b9 08 00 00 00           movl     $8, %ecx
0x06ff2e75:  ba 0d 00 00 00           movl     $0xd, %edx
0x06ff2e7a:  8d 44 24 18              leal     0x18(%esp), %eax
0x06ff2e7e:  e8 89 8c 0f f9           calll    0xebb0c

----------------
IN: 
0x06ff2e83:  31 d2                    xorl     %edx, %edx
0x06ff2e85:  31 c9                    xorl     %ecx, %ecx
0x06ff2e87:  b8 12 0f 0f 00           movl     $0xf0f12, %eax
0x06ff2e8c:  e8 ce a4 ff ff           calll    0x6fed35f

----------------
IN: 
0x06fed35f:  55                       pushl    %ebp
0x06fed360:  89 e5                    movl     %esp, %ebp
0x06fed362:  57                       pushl    %edi
0x06fed363:  56                       pushl    %esi
0x06fed364:  83 ec 08                 subl     $8, %esp
0x06fed367:  89 d6                    movl     %edx, %esi
0x06fed369:  89 cf                    movl     %ecx, %edi
0x06fed36b:  e8 be ff ff ff           calll    0x6fed32e

----------------
IN: 
0x06fed32e:  57                       pushl    %edi
0x06fed32f:  56                       pushl    %esi
0x06fed330:  53                       pushl    %ebx
0x06fed331:  89 c6                    movl     %eax, %esi
0x06fed333:  e8 84 bd 0f f9           calll    0xe90bc

----------------
IN: 
0x000e90bc:  89 c1                    movl     %eax, %ecx
0x000e90be:  89 c2                    movl     %eax, %edx
0x000e90c0:  80 3a 00                 cmpb     $0, (%edx)
0x000e90c3:  74 03                    je       0xe90c8

----------------
IN: 
0x000e90c5:  42                       incl     %edx
0x000e90c6:  eb f8                    jmp      0xe90c0

----------------
IN: 
0x000e90c0:  80 3a 00                 cmpb     $0, (%edx)
0x000e90c3:  74 03                    je       0xe90c8

----------------
IN: 
0x000e90c8:  89 d0                    movl     %edx, %eax
0x000e90ca:  29 c8                    subl     %ecx, %eax
0x000e90cc:  c3                       retl     

----------------
IN: 
0x06fed338:  8d 78 01                 leal     1(%eax), %edi
0x06fed33b:  8b 1d 3c fe ff 06        movl     0x6fffe3c, %ebx
0x06fed341:  85 db                    testl    %ebx, %ebx
0x06fed343:  74 14                    je       0x6fed359

----------------
IN: 
0x06fed345:  8d 53 04                 leal     4(%ebx), %edx
0x06fed348:  89 f9                    movl     %edi, %ecx
0x06fed34a:  89 f0                    movl     %esi, %eax
0x06fed34c:  e8 7c bd 0f f9           calll    0xe90cd

----------------
IN: 
0x06fed351:  85 c0                    testl    %eax, %eax
0x06fed353:  74 04                    je       0x6fed359

----------------
IN: 
0x06fed359:  89 d8                    movl     %ebx, %eax
0x06fed35b:  5b                       popl     %ebx
0x06fed35c:  5e                       popl     %esi
0x06fed35d:  5f                       popl     %edi
0x06fed35e:  c3                       retl     

----------------
IN: 
0x06fed370:  85 c0                    testl    %eax, %eax
0x06fed372:  75 06                    jne      0x6fed37a

----------------
IN: 
0x06fed37a:  8b 90 84 00 00 00        movl     0x84(%eax), %edx
0x06fed380:  8d 4a ff                 leal     -1(%edx), %ecx
0x06fed383:  83 f9 07                 cmpl     $7, %ecx
0x06fed386:  77 ec                    ja       0x6fed374

----------------
IN: 
0x06fed388:  85 d1                    testl    %edx, %ecx
0x06fed38a:  75 e8                    jne      0x6fed374

----------------
IN: 
0x06fed38c:  31 d2                    xorl     %edx, %edx
0x06fed38e:  89 14 24                 movl     %edx, (%esp)
0x06fed391:  89 54 24 04              movl     %edx, 4(%esp)
0x06fed395:  b9 08 00 00 00           movl     $8, %ecx
0x06fed39a:  89 e2                    movl     %esp, %edx
0x06fed39c:  ff 90 88 00 00 00        calll    *0x88(%eax)

----------------
IN: 
0x06fed45d:  56                       pushl    %esi
0x06fed45e:  53                       pushl    %ebx
0x06fed45f:  89 d6                    movl     %edx, %esi
0x06fed461:  8b 90 84 00 00 00        movl     0x84(%eax), %edx
0x06fed467:  39 d1                    cmpl     %edx, %ecx
0x06fed469:  72 42                    jb       0x6fed4ad

----------------
IN: 
0x06fed46b:  89 c3                    movl     %eax, %ebx
0x06fed46d:  8b 88 90 00 00 00        movl     0x90(%eax), %ecx
0x06fed473:  8b 80 8c 00 00 00        movl     0x8c(%eax), %eax
0x06fed479:  85 c9                    testl    %ecx, %ecx
0x06fed47b:  75 0d                    jne      0x6fed48a

----------------
IN: 
0x06fed47d:  89 d1                    movl     %edx, %ecx
0x06fed47f:  89 c2                    movl     %eax, %edx
0x06fed481:  89 f0                    movl     %esi, %eax
0x06fed483:  e8 84 e6 0f f9           calll    0xebb0c

----------------
IN: 
0x06fed488:  eb 1b                    jmp      0x6fed4a5

----------------
IN: 
0x06fed4a5:  8b 83 84 00 00 00        movl     0x84(%ebx), %eax
0x06fed4ab:  eb 03                    jmp      0x6fed4b0

----------------
IN: 
0x06fed4b0:  5b                       popl     %ebx
0x06fed4b1:  5e                       popl     %esi
0x06fed4b2:  c3                       retl     

----------------
IN: 
0x06fed3a2:  85 c0                    testl    %eax, %eax
0x06fed3a4:  78 ce                    js       0x6fed374

----------------
IN: 
0x06fed3a6:  8b 04 24                 movl     (%esp), %eax
0x06fed3a9:  8b 54 24 04              movl     4(%esp), %edx
0x06fed3ad:  59                       popl     %ecx
0x06fed3ae:  5e                       popl     %esi
0x06fed3af:  5e                       popl     %esi
0x06fed3b0:  5f                       popl     %edi
0x06fed3b1:  5d                       popl     %ebp
0x06fed3b2:  c3                       retl     

----------------
IN: 
0x06ff2e91:  8d 1c c5 00 00 00 00     leal     (, %eax, 8), %ebx
0x06ff2e98:  53                       pushl    %ebx
0x06ff2e99:  b9 08 00 00 00           movl     $8, %ecx
0x06ff2e9e:  ba 0d 00 00 00           movl     $0xd, %edx
0x06ff2ea3:  b8 1f 0f 0f 00           movl     $0xf0f1f, %eax
0x06ff2ea8:  e8 a9 b1 ff ff           calll    0x6fee056

----------------
IN: 
0x06ff2ead:  8d 4b 08                 leal     8(%ebx), %ecx
0x06ff2eb0:  8b 44 24 1c              movl     0x1c(%esp), %eax
0x06ff2eb4:  c1 e0 03                 shll     $3, %eax
0x06ff2eb7:  50                       pushl    %eax
0x06ff2eb8:  ba 0d 00 00 00           movl     $0xd, %edx
0x06ff2ebd:  b8 30 0f 0f 00           movl     $0xf0f30, %eax
0x06ff2ec2:  e8 8f b1 ff ff           calll    0x6fee056

----------------
IN: 
0x06ff2ec7:  b9 02 00 00 00           movl     $2, %ecx
0x06ff2ecc:  ba 00 80 00 00           movl     $0x8000, %edx
0x06ff2ed1:  8d 44 24 16              leal     0x16(%esp), %eax
0x06ff2ed5:  e8 32 8c 0f f9           calll    0xebb0c

----------------
IN: 
0x06ff2eda:  83 c4 14                 addl     $0x14, %esp
0x06ff2edd:  bb 02 00 00 00           movl     $2, %ebx
0x06ff2ee2:  31 f6                    xorl     %esi, %esi
0x06ff2ee4:  0f b7 44 24 02           movzwl   2(%esp), %eax
0x06ff2ee9:  39 c6                    cmpl     %eax, %esi
0x06ff2eeb:  7d 51                    jge      0x6ff2f3e

----------------
IN: 
0x06ff2f3e:  b9 02 00 00 00           movl     $2, %ecx
0x06ff2f43:  ba 01 80 00 00           movl     $0x8001, %edx
0x06ff2f48:  8d 44 24 02              leal     2(%esp), %eax
0x06ff2f4c:  e8 bb 8b 0f f9           calll    0xebb0c

----------------
IN: 
0x06ff2f51:  be 02 00 00 00           movl     $2, %esi
0x06ff2f56:  31 db                    xorl     %ebx, %ebx
0x06ff2f58:  0f b7 44 24 02           movzwl   2(%esp), %eax
0x06ff2f5d:  39 c3                    cmpl     %eax, %ebx
0x06ff2f5f:  0f 8d 8d 00 00 00        jge      0x6ff2ff2

----------------
IN: 
0x06ff2ff2:  b9 04 00 00 00           movl     $4, %ecx
0x06ff2ff7:  ba 19 00 00 00           movl     $0x19, %edx
0x06ff2ffc:  8d 44 24 04              leal     4(%esp), %eax

----------------
IN: 
0x06ff3000:  e8 07 8b 0f f9           calll    0xebb0c

----------------
IN: 
0x06ff3005:  8b 44 24 04              movl     4(%esp), %eax
0x06ff3009:  e8 d5 68 0f f9           calll    0xe98e3

----------------
IN: 
0x06ff300e:  89 44 24 04              movl     %eax, 4(%esp)
0x06ff3012:  31 db                    xorl     %ebx, %ebx
0x06ff3014:  3b 5c 24 04              cmpl     4(%esp), %ebx
0x06ff3018:  73 30                    jae      0x6ff304a

----------------
IN: 
0x06ff301a:  ba 40 00 00 00           movl     $0x40, %edx
0x06ff301f:  8d 44 24 14              leal     0x14(%esp), %eax
0x06ff3023:  e8 be 8a 0f f9           calll    0xebae6

----------------
IN: 
0x06ff3028:  8b 44 24 14              movl     0x14(%esp), %eax
0x06ff302c:  e8 b2 68 0f f9           calll    0xe98e3

----------------
IN: 
0x06ff3031:  8b 54 24 18              movl     0x18(%esp), %edx
0x06ff3035:  86 f2                    xchgb    %dh, %dl
0x06ff3037:  0f b7 d2                 movzwl   %dx, %edx
0x06ff303a:  50                       pushl    %eax
0x06ff303b:  31 c9                    xorl     %ecx, %ecx
0x06ff303d:  8d 44 24 20              leal     0x20(%esp), %eax
0x06ff3041:  e8 10 b0 ff ff           calll    0x6fee056

----------------
IN: 
0x06ff3046:  43                       incl     %ebx
0x06ff3047:  5e                       popl     %esi
0x06ff3048:  eb ca                    jmp      0x6ff3014

----------------
IN: 
0x06ff3014:  3b 5c 24 04              cmpl     4(%esp), %ebx
0x06ff3018:  73 30                    jae      0x6ff304a

----------------
IN: 
0x06ff304a:  b8 5e 0f 0f 00           movl     $0xf0f5e, %eax
0x06ff304f:  e8 da a2 ff ff           calll    0x6fed32e

----------------
IN: 
0x06fed355:  8b 1b                    movl     (%ebx), %ebx
0x06fed357:  eb e8                    jmp      0x6fed341

----------------
IN: 
0x06fed341:  85 db                    testl    %ebx, %ebx
0x06fed343:  74 14                    je       0x6fed359

----------------
IN: 
0x06ff3054:  85 c0                    testl    %eax, %eax
0x06ff3056:  0f 85 c7 00 00 00        jne      0x6ff3123

----------------
IN: 
0x06ff3123:  b8 88 0f 0f 00           movl     $0xf0f88, %eax
0x06ff3128:  e8 01 a2 ff ff           calll    0x6fed32e

----------------
IN: 
0x06ff312d:  85 c0                    testl    %eax, %eax
0x06ff312f:  74 1a                    je       0x6ff314b

----------------
IN: 
0x06ff3131:  66 c7 05 fc 49 0f 00 00  movw     $0x600, 0xf49fc
0x06ff3139:  06
0x06ff313a:  68 00 06 00 00           pushl    $0x600
0x06ff313f:  68 99 0f 0f 00           pushl    $0xf0f99
0x06ff3144:  e8 16 8b 0f f9           calll    0xebc5f

----------------
IN: 
0x06ff3149:  59                       popl     %ecx
0x06ff314a:  5b                       popl     %ebx
0x06ff314b:  66 c7 44 24 14 00 00     movw     $0, 0x14(%esp)
0x06ff3152:  b9 02 00 00 00           movl     $2, %ecx
0x06ff3157:  ba 04 00 00 00           movl     $4, %edx
0x06ff315c:  8d 44 24 14              leal     0x14(%esp), %eax
0x06ff3160:  e8 a7 89 0f f9           calll    0xebb0c

----------------
IN: 
0x06ff3165:  66 83 7c 24 14 00        cmpw     $0, 0x14(%esp)
0x06ff316b:  0f 84 ba fc ff ff        je       0x6ff2e2b

----------------
IN: 
0x06ff2e2b:  31 c0                    xorl     %eax, %eax
0x06ff2e2d:  ba 53 ff 0f 00           movl     $0xfff53, %edx
0x06ff2e32:  e9 ee 03 00 00           jmp      0x6ff3225

----------------
IN: 
0x06ff3225:  66 89 10                 movw     %dx, (%eax)
0x06ff3228:  66 c7 40 02 00 f0        movw     $0xf000, 2(%eax)
0x06ff322e:  83 c0 04                 addl     $4, %eax
0x06ff3231:  3d 00 04 00 00           cmpl     $0x400, %eax
0x06ff3236:  75 ed                    jne      0x6ff3225

----------------
IN: 
0x06ff3238:  b8 20 00 00 00           movl     $0x20, %eax
0x06ff323d:  ba 3d d4 0f 00           movl     $0xfd43d, %edx
0x06ff3242:  66 89 10                 movw     %dx, (%eax)
0x06ff3245:  66 c7 40 02 00 f0        movw     $0xf000, 2(%eax)
0x06ff324b:  83 c0 04                 addl     $4, %eax
0x06ff324e:  83 f8 40                 cmpl     $0x40, %eax
0x06ff3251:  75 ef                    jne      0x6ff3242

----------------
IN: 
0x06ff3242:  66 89 10                 movw     %dx, (%eax)
0x06ff3245:  66 c7 40 02 00 f0        movw     $0xf000, 2(%eax)
0x06ff324b:  83 c0 04                 addl     $4, %eax
0x06ff324e:  83 f8 40                 cmpl     $0x40, %eax
0x06ff3251:  75 ef                    jne      0x6ff3242

----------------
IN: 
0x06ff3253:  b8 c0 01 00 00           movl     $0x1c0, %eax
0x06ff3258:  ba 46 d4 0f 00           movl     $0xfd446, %edx
0x06ff325d:  66 89 10                 movw     %dx, (%eax)
0x06ff3260:  66 c7 40 02 00 f0        movw     $0xf000, 2(%eax)
0x06ff3266:  83 c0 04                 addl     $4, %eax
0x06ff3269:  3d e0 01 00 00           cmpl     $0x1e0, %eax
0x06ff326e:  75 ed                    jne      0x6ff325d

----------------
IN: 
0x06ff325d:  66 89 10                 movw     %dx, (%eax)
0x06ff3260:  66 c7 40 02 00 f0        movw     $0xf000, 2(%eax)
0x06ff3266:  83 c0 04                 addl     $4, %eax
0x06ff3269:  3d e0 01 00 00           cmpl     $0x1e0, %eax
0x06ff326e:  75 ed                    jne      0x6ff325d

----------------
IN: 
0x06ff3270:  b8 c3 e2 0f 00           movl     $0xfe2c3, %eax
0x06ff3275:  66 a3 08 00 00 00        movw     %ax, 8
0x06ff327b:  66 c7 05 0a 00 00 00 00  movw     $0xf000, 0xa
0x06ff3283:  f0
0x06ff3284:  b8 54 ff 0f 00           movl     $0xfff54, %eax
0x06ff3289:  66 a3 14 00 00 00        movw     %ax, 0x14
0x06ff328f:  66 c7 05 16 00 00 00 00  movw     $0xf000, 0x16
0x06ff3297:  f0
0x06ff3298:  b8 65 f0 0f 00           movl     $0xff065, %eax
0x06ff329d:  66 a3 40 00 00 00        movw     %ax, 0x40
0x06ff32a3:  66 c7 05 42 00 00 00 00  movw     $0xf000, 0x42
0x06ff32ab:  f0
0x06ff32ac:  b8 4d f8 0f 00           movl     $0xff84d, %eax
0x06ff32b1:  66 a3 44 00 00 00        movw     %ax, 0x44
0x06ff32b7:  66 c7 05 46 00 00 00 00  movw     $0xf000, 0x46
0x06ff32bf:  f0
0x06ff32c0:  b8 41 f8 0f 00           movl     $0xff841, %eax
0x06ff32c5:  66 a3 48 00 00 00        movw     %ax, 0x48
0x06ff32cb:  66 c7 05 4a 00 00 00 00  movw     $0xf000, 0x4a
0x06ff32d3:  f0
0x06ff32d4:  b8 fe e3 0f 00           movl     $0xfe3fe, %eax
0x06ff32d9:  66 a3 4c 00 00 00        movw     %ax, 0x4c
0x06ff32df:  66 c7 05 4e 00 00 00 00  movw     $0xf000, 0x4e
0x06ff32e7:  f0
0x06ff32e8:  b8 39 e7 0f 00           movl     $0xfe739, %eax
0x06ff32ed:  66 a3 50 00 00 00        movw     %ax, 0x50
0x06ff32f3:  66 c7 05 52 00 00 00 00  movw     $0xf000, 0x52
0x06ff32fb:  f0
0x06ff32fc:  b8 59 f8 0f 00           movl     $0xff859, %eax
0x06ff3301:  66 a3 54 00 00 00        movw     %ax, 0x54
0x06ff3307:  66 c7 05 56 00 00 00 00  movw     $0xf000, 0x56
0x06ff330f:  f0
0x06ff3310:  b8 2e e8 0f 00           movl     $0xfe82e, %eax
0x06ff3315:  66 a3 58 00 00 00        movw     %ax, 0x58
0x06ff331b:  66 c7 05 5a 00 00 00 00  movw     $0xf000, 0x5a
0x06ff3323:  f0
0x06ff3324:  b8 d2 ef 0f 00           movl     $0xfefd2, %eax
0x06ff3329:  66 a3 5c 00 00 00        movw     %ax, 0x5c
0x06ff332f:  66 c7 05 5e 00 00 00 00  movw     $0xf000, 0x5e
0x06ff3337:  f0
0x06ff3338:  b8 62 d4 0f 00           movl     $0xfd462, %eax
0x06ff333d:  66 a3 60 00 00 00        movw     %ax, 0x60
0x06ff3343:  66 c7 05 62 00 00 00 00  movw     $0xf000, 0x62
0x06ff334b:  f0
0x06ff334c:  b8 f2 e6 0f 00           movl     $0xfe6f2, %eax
0x06ff3351:  66 a3 64 00 00 00        movw     %ax, 0x64
0x06ff3357:  66 c7 05 66 00 00 00 00  movw     $0xf000, 0x66
0x06ff335f:  f0
0x06ff3360:  b8 6e fe 0f 00           movl     $0xffe6e, %eax
0x06ff3365:  66 a3 68 00 00 00        movw     %ax, 0x68
0x06ff336b:  66 c7 05 6a 00 00 00 00  movw     $0xf000, 0x6a
0x06ff3373:  f0
0x06ff3374:  b8 59 ec 0f 00           movl     $0xfec59, %eax
0x06ff3379:  66 a3 00 01 00 00        movw     %ax, 0x100
0x06ff337f:  66 c7 05 02 01 00 00 00  movw     $0xf000, 0x102
0x06ff3387:  f0
0x06ff3388:  b8 80 01 00 00           movl     $0x180, %eax
0x06ff338d:  31 d2                    xorl     %edx, %edx
0x06ff338f:  89 10                    movl     %edx, (%eax)
0x06ff3391:  83 c0 04                 addl     $4, %eax
0x06ff3394:  3d 9c 01 00 00           cmpl     $0x19c, %eax
0x06ff3399:  75 f2                    jne      0x6ff338d

----------------
IN: 
0x06ff338d:  31 d2                    xorl     %edx, %edx
0x06ff338f:  89 10                    movl     %edx, (%eax)
0x06ff3391:  83 c0 04                 addl     $4, %eax
0x06ff3394:  3d 9c 01 00 00           cmpl     $0x19c, %eax
0x06ff3399:  75 f2                    jne      0x6ff338d

----------------
IN: 
0x06ff339b:  31 ff                    xorl     %edi, %edi
0x06ff339d:  89 3d e4 01 00 00        movl     %edi, 0x1e4
0x06ff33a3:  b9 00 01 00 00           movl     $0x100, %ecx
0x06ff33a8:  31 d2                    xorl     %edx, %edx
0x06ff33aa:  b8 00 04 00 00           movl     $0x400, %eax
0x06ff33af:  e8 a6 6c 0f f9           calll    0xea05a

----------------
IN: 
0x06ff33b4:  66 c7 05 0e 04 00 00 c0  movw     $0x9fc0, 0x40e
0x06ff33bc:  9f
0x06ff33bd:  66 c7 05 13 04 00 00 7f  movw     $0x27f, 0x413
0x06ff33c5:  02
0x06ff33c6:  b9 21 01 00 00           movl     $0x121, %ecx
0x06ff33cb:  b8 00 fc 09 00           movl     $0x9fc00, %eax
0x06ff33d0:  e8 85 6c 0f f9           calll    0xea05a

----------------
IN: 
0x06ff33d5:  c6 05 00 fc 09 00 01     movb     $1, 0x9fc00
0x06ff33dc:  6a 02                    pushl    $2
0x06ff33de:  6a 00                    pushl    $0
0x06ff33e0:  68 00 04 00 00           pushl    $0x400
0x06ff33e5:  b8 00 fc 09 00           movl     $0x9fc00, %eax
0x06ff33ea:  31 d2                    xorl     %edx, %edx
0x06ff33ec:  e8 6d a8 ff ff           calll    0x6fedc5e

----------------
IN: 
0x06fedc5e:  56                       pushl    %esi
0x06fedc5f:  53                       pushl    %ebx
0x06fedc60:  8b 5c 24 0c              movl     0xc(%esp), %ebx
0x06fedc64:  8b 4c 24 10              movl     0x10(%esp), %ecx
0x06fedc68:  8b 74 24 14              movl     0x14(%esp), %esi
0x06fedc6c:  85 c9                    testl    %ecx, %ecx
0x06fedc6e:  75 04                    jne      0x6fedc74

----------------
IN: 
0x06fedc70:  85 db                    testl    %ebx, %ebx
0x06fedc72:  74 13                    je       0x6fedc87

----------------
IN: 
0x06fedc74:  89 74 24 14              movl     %esi, 0x14(%esp)
0x06fedc78:  89 5c 24 0c              movl     %ebx, 0xc(%esp)
0x06fedc7c:  89 4c 24 10              movl     %ecx, 0x10(%esp)
0x06fedc80:  5b                       popl     %ebx
0x06fedc81:  5e                       popl     %esi
0x06fedc82:  e9 03 fe ff ff           jmp      0x6feda8a

----------------
IN: 
0x06feda8a:  55                       pushl    %ebp
0x06feda8b:  57                       pushl    %edi
0x06feda8c:  56                       pushl    %esi
0x06feda8d:  53                       pushl    %ebx
0x06feda8e:  83 ec 24                 subl     $0x24, %esp
0x06feda91:  89 44 24 08              movl     %eax, 8(%esp)
0x06feda95:  89 54 24 0c              movl     %edx, 0xc(%esp)
0x06feda99:  8b 44 24 38              movl     0x38(%esp), %eax
0x06feda9d:  8b 54 24 3c              movl     0x3c(%esp), %edx
0x06fedaa1:  89 44 24 18              movl     %eax, 0x18(%esp)
0x06fedaa5:  89 54 24 1c              movl     %edx, 0x1c(%esp)
0x06fedaa9:  8b 6c 24 40              movl     0x40(%esp), %ebp
0x06fedaad:  03 44 24 08              addl     8(%esp), %eax
0x06fedab1:  13 54 24 0c              adcl     0xc(%esp), %edx
0x06fedab5:  89 04 24                 movl     %eax, (%esp)
0x06fedab8:  89 54 24 04              movl     %edx, 4(%esp)
0x06fedabc:  a1 04 56 0f 00           movl     0xf5604, %eax
0x06fedac1:  89 44 24 20              movl     %eax, 0x20(%esp)
0x06fedac5:  31 db                    xorl     %ebx, %ebx
0x06fedac7:  8b 44 24 20              movl     0x20(%esp), %eax
0x06fedacb:  39 c3                    cmpl     %eax, %ebx
0x06fedacd:  0f 8d 54 01 00 00        jge      0x6fedc27

----------------
IN: 
0x06fedad3:  6b c3 14                 imull    $0x14, %ebx, %eax
0x06fedad6:  8b b0 20 56 0f 00        movl     0xf5620(%eax), %esi
0x06fedadc:  8b b8 24 56 0f 00        movl     0xf5624(%eax), %edi
0x06fedae2:  89 f2                    movl     %esi, %edx
0x06fedae4:  89 f9                    movl     %edi, %ecx
0x06fedae6:  03 90 28 56 0f 00        addl     0xf5628(%eax), %edx
0x06fedaec:  13 88 2c 56 0f 00        adcl     0xf562c(%eax), %ecx
0x06fedaf2:  89 54 24 10              movl     %edx, 0x10(%esp)
0x06fedaf6:  89 4c 24 14              movl     %ecx, 0x14(%esp)
0x06fedafa:  8b 4c 24 08              movl     8(%esp), %ecx
0x06fedafe:  39 4c 24 10              cmpl     %ecx, 0x10(%esp)
0x06fedb02:  8b 4c 24 14              movl     0x14(%esp), %ecx
0x06fedb06:  1b 4c 24 0c              sbbl     0xc(%esp), %ecx
0x06fedb0a:  73 03                    jae      0x6fedb0f

----------------
IN: 
0x06fedb0f:  8b 4c 24 08              movl     8(%esp), %ecx
0x06fedb13:  39 ce                    cmpl     %ecx, %esi
0x06fedb15:  89 f9                    movl     %edi, %ecx
0x06fedb17:  1b 4c 24 0c              sbbl     0xc(%esp), %ecx
0x06fedb1b:  73 7a                    jae      0x6fedb97

----------------
IN: 
0x06fedb1d:  8d 88 20 56 0f 00        leal     0xf5620(%eax), %ecx
0x06fedb23:  8b 41 10                 movl     0x10(%ecx), %eax
0x06fedb26:  89 44 24 20              movl     %eax, 0x20(%esp)
0x06fedb2a:  39 e8                    cmpl     %ebp, %eax
0x06fedb2c:  75 1d                    jne      0x6fedb4b

----------------
IN: 
0x06fedb4b:  8b 44 24 08              movl     8(%esp), %eax
0x06fedb4f:  8b 54 24 0c              movl     0xc(%esp), %edx
0x06fedb53:  29 f0                    subl     %esi, %eax
0x06fedb55:  19 fa                    sbbl     %edi, %edx
0x06fedb57:  89 41 08                 movl     %eax, 8(%ecx)
0x06fedb5a:  89 51 0c                 movl     %edx, 0xc(%ecx)
0x06fedb5d:  43                       incl     %ebx
0x06fedb5e:  8b 44 24 10              movl     0x10(%esp), %eax
0x06fedb62:  39 04 24                 cmpl     %eax, (%esp)
0x06fedb65:  8b 44 24 04              movl     4(%esp), %eax
0x06fedb69:  1b 44 24 14              sbbl     0x14(%esp), %eax
0x06fedb6d:  73 28                    jae      0x6fedb97

----------------
IN: 
0x06fedb97:  6b f3 14                 imull    $0x14, %ebx, %esi
0x06fedb9a:  3b 1d 04 56 0f 00        cmpl     0xf5604, %ebx
0x06fedba0:  0f 8d 81 00 00 00        jge      0x6fedc27

----------------
IN: 
0x06fedba6:  8d 8e 20 56 0f 00        leal     0xf5620(%esi), %ecx
0x06fedbac:  8b 86 20 56 0f 00        movl     0xf5620(%esi), %eax
0x06fedbb2:  8b 96 24 56 0f 00        movl     0xf5624(%esi), %edx
0x06fedbb8:  39 04 24                 cmpl     %eax, (%esp)
0x06fedbbb:  8b 7c 24 04              movl     4(%esp), %edi
0x06fedbbf:  19 d7                    sbbl     %edx, %edi
0x06fedbc1:  72 64                    jb       0x6fedc27

----------------
IN: 
0x06fedc27:  83 fd ff                 cmpl     $-1, %ebp
0x06fedc2a:  74 2a                    je       0x6fedc56

----------------
IN: 
0x06fedc2c:  89 6c 24 40              movl     %ebp, 0x40(%esp)
0x06fedc30:  8b 44 24 18              movl     0x18(%esp), %eax
0x06fedc34:  8b 54 24 1c              movl     0x1c(%esp), %edx
0x06fedc38:  89 44 24 38              movl     %eax, 0x38(%esp)
0x06fedc3c:  89 54 24 3c              movl     %edx, 0x3c(%esp)
0x06fedc40:  8b 54 24 08              movl     8(%esp), %edx
0x06fedc44:  8b 4c 24 0c              movl     0xc(%esp), %ecx
0x06fedc48:  89 d8                    movl     %ebx, %eax
0x06fedc4a:  83 c4 24                 addl     $0x24, %esp
0x06fedc4d:  5b                       popl     %ebx
0x06fedc4e:  5e                       popl     %esi
0x06fedc4f:  5f                       popl     %edi
0x06fedc50:  5d                       popl     %ebp
0x06fedc51:  e9 98 fd ff ff           jmp      0x6fed9ee

----------------
IN: 
0x06fed9ee:  55                       pushl    %ebp
0x06fed9ef:  57                       pushl    %edi
0x06fed9f0:  56                       pushl    %esi
0x06fed9f1:  53                       pushl    %ebx
0x06fed9f2:  83 ec 10                 subl     $0x10, %esp
0x06fed9f5:  89 14 24                 movl     %edx, (%esp)
0x06fed9f8:  89 4c 24 04              movl     %ecx, 4(%esp)
0x06fed9fc:  8b 7c 24 24              movl     0x24(%esp), %edi
0x06feda00:  8b 6c 24 28              movl     0x28(%esp), %ebp
0x06feda04:  89 7c 24 08              movl     %edi, 8(%esp)
0x06feda08:  89 6c 24 0c              movl     %ebp, 0xc(%esp)
0x06feda0c:  8b 7c 24 2c              movl     0x2c(%esp), %edi
0x06feda10:  8b 1d 04 56 0f 00        movl     0xf5604, %ebx
0x06feda16:  83 fb 7f                 cmpl     $0x7f, %ebx
0x06feda19:  7e 16                    jle      0x6feda31

----------------
IN: 
0x06feda31:  6b f0 14                 imull    $0x14, %eax, %esi
0x06feda34:  89 d9                    movl     %ebx, %ecx
0x06feda36:  29 c1                    subl     %eax, %ecx
0x06feda38:  6b c9 14                 imull    $0x14, %ecx, %ecx
0x06feda3b:  8d ae 20 56 0f 00        leal     0xf5620(%esi), %ebp
0x06feda41:  8d 86 34 56 0f 00        leal     0xf5634(%esi), %eax
0x06feda47:  89 ea                    movl     %ebp, %edx
0x06feda49:  e8 9e f6 ff ff           calll    0x6fed0ec

----------------
IN: 
0x06feda4e:  43                       incl     %ebx
0x06feda4f:  89 1d 04 56 0f 00        movl     %ebx, 0xf5604
0x06feda55:  8b 04 24                 movl     (%esp), %eax
0x06feda58:  8b 54 24 04              movl     4(%esp), %edx
0x06feda5c:  89 86 20 56 0f 00        movl     %eax, 0xf5620(%esi)
0x06feda62:  89 96 24 56 0f 00        movl     %edx, 0xf5624(%esi)
0x06feda68:  8b 44 24 08              movl     8(%esp), %eax
0x06feda6c:  8b 54 24 0c              movl     0xc(%esp), %edx
0x06feda70:  89 86 28 56 0f 00        movl     %eax, 0xf5628(%esi)
0x06feda76:  89 96 2c 56 0f 00        movl     %edx, 0xf562c(%esi)
0x06feda7c:  89 be 30 56 0f 00        movl     %edi, 0xf5630(%esi)
0x06feda82:  83 c4 10                 addl     $0x10, %esp
0x06feda85:  5b                       popl     %ebx
0x06feda86:  5e                       popl     %esi
0x06feda87:  5f                       popl     %edi
0x06feda88:  5d                       popl     %ebp
0x06feda89:  c3                       retl     

----------------
IN: 
0x06ff33f1:  b8 d8 8e 0e 00           movl     $0xe8ed8, %eax
0x06ff33f6:  2d 00 90 0d 00           subl     $0xd9000, %eax
0x06ff33fb:  a3 d0 86 0e 00           movl     %eax, 0xe86d0
0x06ff3400:  b0 b8                    movb     $0xb8, %al
0x06ff3402:  e6 70                    outb     %al, $0x70

----------------
IN: 
0x06ff3404:  e4 71                    inb      $0x71, %al

----------------
IN: 
0x06ff3406:  83 c4 0c                 addl     $0xc, %esp
0x06ff3409:  a8 01                    testb    $1, %al
0x06ff340b:  74 08                    je       0x6ff3415

----------------
IN: 
0x06ff3415:  b0 bd                    movb     $0xbd, %al
0x06ff3417:  e6 70                    outb     %al, $0x70

----------------
IN: 
0x06ff3419:  e4 71                    inb      $0x71, %al

----------------
IN: 
0x06ff341b:  0f b6 d0                 movzbl   %al, %edx
0x06ff341e:  b0 b8                    movb     $0xb8, %al
0x06ff3420:  e6 70                    outb     %al, $0x70

----------------
IN: 
0x06ff3422:  e4 71                    inb      $0x71, %al

----------------
IN: 
0x06ff3424:  c1 e0 04                 shll     $4, %eax
0x06ff3427:  25 00 0f 00 00           andl     $0xf00, %eax
0x06ff342c:  09 d0                    orl      %edx, %eax
0x06ff342e:  c7 05 24 fe ff 06 0f 27  movl     $0x270f, 0x6fffe24
0x06ff3436:  00 00
0x06ff3438:  c7 05 28 fe ff 06 0f 27  movl     $0x270f, 0x6fffe28
0x06ff3440:  00 00
0x06ff3442:  c7 05 2c fe ff 06 0f 27  movl     $0x270f, 0x6fffe2c
0x06ff344a:  00 00
0x06ff344c:  c7 05 30 fe ff 06 0f 27  movl     $0x270f, 0x6fffe30
0x06ff3454:  00 00
0x06ff3456:  ba 65 00 00 00           movl     $0x65, %edx
0x06ff345b:  89 c1                    movl     %eax, %ecx
0x06ff345d:  83 e1 0f                 andl     $0xf, %ecx
0x06ff3460:  89 c3                    movl     %eax, %ebx
0x06ff3462:  c1 e8 04                 shrl     $4, %eax
0x06ff3465:  83 f9 03                 cmpl     $3, %ecx
0x06ff3468:  74 2c                    je       0x6ff3496

----------------
IN: 
0x06ff346a:  80 e3 0c                 andb     $0xc, %bl
0x06ff346d:  75 12                    jne      0x6ff3481

----------------
IN: 
0x06ff346f:  83 f9 01                 cmpl     $1, %ecx
0x06ff3472:  74 1a                    je       0x6ff348e

----------------
IN: 
0x06ff3474:  83 f9 02                 cmpl     $2, %ecx
0x06ff3477:  75 23                    jne      0x6ff349c

----------------
IN: 
0x06ff3479:  89 15 28 fe ff 06        movl     %edx, 0x6fffe28
0x06ff347f:  eb 1b                    jmp      0x6ff349c

----------------
IN: 
0x06ff349c:  42                       incl     %edx
0x06ff349d:  83 fa 68                 cmpl     $0x68, %edx
0x06ff34a0:  75 b9                    jne      0x6ff345b

----------------
IN: 
0x06ff345b:  89 c1                    movl     %eax, %ecx
0x06ff345d:  83 e1 0f                 andl     $0xf, %ecx
0x06ff3460:  89 c3                    movl     %eax, %ebx
0x06ff3462:  c1 e8 04                 shrl     $4, %eax
0x06ff3465:  83 f9 03                 cmpl     $3, %ecx
0x06ff3468:  74 2c                    je       0x6ff3496

----------------
IN: 
0x06ff348e:  89 15 30 fe ff 06        movl     %edx, 0x6fffe30
0x06ff3494:  eb 06                    jmp      0x6ff349c

----------------
IN: 
0x06ff3496:  89 15 2c fe ff 06        movl     %edx, 0x6fffe2c
0x06ff349c:  42                       incl     %edx
0x06ff349d:  83 fa 68                 cmpl     $0x68, %edx
0x06ff34a0:  75 b9                    jne      0x6ff345b

----------------
IN: 
0x06ff34a2:  ba 60 ea 00 00           movl     $0xea60, %edx
0x06ff34a7:  31 c9                    xorl     %ecx, %ecx
0x06ff34a9:  b8 d5 0f 0f 00           movl     $0xf0fd5, %eax
0x06ff34ae:  e8 ac 9e ff ff           calll    0x6fed35f

----------------
IN: 
0x06ff34b3:  a3 a0 4d 0f 00           movl     %eax, 0xf4da0
0x06ff34b8:  31 d2                    xorl     %edx, %edx
0x06ff34ba:  b8 e8 0f 0f 00           movl     $0xf0fe8, %eax
0x06ff34bf:  e8 73 aa ff ff           calll    0x6fedf37

----------------
IN: 
0x06fedf37:  55                       pushl    %ebp
0x06fedf38:  57                       pushl    %edi
0x06fedf39:  56                       pushl    %esi
0x06fedf3a:  53                       pushl    %ebx
0x06fedf3b:  89 d7                    movl     %edx, %edi
0x06fedf3d:  e8 ec f3 ff ff           calll    0x6fed32e

----------------
IN: 
0x06fedf42:  85 c0                    testl    %eax, %eax
0x06fedf44:  74 29                    je       0x6fedf6f

----------------
IN: 
0x06fedf46:  89 c6                    movl     %eax, %esi
0x06fedf48:  8b a8 84 00 00 00        movl     0x84(%eax), %ebp
0x06fedf4e:  85 ed                    testl    %ebp, %ebp
0x06fedf50:  74 1d                    je       0x6fedf6f

----------------
IN: 
0x06fedf6f:  31 db                    xorl     %ebx, %ebx
0x06fedf71:  eb 23                    jmp      0x6fedf96

----------------
IN: 
0x06fedf96:  89 d8                    movl     %ebx, %eax
0x06fedf98:  5b                       popl     %ebx
0x06fedf99:  5e                       popl     %esi
0x06fedf9a:  5f                       popl     %edi
0x06fedf9b:  5d                       popl     %ebp
0x06fedf9c:  c3                       retl     

----------------
IN: 
0x06ff34c4:  89 c3                    movl     %eax, %ebx
0x06ff34c6:  85 c0                    testl    %eax, %eax
0x06ff34c8:  0f 84 b3 00 00 00        je       0x6ff3581

----------------
IN: 
0x06ff3581:  31 d2                    xorl     %edx, %edx
0x06ff3583:  b8 07 10 0f 00           movl     $0xf1007, %eax
0x06ff3588:  e8 aa a9 ff ff           calll    0x6fedf37

----------------
IN: 
0x06ff358d:  89 c3                    movl     %eax, %ebx
0x06ff358f:  85 c0                    testl    %eax, %eax
0x06ff3591:  0f 84 ec 00 00 00        je       0x6ff3683

----------------
IN: 
0x06ff3683:  c7 05 a4 60 0f 00 7b d2  movl     $0xfd27b, 0xf60a4
0x06ff368b:  0f 00
0x06ff368d:  ba 10 00 00 00           movl     $0x10, %edx
0x06ff3692:  b8 a0 60 0f 00           movl     $0xf60a0, %eax
0x06ff3697:  e8 e8 68 0f f9           calll    0xe9f84

----------------
IN: 
0x000e9f84:  01 c2                    addl     %eax, %edx
0x000e9f86:  31 c9                    xorl     %ecx, %ecx
0x000e9f88:  39 d0                    cmpl     %edx, %eax
0x000e9f8a:  74 05                    je       0xe9f91

----------------
IN: 
0x000e9f8c:  02 08                    addb     (%eax), %cl
0x000e9f8e:  40                       incl     %eax
0x000e9f8f:  eb f7                    jmp      0xe9f88

----------------
IN: 
0x000e9f88:  39 d0                    cmpl     %edx, %eax
0x000e9f8a:  74 05                    je       0xe9f91

----------------
IN: 
0x000e9f91:  88 c8                    movb     %cl, %al
0x000e9f93:  c3                       retl     

----------------
IN: 
0x06ff369c:  28 05 aa 60 0f 00        subb     %al, 0xf60aa
0x06ff36a2:  b8 c0 d0 0f 00           movl     $0xfd0c0, %eax
0x06ff36a7:  66 a3 f7 55 0f 00        movw     %ax, 0xf55f7
0x06ff36ad:  66 c7 05 f9 55 0f 00 00  movw     $0xf000, 0xf55f9
0x06ff36b5:  f0
0x06ff36b6:  ba 10 00 00 00           movl     $0x10, %edx
0x06ff36bb:  b8 f0 55 0f 00           movl     $0xf55f0, %eax
0x06ff36c0:  e8 bf 68 0f f9           calll    0xe9f84

----------------
IN: 
0x06ff36c5:  28 05 f6 55 0f 00        subb     %al, 0xf55f6
0x06ff36cb:  b8 22 d1 0f 00           movl     $0xfd122, %eax
0x06ff36d0:  66 a3 cd 60 0f 00        movw     %ax, 0xf60cd
0x06ff36d6:  b8 1e d1 0f 00           movl     $0xfd11e, %eax
0x06ff36db:  66 a3 d1 60 0f 00        movw     %ax, 0xf60d1
0x06ff36e1:  ba 21 00 00 00           movl     $0x21, %edx
0x06ff36e6:  b8 c0 60 0f 00           movl     $0xf60c0, %eax
0x06ff36eb:  e8 94 68 0f f9           calll    0xe9f84

----------------
IN: 
0x06ff36f0:  28 05 c8 60 0f 00        subb     %al, 0xf60c8
0x06ff36f6:  c6 05 96 04 00 00 10     movb     $0x10, 0x496
0x06ff36fd:  66 c7 05 1a 04 00 00 1e  movw     $0x1e, 0x41a
0x06ff3705:  00
0x06ff3706:  66 c7 05 1c 04 00 00 1e  movw     $0x1e, 0x41c
0x06ff370e:  00
0x06ff370f:  66 c7 05 80 04 00 00 1e  movw     $0x1e, 0x480
0x06ff3717:  00
0x06ff3718:  66 c7 05 82 04 00 00 3e  movw     $0x3e, 0x482
0x06ff3720:  00
0x06ff3721:  66 83 0d 10 04 00 00 04  orw      $4, 0x410
0x06ff3729:  81 c4 94 00 00 00        addl     $0x94, %esp
0x06ff372f:  5b                       popl     %ebx
0x06ff3730:  5e                       popl     %esi
0x06ff3731:  5f                       popl     %edi
0x06ff3732:  c3                       retl     

----------------
IN: 
0x06ffb8dd:  e8 c5 d8 ff ff           calll    0x6ff91a7

----------------
IN: 
0x06ff91a7:  55                       pushl    %ebp
0x06ff91a8:  57                       pushl    %edi
0x06ff91a9:  56                       pushl    %esi
0x06ff91aa:  53                       pushl    %ebx
0x06ff91ab:  81 ec a8 00 00 00        subl     $0xa8, %esp
0x06ff91b1:  31 d2                    xorl     %edx, %edx
0x06ff91b3:  88 d0                    movb     %dl, %al
0x06ff91b5:  e6 0d                    outb     %al, $0xd

----------------
IN: 
0x06ff91b7:  e6 da                    outb     %al, $0xda

----------------
IN: 
0x06ff91b9:  b0 c0                    movb     $0xc0, %al
0x06ff91bb:  e6 d6                    outb     %al, $0xd6

----------------
IN: 
0x06ff91bd:  88 d0                    movb     %dl, %al
0x06ff91bf:  e6 d4                    outb     %al, $0xd4

----------------
IN: 
0x06ff91c1:  e8 a3 0c 0f f9           calll    0xe9e69

----------------
IN: 
0x000e9e69:  b0 11                    movb     $0x11, %al
0x000e9e6b:  e6 20                    outb     %al, $0x20

----------------
IN: 
0x000e9e6d:  e6 a0                    outb     %al, $0xa0

----------------
IN: 
0x000e9e6f:  b0 08                    movb     $8, %al
0x000e9e71:  e6 21                    outb     %al, $0x21

----------------
IN: 
0x000e9e73:  b0 70                    movb     $0x70, %al
0x000e9e75:  e6 a1                    outb     %al, $0xa1

----------------
IN: 
0x000e9e77:  b0 04                    movb     $4, %al
0x000e9e79:  e6 21                    outb     %al, $0x21

----------------
IN: 
0x000e9e7b:  b0 02                    movb     $2, %al
0x000e9e7d:  e6 a1                    outb     %al, $0xa1

----------------
IN: 
0x000e9e7f:  b0 01                    movb     $1, %al
0x000e9e81:  e6 21                    outb     %al, $0x21

----------------
IN: 
0x000e9e83:  e6 a1                    outb     %al, $0xa1

----------------
IN: 
0x000e9e85:  b0 fb                    movb     $0xfb, %al
0x000e9e87:  e6 21                    outb     %al, $0x21

----------------
IN: 
0x000e9e89:  b0 ff                    movb     $0xff, %al
0x000e9e8b:  e6 a1                    outb     %al, $0xa1

----------------
IN: 
0x000e9e8d:  c3                       retl     

----------------
IN: 
0x06ff91c6:  c6 05 c1 4d 0f 00 01     movb     $1, 0xf4dc1
0x06ff91cd:  b8 01 00 00 00           movl     $1, %eax
0x06ff91d2:  e8 aa 24 0f f9           calll    0xeb681

----------------
IN: 
0x000eb681:  53                       pushl    %ebx
0x000eb682:  89 c3                    movl     %eax, %ebx
0x000eb684:  89 e0                    movl     %esp, %eax
0x000eb686:  3d 00 70 00 00           cmpl     $0x7000, %eax
0x000eb68b:  76 0a                    jbe      0xeb697

----------------
IN: 
0x000eb697:  b9 18 00 00 00           movl     $0x18, %ecx
0x000eb69c:  31 d2                    xorl     %edx, %edx
0x000eb69e:  b8 dc 8e 0e 00           movl     $0xe8edc, %eax
0x000eb6a3:  e8 b2 e9 ff ff           calll    0xea05a

----------------
IN: 
0x000eb6a8:  85 db                    testl    %ebx, %ebx
0x000eb6aa:  74 07                    je       0xeb6b3

----------------
IN: 
0x000eb6ac:  c6 05 dc 8e 0e 00 01     movb     $1, 0xe8edc
0x000eb6b3:  c6 05 de 8e 0e 00 01     movb     $1, 0xe8ede
0x000eb6ba:  5b                       popl     %ebx
0x000eb6bb:  c3                       retl     

----------------
IN: 
0x06ff91d7:  ba 01 00 00 00           movl     $1, %edx
0x06ff91dc:  31 c9                    xorl     %ecx, %ecx
0x06ff91de:  b8 d7 2e 0f 00           movl     $0xf2ed7, %eax
0x06ff91e3:  e8 77 41 ff ff           calll    0x6fed35f

----------------
IN: 
0x06fed374:  89 f0                    movl     %esi, %eax
0x06fed376:  89 fa                    movl     %edi, %edx
0x06fed378:  eb 33                    jmp      0x6fed3ad

----------------
IN: 
0x06fed3ad:  59                       popl     %ecx
0x06fed3ae:  5e                       popl     %esi
0x06fed3af:  5e                       popl     %esi
0x06fed3b0:  5f                       popl     %edi
0x06fed3b1:  5d                       popl     %ebp
0x06fed3b2:  c3                       retl     

----------------
IN: 
0x06ff91e8:  a2 c0 4d 0f 00           movb     %al, 0xf4dc0
0x06ff91ed:  66 83 0d 10 04 00 00 02  orw      $2, 0x410
0x06ff91f5:  ba 34 d4 0f 00           movl     $0xfd434, %edx
0x06ff91fa:  0f b7 d2                 movzwl   %dx, %edx
0x06ff91fd:  81 ca 00 00 00 f0        orl      $0xf0000000, %edx
0x06ff9203:  b8 0d 00 00 00           movl     $0xd, %eax
0x06ff9208:  e8 4c 36 ff ff           calll    0x6fec859

----------------
IN: 
0x06fec859:  56                       pushl    %esi
0x06fec85a:  53                       pushl    %ebx
0x06fec85b:  89 c1                    movl     %eax, %ecx
0x06fec85d:  89 d3                    movl     %edx, %ebx
0x06fec85f:  ba 01 00 00 00           movl     $1, %edx
0x06fec864:  d3 e2                    shll     %cl, %edx
0x06fec866:  e4 21                    inb      $0x21, %al

----------------
IN: 
0x06fec868:  89 d6                    movl     %edx, %esi
0x06fec86a:  f7 d6                    notl     %esi
0x06fec86c:  21 f0                    andl     %esi, %eax
0x06fec86e:  e6 21                    outb     %al, $0x21

----------------
IN: 
0x06fec870:  e4 a1                    inb      $0xa1, %al

----------------
IN: 
0x06fec872:  66 c1 ea 08              shrw     $8, %dx
0x06fec876:  f7 d2                    notl     %edx
0x06fec878:  21 d0                    andl     %edx, %eax
0x06fec87a:  e6 a1                    outb     %al, $0xa1

----------------
IN: 
0x06fec87c:  8d 41 08                 leal     8(%ecx), %eax
0x06fec87f:  83 f9 07                 cmpl     $7, %ecx
0x06fec882:  7e 03                    jle      0x6fec887

----------------
IN: 
0x06fec884:  8d 41 68                 leal     0x68(%ecx), %eax
0x06fec887:  89 1c 85 00 00 00 00     movl     %ebx, (, %eax, 4)
0x06fec88e:  5b                       popl     %ebx
0x06fec88f:  5e                       popl     %esi
0x06fec890:  c3                       retl     

----------------
IN: 
0x06ff920d:  e8 af c3 ff ff           calll    0x6ff55c1

----------------
IN: 
0x06ff55c1:  55                       pushl    %ebp
0x06ff55c2:  57                       pushl    %edi
0x06ff55c3:  56                       pushl    %esi
0x06ff55c4:  53                       pushl    %ebx
0x06ff55c5:  81 ec d0 00 00 00        subl     $0xd0, %esp
0x06ff55cb:  e8 4a 39 0f f9           calll    0xe8f1a

----------------
IN: 
0x06ff55d0:  89 44 24 0c              movl     %eax, 0xc(%esp)
0x06ff55d4:  85 c0                    testl    %eax, %eax
0x06ff55d6:  0f 84 c3 01 00 00        je       0x6ff579f

----------------
IN: 
0x06ff579f:  f6 05 e0 55 0f 00 04     testb    $4, 0xf55e0
0x06ff57a6:  8d 5c 24 5c              leal     0x5c(%esp), %ebx
0x06ff57aa:  0f 84 ce 00 00 00        je       0x6ff587e

----------------
IN: 
0x06ff587e:  e8 73 a4 ff ff           calll    0x6fefcf6

----------------
IN: 
0x06fefcf6:  55                       pushl    %ebp
0x06fefcf7:  57                       pushl    %edi
0x06fefcf8:  56                       pushl    %esi
0x06fefcf9:  53                       pushl    %ebx
0x06fefcfa:  83 ec 5c                 subl     $0x5c, %esp
0x06fefcfd:  8a 0d 01 ff ff 06        movb     0x6ffff01, %cl
0x06fefd03:  84 c9                    testb    %cl, %cl
0x06fefd05:  74 5e                    je       0x6fefd65

----------------
IN: 
0x06fefd07:  31 c0                    xorl     %eax, %eax
0x06fefd09:  31 d2                    xorl     %edx, %edx
0x06fefd0b:  f6 c1 20                 testb    $0x20, %cl
0x06fefd0e:  0f 94 c0                 sete     %al
0x06fefd11:  0f 95 c2                 setne    %dl
0x06fefd14:  d3 e0                    shll     %cl, %eax
0x06fefd16:  d3 e2                    shll     %cl, %edx
0x06fefd18:  a3 f0 fe ff 06           movl     %eax, 0x6fffef0
0x06fefd1d:  89 15 f4 fe ff 06        movl     %edx, 0x6fffef4
0x06fefd23:  80 f9 2e                 cmpb     $0x2e, %cl
0x06fefd26:  76 13                    jbe      0x6fefd3b

----------------
IN: 
0x06fefd3b:  80 f9 23                 cmpb     $0x23, %cl
0x06fefd3e:  76 25                    jbe      0x6fefd65

----------------
IN: 
0x06fefd40:  80 3d 00 ff ff 06 00     cmpb     $0, 0x6ffff00
0x06fefd47:  74 1c                    je       0x6fefd65

----------------
IN: 
0x06fefd49:  83 3d 0c ff ff 06 00     cmpl     $0, 0x6ffff0c
0x06fefd50:  75 09                    jne      0x6fefd5b

----------------
IN: 
0x06fefd52:  83 3d 08 ff ff 06 00     cmpl     $0, 0x6ffff08
0x06fefd59:  74 0a                    je       0x6fefd65

----------------
IN: 
0x06fefd65:  68 32 04 0f 00           pushl    $0xf0432
0x06fefd6a:  e8 f0 be 0f f9           calll    0xebc5f

----------------
IN: 
0x06fefd6f:  ba f8 0c 00 00           movl     $0xcf8, %edx
0x06fefd74:  b8 00 00 00 80           movl     $0x80000000, %eax
0x06fefd79:  ef                       outl     %eax, %dx

----------------
IN: 
0x06fefd7a:  ed                       inl      %dx, %eax

----------------
IN: 
0x06fefd7b:  5d                       popl     %ebp
0x06fefd7c:  3d 00 00 00 80           cmpl     $0x80000000, %eax
0x06fefd81:  74 0a                    je       0x6fefd8d

----------------
IN: 
0x06fefd8d:  31 d2                    xorl     %edx, %edx
0x06fefd8f:  31 c9                    xorl     %ecx, %ecx
0x06fefd91:  b8 f2 03 0f 00           movl     $0xf03f2, %eax
0x06fefd96:  e8 c4 d5 ff ff           calll    0x6fed35f

----------------
IN: 
0x06fefd9b:  89 c3                    movl     %eax, %ebx
0x06fefd9d:  c6 44 24 50 00           movb     $0, 0x50(%esp)
0x06fefda2:  8d 54 24 50              leal     0x50(%esp), %edx
0x06fefda6:  31 c0                    xorl     %eax, %eax
0x06fefda8:  e8 68 f5 ff ff           calll    0x6fef315

----------------
IN: 
0x06fef315:  55                       pushl    %ebp
0x06fef316:  57                       pushl    %edi
0x06fef317:  56                       pushl    %esi
0x06fef318:  53                       pushl    %ebx
0x06fef319:  83 ec 08                 subl     $8, %esp
0x06fef31c:  89 c6                    movl     %eax, %esi
0x06fef31e:  89 d3                    movl     %edx, %ebx
0x06fef320:  50                       pushl    %eax
0x06fef321:  68 9c f2 ff 06           pushl    $0x6fff29c
0x06fef326:  68 c4 00 0f 00           pushl    $0xf00c4
0x06fef32b:  e8 2f c9 0f f9           calll    0xebc5f

----------------
IN: 
0x06fef330:  89 f7                    movl     %esi, %edi
0x06fef332:  c1 e7 08                 shll     $8, %edi
0x06fef335:  0f b7 ff                 movzwl   %di, %edi
0x06fef338:  8d 47 ff                 leal     -1(%edi), %eax
0x06fef33b:  89 44 24 0c              movl     %eax, 0xc(%esp)
0x06fef33f:  89 f2                    movl     %esi, %edx
0x06fef341:  e8 29 bf ff ff           calll    0x6feb26f

----------------
IN: 
0x06feb26f:  56                       pushl    %esi
0x06feb270:  53                       pushl    %ebx
0x06feb271:  89 c3                    movl     %eax, %ebx
0x06feb273:  89 d6                    movl     %edx, %esi
0x06feb275:  a8 07                    testb    $7, %al
0x06feb277:  75 31                    jne      0x6feb2aa

----------------
IN: 
0x06feb2aa:  43                       incl     %ebx
0x06feb2ab:  eb e0                    jmp      0x6feb28d

----------------
IN: 
0x06feb28d:  0f b6 c7                 movzbl   %bh, %eax
0x06feb290:  39 f0                    cmpl     %esi, %eax
0x06feb292:  75 19                    jne      0x6feb2ad

----------------
IN: 
0x06feb294:  0f b7 c3                 movzwl   %bx, %eax
0x06feb297:  31 d2                    xorl     %edx, %edx
0x06feb299:  e8 6b df 0f f9           calll    0xe9209

----------------
IN: 
0x06feb29e:  48                       decl     %eax
0x06feb29f:  66 83 f8 fd              cmpw     $-3, %ax
0x06feb2a3:  76 0b                    jbe      0x6feb2b0

----------------
IN: 
0x06feb2b0:  89 d8                    movl     %ebx, %eax
0x06feb2b2:  5b                       popl     %ebx
0x06feb2b3:  5e                       popl     %esi
0x06feb2b4:  c3                       retl     

----------------
IN: 
0x06fef346:  89 c7                    movl     %eax, %edi
0x06fef348:  83 c4 0c                 addl     $0xc, %esp
0x06fef34b:  85 ff                    testl    %edi, %edi
0x06fef34d:  78 41                    js       0x6fef390

----------------
IN: 
0x06fef34f:  0f b7 ef                 movzwl   %di, %ebp
0x06fef352:  ba 0a 00 00 00           movl     $0xa, %edx
0x06fef357:  89 e8                    movl     %ebp, %eax
0x06fef359:  e8 ab 9e 0f f9           calll    0xe9209

----------------
IN: 
0x06fef35e:  66 3d 04 06              cmpw     $0x604, %ax
0x06fef362:  75 1f                    jne      0x6fef383

----------------
IN: 
0x06fef383:  89 f2                    movl     %esi, %edx
0x06fef385:  89 f8                    movl     %edi, %eax
0x06fef387:  e8 e3 be ff ff           calll    0x6feb26f

----------------
IN: 
0x06feb279:  0f b7 c0                 movzwl   %ax, %eax
0x06feb27c:  ba 0e 00 00 00           movl     $0xe, %edx
0x06feb281:  e8 c1 df 0f f9           calll    0xe9247

----------------
IN: 
0x000e9247:  89 d1                    movl     %edx, %ecx
0x000e9249:  8b 15 b8 4d 0f 00        movl     0xf4db8, %edx
0x000e924f:  0f b7 c0                 movzwl   %ax, %eax
0x000e9252:  85 d2                    testl    %edx, %edx
0x000e9254:  74 0a                    je       0xe9260

----------------
IN: 
0x000e9260:  c1 e0 08                 shll     $8, %eax
0x000e9263:  89 ca                    movl     %ecx, %edx
0x000e9265:  81 e2 fc 00 00 00        andl     $0xfc, %edx
0x000e926b:  09 d0                    orl      %edx, %eax
0x000e926d:  0d 00 00 00 80           orl      $0x80000000, %eax
0x000e9272:  ba f8 0c 00 00           movl     $0xcf8, %edx
0x000e9277:  ef                       outl     %eax, %dx

----------------
IN: 
0x000e9278:  83 e1 03                 andl     $3, %ecx
0x000e927b:  8d 91 fc 0c 00 00        leal     0xcfc(%ecx), %edx
0x000e9281:  ec                       inb      %dx, %al

----------------
IN: 
0x000e9282:  c3                       retl     

----------------
IN: 
0x06feb286:  84 c0                    testb    %al, %al
0x06feb288:  78 20                    js       0x6feb2aa

----------------
IN: 
0x06feb28a:  83 c3 08                 addl     $8, %ebx
0x06feb28d:  0f b6 c7                 movzbl   %bh, %eax
0x06feb290:  39 f0                    cmpl     %esi, %eax
0x06feb292:  75 19                    jne      0x6feb2ad

----------------
IN: 
0x06fef38c:  89 c7                    movl     %eax, %edi
0x06fef38e:  eb bb                    jmp      0x6fef34b

----------------
IN: 
0x06fef34b:  85 ff                    testl    %edi, %edi
0x06fef34d:  78 41                    js       0x6fef390

----------------
IN: 
0x06feb2a5:  f6 c3 07                 testb    $7, %bl
0x06feb2a8:  74 e0                    je       0x6feb28a

----------------
IN: 
0x06feb2ad:  83 cb ff                 orl      $0xffffffff, %ebx
0x06feb2b0:  89 d8                    movl     %ebx, %eax
0x06feb2b2:  5b                       popl     %ebx
0x06feb2b3:  5e                       popl     %esi
0x06feb2b4:  c3                       retl     

----------------
IN: 
0x06fef390:  89 f2                    movl     %esi, %edx
0x06fef392:  8b 04 24                 movl     (%esp), %eax
0x06fef395:  e8 d5 be ff ff           calll    0x6feb26f

----------------
IN: 
0x06fef39a:  89 c5                    movl     %eax, %ebp
0x06fef39c:  85 c0                    testl    %eax, %eax
0x06fef39e:  0f 88 bd 01 00 00        js       0x6fef561

----------------
IN: 
0x06fef3a4:  0f b7 c5                 movzwl   %bp, %eax
0x06fef3a7:  89 04 24                 movl     %eax, (%esp)
0x06fef3aa:  ba 0a 00 00 00           movl     $0xa, %edx
0x06fef3af:  e8 55 9e 0f f9           calll    0xe9209

----------------
IN: 
0x06fef3b4:  66 3d 04 06              cmpw     $0x604, %ax
0x06fef3b8:  0f 85 9a 01 00 00        jne      0x6fef558

----------------
IN: 
0x06fef558:  89 f2                    movl     %esi, %edx
0x06fef55a:  89 e8                    movl     %ebp, %eax
0x06fef55c:  e9 34 fe ff ff           jmp      0x6fef395

----------------
IN: 
0x06fef395:  e8 d5 be ff ff           calll    0x6feb26f

----------------
IN: 
0x06fef561:  83 c4 08                 addl     $8, %esp
0x06fef564:  5b                       popl     %ebx
0x06fef565:  5e                       popl     %esi
0x06fef566:  5f                       popl     %edi
0x06fef567:  5d                       popl     %ebp
0x06fef568:  c3                       retl     

----------------
IN: 
0x06fefdad:  84 db                    testb    %bl, %bl
0x06fefdaf:  75 2c                    jne      0x6fefddd

----------------
IN: 
0x06fefdb1:  68 6a 04 0f 00           pushl    $0xf046a
0x06fefdb6:  e8 a4 be 0f f9           calll    0xebc5f

----------------
IN: 
0x06fefdbb:  e8 81 fd ff ff           calll    0x6fefb41

----------------
IN: 
0x06fefb41:  55                       pushl    %ebp
0x06fefb42:  57                       pushl    %edi
0x06fefb43:  56                       pushl    %esi
0x06fefb44:  53                       pushl    %ebx
0x06fefb45:  81 ec 14 04 00 00        subl     $0x414, %esp
0x06fefb4b:  b9 00 04 00 00           movl     $0x400, %ecx
0x06fefb50:  31 d2                    xorl     %edx, %edx
0x06fefb52:  8d 44 24 14              leal     0x14(%esp), %eax
0x06fefb56:  e8 ff a4 0f f9           calll    0xea05a

----------------
IN: 
0x06fefb5b:  31 d2                    xorl     %edx, %edx
0x06fefb5d:  31 c9                    xorl     %ecx, %ecx
0x06fefb5f:  b8 f2 03 0f 00           movl     $0xf03f2, %eax
0x06fefb64:  e8 f6 d7 ff ff           calll    0x6fed35f

----------------
IN: 
0x06fefb69:  89 44 24 0c              movl     %eax, 0xc(%esp)
0x06fefb6d:  31 ed                    xorl     %ebp, %ebp
0x06fefb6f:  83 3d ec 55 0f 00 00     cmpl     $0, 0xf55ec
0x06fefb76:  79 08                    jns      0x6fefb80

----------------
IN: 
0x06fefb80:  31 c0                    xorl     %eax, %eax
0x06fefb82:  89 04 24                 movl     %eax, (%esp)
0x06fefb85:  89 44 24 08              movl     %eax, 8(%esp)
0x06fefb89:  83 ce ff                 orl      $0xffffffff, %esi
0x06fefb8c:  c7 44 24 04 c0 fd ff 06  movl     $0x6fffdc0, 4(%esp)
0x06fefb94:  46                       incl     %esi
0x06fefb95:  89 f0                    movl     %esi, %eax
0x06fefb97:  c1 e0 08                 shll     $8, %eax
0x06fefb9a:  0f b7 c0                 movzwl   %ax, %eax
0x06fefb9d:  48                       decl     %eax
0x06fefb9e:  89 f2                    movl     %esi, %edx
0x06fefba0:  e8 ca b6 ff ff           calll    0x6feb26f

----------------
IN: 
0x06fefba5:  89 c7                    movl     %eax, %edi
0x06fefba7:  85 ff                    testl    %edi, %edi
0x06fefba9:  0f 88 09 01 00 00        js       0x6fefcb8

----------------
IN: 
0x06fefbaf:  b8 20 00 00 00           movl     $0x20, %eax
0x06fefbb4:  e8 46 e2 ff ff           calll    0x6feddff

----------------
IN: 
0x06fefbb9:  89 c3                    movl     %eax, %ebx
0x06fefbbb:  85 c0                    testl    %eax, %eax
0x06fefbbd:  75 19                    jne      0x6fefbd8

----------------
IN: 
0x06fefbd8:  b9 20 00 00 00           movl     $0x20, %ecx
0x06fefbdd:  31 d2                    xorl     %edx, %edx
0x06fefbdf:  e8 76 a4 0f f9           calll    0xea05a

----------------
IN: 
0x06fefbe4:  8d 40 04                 leal     4(%eax), %eax
0x06fefbe7:  89 44 24 10              movl     %eax, 0x10(%esp)
0x06fefbeb:  8b 54 24 04              movl     4(%esp), %edx
0x06fefbef:  e8 9b b5 ff ff           calll    0x6feb18f

----------------
IN: 
0x06fefbf4:  45                       incl     %ebp
0x06fefbf5:  8b 44 b4 14              movl     0x14(%esp, %esi, 4), %eax
0x06fefbf9:  85 c0                    testl    %eax, %eax
0x06fefbfb:  75 22                    jne      0x6fefc1f

----------------
IN: 
0x06fefbfd:  39 74 24 08              cmpl     %esi, 8(%esp)
0x06fefc01:  74 03                    je       0x6fefc06

----------------
IN: 
0x06fefc06:  39 35 ec 55 0f 00        cmpl     %esi, 0xf55ec
0x06fefc0c:  7c 09                    jl       0x6fefc17

----------------
IN: 
0x06fefc0e:  8b 14 24                 movl     (%esp), %edx
0x06fefc11:  89 74 24 08              movl     %esi, 8(%esp)
0x06fefc15:  eb 0c                    jmp      0x6fefc23

----------------
IN: 
0x06fefc23:  66 89 3b                 movw     %di, (%ebx)
0x06fefc26:  89 43 0c                 movl     %eax, 0xc(%ebx)
0x06fefc29:  88 53 02                 movb     %dl, 2(%ebx)
0x06fefc2c:  0f b7 c7                 movzwl   %di, %eax
0x06fefc2f:  89 44 24 04              movl     %eax, 4(%esp)
0x06fefc33:  31 d2                    xorl     %edx, %edx
0x06fefc35:  e8 9b 95 0f f9           calll    0xe91d5

----------------
IN: 
0x000e91d5:  8b 0d b8 4d 0f 00        movl     0xf4db8, %ecx
0x000e91db:  0f b7 c0                 movzwl   %ax, %eax
0x000e91de:  85 c9                    testl    %ecx, %ecx
0x000e91e0:  74 0a                    je       0xe91ec

----------------
IN: 
0x000e91ec:  c1 e0 08                 shll     $8, %eax
0x000e91ef:  81 e2 fc 00 00 00        andl     $0xfc, %edx
0x000e91f5:  09 d0                    orl      %edx, %eax
0x000e91f7:  0d 00 00 00 80           orl      $0x80000000, %eax
0x000e91fc:  ba f8 0c 00 00           movl     $0xcf8, %edx
0x000e9201:  ef                       outl     %eax, %dx

----------------
IN: 
0x000e9202:  ba fc 0c 00 00           movl     $0xcfc, %edx
0x000e9207:  ed                       inl      %dx, %eax

----------------
IN: 
0x000e9208:  c3                       retl     

----------------
IN: 
0x06fefc3a:  89 43 10                 movl     %eax, 0x10(%ebx)
0x06fefc3d:  ba 08 00 00 00           movl     $8, %edx
0x06fefc42:  0f b7 c7                 movzwl   %di, %eax
0x06fefc45:  e8 8b 95 0f f9           calll    0xe91d5

----------------
IN: 
0x06fefc4a:  89 c2                    movl     %eax, %edx
0x06fefc4c:  c1 ea 10                 shrl     $0x10, %edx
0x06fefc4f:  66 89 53 14              movw     %dx, 0x14(%ebx)
0x06fefc53:  86 e0                    xchgb    %ah, %al
0x06fefc55:  66 89 43 16              movw     %ax, 0x16(%ebx)
0x06fefc59:  ba 0e 00 00 00           movl     $0xe, %edx
0x06fefc5e:  0f b7 c7                 movzwl   %di, %eax
0x06fefc61:  e8 e1 95 0f f9           calll    0xe9247

----------------
IN: 
0x06fefc66:  88 43 18                 movb     %al, 0x18(%ebx)
0x06fefc69:  83 e0 7f                 andl     $0x7f, %eax
0x06fefc6c:  48                       decl     %eax
0x06fefc6d:  3c 01                    cmpb     $1, %al
0x06fefc6f:  77 2f                    ja       0x6fefca0

----------------
IN: 
0x06fefca0:  89 f2                    movl     %esi, %edx
0x06fefca2:  89 f8                    movl     %edi, %eax
0x06fefca4:  e8 c6 b5 ff ff           calll    0x6feb26f

----------------
IN: 
0x06fefca9:  89 c7                    movl     %eax, %edi
0x06fefcab:  8b 44 24 10              movl     0x10(%esp), %eax
0x06fefcaf:  89 44 24 04              movl     %eax, 4(%esp)
0x06fefcb3:  e9 ef fe ff ff           jmp      0x6fefba7

----------------
IN: 
0x06fefba7:  85 ff                    testl    %edi, %edi
0x06fefba9:  0f 88 09 01 00 00        js       0x6fefcb8

----------------
IN: 
0x06fefcb8:  a1 ec 55 0f 00           movl     0xf55ec, %eax
0x06fefcbd:  81 fe ff 00 00 00        cmpl     $0xff, %esi
0x06fefcc3:  74 15                    je       0x6fefcda

----------------
IN: 
0x06fefcc5:  8b 4c 24 0c              movl     0xc(%esp), %ecx
0x06fefcc9:  39 0c 24                 cmpl     %ecx, (%esp)
0x06fefccc:  0f 8c c2 fe ff ff        jl       0x6fefb94

----------------
IN: 
0x06fefcd2:  39 f0                    cmpl     %esi, %eax
0x06fefcd4:  0f 8f ba fe ff ff        jg       0x6fefb94

----------------
IN: 
0x06fefcda:  ff 35 ec 55 0f 00        pushl    0xf55ec
0x06fefce0:  55                       pushl    %ebp
0x06fefce1:  68 06 04 0f 00           pushl    $0xf0406
0x06fefce6:  e8 74 bf 0f f9           calll    0xebc5f

----------------
IN: 
0x06fefceb:  81 c4 20 04 00 00        addl     $0x420, %esp
0x06fefcf1:  5b                       popl     %ebx
0x06fefcf2:  5e                       popl     %esi
0x06fefcf3:  5f                       popl     %edi
0x06fefcf4:  5d                       popl     %ebp
0x06fefcf5:  c3                       retl     

----------------
IN: 
0x06fefdc0:  a1 10 ff ff 06           movl     0x6ffff10, %eax
0x06fefdc5:  a3 98 fd ff 06           movl     %eax, 0x6fffd98
0x06fefdca:  31 f6                    xorl     %esi, %esi
0x06fefdcc:  89 35 9c fd ff 06        movl     %esi, 0x6fffd9c
0x06fefdd2:  a1 c0 fd ff 06           movl     0x6fffdc0, %eax
0x06fefdd7:  8d 58 fc                 leal     -4(%eax), %ebx
0x06fefdda:  5f                       popl     %edi
0x06fefddb:  eb 1b                    jmp      0x6fefdf8

----------------
IN: 
0x06fefdf8:  83 fb fc                 cmpl     $-4, %ebx
0x06fefdfb:  74 16                    je       0x6fefe13

----------------
IN: 
0x06fefdfd:  31 c9                    xorl     %ecx, %ecx
0x06fefdff:  89 da                    movl     %ebx, %edx
0x06fefe01:  b8 20 f9 ff 06           movl     $0x6fff920, %eax
0x06fefe06:  e8 3d ba ff ff           calll    0x6feb848

----------------
IN: 
0x06feb848:  56                       pushl    %esi
0x06feb849:  53                       pushl    %ebx
0x06feb84a:  89 d3                    movl     %edx, %ebx
0x06feb84c:  8b 10                    movl     (%eax), %edx
0x06feb84e:  85 d2                    testl    %edx, %edx
0x06feb850:  74 3f                    je       0x6feb891

----------------
IN: 
0x06feb852:  83 fa ff                 cmpl     $-1, %edx
0x06feb855:  74 08                    je       0x6feb85f

----------------
IN: 
0x06feb857:  0f b7 73 10              movzwl   0x10(%ebx), %esi
0x06feb85b:  39 d6                    cmpl     %edx, %esi
0x06feb85d:  75 2d                    jne      0x6feb88c

----------------
IN: 
0x06feb85f:  8b 50 04                 movl     4(%eax), %edx
0x06feb862:  83 fa ff                 cmpl     $-1, %edx
0x06feb865:  74 08                    je       0x6feb86f

----------------
IN: 
0x06feb867:  0f b7 73 12              movzwl   0x12(%ebx), %esi
0x06feb86b:  39 f2                    cmpl     %esi, %edx
0x06feb86d:  75 1d                    jne      0x6feb88c

----------------
IN: 
0x06feb86f:  0f b7 53 14              movzwl   0x14(%ebx), %edx
0x06feb873:  33 50 08                 xorl     8(%eax), %edx
0x06feb876:  23 50 0c                 andl     0xc(%eax), %edx
0x06feb879:  75 11                    jne      0x6feb88c

----------------
IN: 
0x06feb87b:  8b 70 10                 movl     0x10(%eax), %esi
0x06feb87e:  85 f6                    testl    %esi, %esi
0x06feb880:  74 06                    je       0x6feb888

----------------
IN: 
0x06feb882:  89 ca                    movl     %ecx, %edx
0x06feb884:  89 d8                    movl     %ebx, %eax
0x06feb886:  ff d6                    calll    *%esi

----------------
IN: 
0x06feba16:  a1 10 ff ff 06           movl     0x6ffff10, %eax
0x06feba1b:  3d 00 00 00 80           cmpl     $0x80000000, %eax
0x06feba20:  77 0c                    ja       0x6feba2e

----------------
IN: 
0x06feba22:  c7 05 98 fd ff 06 00 00  movl     $0x80000000, 0x6fffd98
0x06feba2a:  00 80
0x06feba2c:  eb 11                    jmp      0x6feba3f

----------------
IN: 
0x06feba3f:  31 c0                    xorl     %eax, %eax
0x06feba41:  a3 9c fd ff 06           movl     %eax, 0x6fffd9c
0x06feba46:  c7 05 78 fd ff 06 81 b9  movl     $0x6feb981, 0x6fffd78
0x06feba4e:  fe 06
0x06feba50:  c3                       retl     

----------------
IN: 
0x06feb888:  31 c0                    xorl     %eax, %eax
0x06feb88a:  eb 0e                    jmp      0x6feb89a

----------------
IN: 
0x06feb89a:  5b                       popl     %ebx
0x06feb89b:  5e                       popl     %esi
0x06feb89c:  c3                       retl     

----------------
IN: 
0x06fefe0b:  8b 5b 04                 movl     4(%ebx), %ebx
0x06fefe0e:  83 eb 04                 subl     $4, %ebx
0x06fefe11:  eb e5                    jmp      0x6fefdf8

----------------
IN: 
0x06feb88c:  83 c0 14                 addl     $0x14, %eax
0x06feb88f:  eb bb                    jmp      0x6feb84c

----------------
IN: 
0x06feb84c:  8b 10                    movl     (%eax), %edx
0x06feb84e:  85 d2                    testl    %edx, %edx
0x06feb850:  74 3f                    je       0x6feb891

----------------
IN: 
0x06feb891:  83 78 0c 00              cmpl     $0, 0xc(%eax)
0x06feb895:  75 c0                    jne      0x6feb857

----------------
IN: 
0x06feb897:  83 c8 ff                 orl      $0xffffffff, %eax
0x06feb89a:  5b                       popl     %ebx
0x06feb89b:  5e                       popl     %esi
0x06feb89c:  c3                       retl     

----------------
IN: 
0x06fefe13:  68 86 04 0f 00           pushl    $0xf0486
0x06fefe18:  e8 42 be 0f f9           calll    0xebc5f

----------------
IN: 
0x06fefe1d:  a1 ec 55 0f 00           movl     0xf55ec, %eax
0x06fefe22:  40                       incl     %eax
0x06fefe23:  6b c0 28                 imull    $0x28, %eax, %eax
0x06fefe26:  e8 d4 df ff ff           calll    0x6feddff

----------------
IN: 
0x06fefe2b:  89 44 24 04              movl     %eax, 4(%esp)
0x06fefe2f:  5b                       popl     %ebx
0x06fefe30:  85 c0                    testl    %eax, %eax
0x06fefe32:  75 16                    jne      0x6fefe4a

----------------
IN: 
0x06fefe4a:  a1 ec 55 0f 00           movl     0xf55ec, %eax
0x06fefe4f:  8d 48 01                 leal     1(%eax), %ecx
0x06fefe52:  6b c9 28                 imull    $0x28, %ecx, %ecx
0x06fefe55:  31 d2                    xorl     %edx, %edx
0x06fefe57:  8b 04 24                 movl     (%esp), %eax
0x06fefe5a:  e8 fb a1 0f f9           calll    0xea05a

----------------
IN: 
0x06fefe5f:  68 aa 04 0f 00           pushl    $0xf04aa
0x06fefe64:  e8 f6 bd 0f f9           calll    0xebc5f

----------------
IN: 
0x06fefe69:  a1 c0 fd ff 06           movl     0x6fffdc0, %eax
0x06fefe6e:  8d 58 fc                 leal     -4(%eax), %ebx
0x06fefe71:  59                       popl     %ecx
0x06fefe72:  83 fb fc                 cmpl     $-4, %ebx
0x06fefe75:  0f 84 0b 02 00 00        je       0x6ff0086

----------------
IN: 
0x06fefe7b:  66 81 7b 14 04 06        cmpw     $0x604, 0x14(%ebx)
0x06fefe81:  75 0e                    jne      0x6fefe91

----------------
IN: 
0x06fefe91:  8b 03                    movl     (%ebx), %eax
0x06fefe93:  0f b6 c4                 movzbl   %ah, %eax
0x06fefe96:  6b c0 28                 imull    $0x28, %eax, %eax
0x06fefe99:  8b 3c 24                 movl     (%esp), %edi
0x06fefe9c:  01 f8                    addl     %edi, %eax
0x06fefe9e:  89 44 24 2c              movl     %eax, 0x2c(%esp)
0x06fefea2:  83 78 24 00              cmpl     $0, 0x24(%eax)
0x06fefea6:  75 04                    jne      0x6fefeac

----------------
IN: 
0x06fefea8:  89 7c 24 2c              movl     %edi, 0x2c(%esp)
0x06fefeac:  31 ed                    xorl     %ebp, %ebp
0x06fefeae:  66 81 7b 14 04 06        cmpw     $0x604, 0x14(%ebx)
0x06fefeb4:  75 0b                    jne      0x6fefec1

----------------
IN: 
0x06fefec1:  83 fd 06                 cmpl     $6, %ebp
0x06fefec4:  74 09                    je       0x6fefecf

----------------
IN: 
0x06fefec6:  8d 34 ad 10 00 00 00     leal     0x10(, %ebp, 4), %esi
0x06fefecd:  eb 15                    jmp      0x6fefee4

----------------
IN: 
0x06fefee4:  0f b7 03                 movzwl   (%ebx), %eax
0x06fefee7:  89 44 24 04              movl     %eax, 4(%esp)
0x06fefeeb:  89 f2                    movl     %esi, %edx
0x06fefeed:  e8 e3 92 0f f9           calll    0xe91d5

----------------
IN: 
0x06fefef2:  89 c7                    movl     %eax, %edi
0x06fefef4:  83 fd 06                 cmpl     $6, %ebp
0x06fefef7:  75 2e                    jne      0x6feff27

----------------
IN: 
0x06feff27:  a8 01                    testb    $1, %al
0x06feff29:  75 33                    jne      0x6feff5e

----------------
IN: 
0x06feff2b:  83 e0 08                 andl     $8, %eax
0x06feff2e:  83 f8 01                 cmpl     $1, %eax
0x06feff31:  19 c0                    sbbl     %eax, %eax
0x06feff33:  89 44 24 14              movl     %eax, 0x14(%esp)
0x06feff37:  83 44 24 14 02           addl     $2, 0x14(%esp)
0x06feff3c:  89 f8                    movl     %edi, %eax
0x06feff3e:  83 e0 06                 andl     $6, %eax
0x06feff41:  83 f8 04                 cmpl     $4, %eax
0x06feff44:  0f 94 c0                 sete     %al
0x06feff47:  0f b6 c0                 movzbl   %al, %eax
0x06feff4a:  89 44 24 0c              movl     %eax, 0xc(%esp)
0x06feff4e:  c7 44 24 24 f0 ff ff ff  movl     $0xfffffff0, 0x24(%esp)
0x06feff56:  31 c0                    xorl     %eax, %eax
0x06feff58:  89 44 24 28              movl     %eax, 0x28(%esp)
0x06feff5c:  eb 16                    jmp      0x6feff74

----------------
IN: 
0x06feff74:  83 c9 ff                 orl      $0xffffffff, %ecx
0x06feff77:  89 f2                    movl     %esi, %edx
0x06feff79:  8b 44 24 04              movl     4(%esp), %eax
0x06feff7d:  e8 8c 91 0f f9           calll    0xe910e

----------------
IN: 
0x000e910e:  56                       pushl    %esi
0x000e910f:  53                       pushl    %ebx
0x000e9110:  89 d3                    movl     %edx, %ebx
0x000e9112:  8b 35 b8 4d 0f 00        movl     0xf4db8, %esi
0x000e9118:  0f b7 d0                 movzwl   %ax, %edx
0x000e911b:  85 f6                    testl    %esi, %esi
0x000e911d:  74 0b                    je       0xe912a

----------------
IN: 
0x000e912a:  89 d0                    movl     %edx, %eax
0x000e912c:  c1 e0 08                 shll     $8, %eax
0x000e912f:  81 e3 fc 00 00 00        andl     $0xfc, %ebx
0x000e9135:  09 d8                    orl      %ebx, %eax
0x000e9137:  0d 00 00 00 80           orl      $0x80000000, %eax
0x000e913c:  ba f8 0c 00 00           movl     $0xcf8, %edx
0x000e9141:  ef                       outl     %eax, %dx

----------------
IN: 
0x000e9142:  ba fc 0c 00 00           movl     $0xcfc, %edx
0x000e9147:  89 c8                    movl     %ecx, %eax
0x000e9149:  ef                       outl     %eax, %dx

----------------
IN: 
0x000e914a:  5b                       popl     %ebx
0x000e914b:  5e                       popl     %esi
0x000e914c:  c3                       retl     

----------------
IN: 
0x06feff82:  89 f2                    movl     %esi, %edx
0x06feff84:  8b 44 24 04              movl     4(%esp), %eax
0x06feff88:  e8 48 92 0f f9           calll    0xe91d5

----------------
IN: 
0x06feff8d:  89 44 24 34              movl     %eax, 0x34(%esp)
0x06feff91:  31 c0                    xorl     %eax, %eax
0x06feff93:  89 44 24 38              movl     %eax, 0x38(%esp)
0x06feff97:  89 f9                    movl     %edi, %ecx
0x06feff99:  89 f2                    movl     %esi, %edx
0x06feff9b:  8b 44 24 04              movl     4(%esp), %eax
0x06feff9f:  e8 6a 91 0f f9           calll    0xe910e

----------------
IN: 
0x06feffa4:  83 7c 24 0c 00           cmpl     $0, 0xc(%esp)
0x06feffa9:  74 68                    je       0x6ff0013

----------------
IN: 
0x06ff0013:  8b 44 24 34              movl     0x34(%esp), %eax
0x06ff0017:  23 44 24 24              andl     0x24(%esp), %eax
0x06ff001b:  f7 d8                    negl     %eax
0x06ff001d:  31 d2                    xorl     %edx, %edx
0x06ff001f:  85 d2                    testl    %edx, %edx
0x06ff0021:  75 04                    jne      0x6ff0027

----------------
IN: 
0x06ff0023:  85 c0                    testl    %eax, %eax
0x06ff0025:  74 4a                    je       0x6ff0071

----------------
IN: 
0x06ff0071:  45                       incl     %ebp
0x06ff0072:  83 fd 06                 cmpl     $6, %ebp
0x06ff0075:  0f 8e 33 fe ff ff        jle      0x6fefeae

----------------
IN: 
0x06fefeae:  66 81 7b 14 04 06        cmpw     $0x604, 0x14(%ebx)
0x06fefeb4:  75 0b                    jne      0x6fefec1

----------------
IN: 
0x06fefecf:  8a 43 18                 movb     0x18(%ebx), %al
0x06fefed2:  83 e0 7f                 andl     $0x7f, %eax
0x06fefed5:  fe c8                    decb     %al
0x06fefed7:  0f 94 c0                 sete     %al
0x06fefeda:  0f b6 c0                 movzbl   %al, %eax
0x06fefedd:  8d 34 c5 30 00 00 00     leal     0x30(, %eax, 8), %esi
0x06fefee4:  0f b7 03                 movzwl   (%ebx), %eax
0x06fefee7:  89 44 24 04              movl     %eax, 4(%esp)
0x06fefeeb:  89 f2                    movl     %esi, %edx
0x06fefeed:  e8 e3 92 0f f9           calll    0xe91d5

----------------
IN: 
0x06fefef9:  b9 00 f8 ff ff           movl     $0xfffff800, %ecx
0x06fefefe:  89 f2                    movl     %esi, %edx
0x06feff00:  8b 44 24 04              movl     4(%esp), %eax
0x06feff04:  e8 05 92 0f f9           calll    0xe910e

----------------
IN: 
0x06feff09:  c7 44 24 24 00 f8 ff ff  movl     $0xfffff800, 0x24(%esp)
0x06feff11:  31 c0                    xorl     %eax, %eax
0x06feff13:  89 44 24 28              movl     %eax, 0x28(%esp)
0x06feff17:  c7 44 24 14 01 00 00 00  movl     $1, 0x14(%esp)
0x06feff1f:  31 d2                    xorl     %edx, %edx
0x06feff21:  89 54 24 0c              movl     %edx, 0xc(%esp)
0x06feff25:  eb 5b                    jmp      0x6feff82

----------------
IN: 
0x06ff007b:  8b 5b 04                 movl     4(%ebx), %ebx
0x06ff007e:  83 eb 04                 subl     $4, %ebx
0x06ff0081:  e9 ec fd ff ff           jmp      0x6fefe72

----------------
IN: 
0x06fefe72:  83 fb fc                 cmpl     $-4, %ebx
0x06fefe75:  0f 84 0b 02 00 00        je       0x6ff0086

----------------
IN: 
0x06feff5e:  c7 44 24 24 fc ff ff ff  movl     $0xfffffffc, 0x24(%esp)
0x06feff66:  31 c0                    xorl     %eax, %eax
0x06feff68:  89 44 24 28              movl     %eax, 0x28(%esp)
0x06feff6c:  89 44 24 14              movl     %eax, 0x14(%esp)
0x06feff70:  89 44 24 0c              movl     %eax, 0xc(%esp)
0x06feff74:  83 c9 ff                 orl      $0xffffffff, %ecx
0x06feff77:  89 f2                    movl     %esi, %edx
0x06feff79:  8b 44 24 04              movl     4(%esp), %eax
0x06feff7d:  e8 8c 91 0f f9           calll    0xe910e

----------------
IN: 
0x06ff0027:  b9 ff 0f 00 00           movl     $0xfff, %ecx
0x06ff002c:  39 c1                    cmpl     %eax, %ecx
0x06ff002e:  b9 00 00 00 00           movl     $0, %ecx
0x06ff0033:  19 d1                    sbbl     %edx, %ecx
0x06ff0035:  72 0e                    jb       0x6ff0045

----------------
IN: 
0x06ff0037:  83 7c 24 14 00           cmpl     $0, 0x14(%esp)
0x06ff003c:  74 07                    je       0x6ff0045

----------------
IN: 
0x06ff0045:  ff 74 24 0c              pushl    0xc(%esp)
0x06ff0049:  ff 74 24 18              pushl    0x18(%esp)
0x06ff004d:  52                       pushl    %edx
0x06ff004e:  50                       pushl    %eax
0x06ff004f:  52                       pushl    %edx
0x06ff0050:  50                       pushl    %eax
0x06ff0051:  89 e9                    movl     %ebp, %ecx
0x06ff0053:  89 da                    movl     %ebx, %edx
0x06ff0055:  8b 44 24 44              movl     0x44(%esp), %eax
0x06ff0059:  e8 77 e0 ff ff           calll    0x6fee0d5

----------------
IN: 
0x06fee0d5:  55                       pushl    %ebp
0x06fee0d6:  57                       pushl    %edi
0x06fee0d7:  56                       pushl    %esi
0x06fee0d8:  53                       pushl    %ebx
0x06fee0d9:  83 ec 10                 subl     $0x10, %esp
0x06fee0dc:  89 c6                    movl     %eax, %esi
0x06fee0de:  89 14 24                 movl     %edx, (%esp)
0x06fee0e1:  89 4c 24 0c              movl     %ecx, 0xc(%esp)
0x06fee0e5:  8b 44 24 24              movl     0x24(%esp), %eax
0x06fee0e9:  89 44 24 04              movl     %eax, 4(%esp)
0x06fee0ed:  8b 44 24 28              movl     0x28(%esp), %eax
0x06fee0f1:  89 44 24 08              movl     %eax, 8(%esp)
0x06fee0f5:  8b 7c 24 2c              movl     0x2c(%esp), %edi
0x06fee0f9:  8b 6c 24 30              movl     0x30(%esp), %ebp
0x06fee0fd:  b8 28 00 00 00           movl     $0x28, %eax
0x06fee102:  e8 f8 fc ff ff           calll    0x6feddff

----------------
IN: 
0x06fee107:  89 c3                    movl     %eax, %ebx
0x06fee109:  85 c0                    testl    %eax, %eax
0x06fee10b:  75 14                    jne      0x6fee121

----------------
IN: 
0x06fee121:  b9 28 00 00 00           movl     $0x28, %ecx
0x06fee126:  31 d2                    xorl     %edx, %edx
0x06fee128:  e8 2d bf 0f f9           calll    0xea05a

----------------
IN: 
0x06fee12d:  8b 04 24                 movl     (%esp), %eax
0x06fee130:  89 03                    movl     %eax, (%ebx)
0x06fee132:  8b 44 24 0c              movl     0xc(%esp), %eax
0x06fee136:  89 43 04                 movl     %eax, 4(%ebx)
0x06fee139:  8b 44 24 04              movl     4(%esp), %eax
0x06fee13d:  89 43 08                 movl     %eax, 8(%ebx)
0x06fee140:  8b 44 24 08              movl     8(%esp), %eax
0x06fee144:  89 43 0c                 movl     %eax, 0xc(%ebx)
0x06fee147:  89 7b 10                 movl     %edi, 0x10(%ebx)
0x06fee14a:  89 6b 14                 movl     %ebp, 0x14(%ebx)
0x06fee14d:  8b 44 24 38              movl     0x38(%esp), %eax
0x06fee151:  89 43 18                 movl     %eax, 0x18(%ebx)
0x06fee154:  8b 44 24 34              movl     0x34(%esp), %eax
0x06fee158:  89 43 1c                 movl     %eax, 0x1c(%ebx)
0x06fee15b:  6b c0 0c                 imull    $0xc, %eax, %eax
0x06fee15e:  8d 54 06 08              leal     8(%esi, %eax), %edx
0x06fee162:  89 14 24                 movl     %edx, (%esp)
0x06fee165:  8b 44 06 08              movl     8(%esi, %eax), %eax
0x06fee169:  85 c0                    testl    %eax, %eax
0x06fee16b:  74 2d                    je       0x6fee19a

----------------
IN: 
0x06fee19a:  8d 43 20                 leal     0x20(%ebx), %eax
0x06fee19d:  8b 14 24                 movl     (%esp), %edx
0x06fee1a0:  e8 ea cf ff ff           calll    0x6feb18f

----------------
IN: 
0x06fee1a5:  89 d8                    movl     %ebx, %eax
0x06fee1a7:  83 c4 10                 addl     $0x10, %esp
0x06fee1aa:  5b                       popl     %ebx
0x06fee1ab:  5e                       popl     %esi
0x06fee1ac:  5f                       popl     %edi
0x06fee1ad:  5d                       popl     %ebp
0x06fee1ae:  c3                       retl     

----------------
IN: 
0x06ff005e:  83 c4 18                 addl     $0x18, %esp
0x06ff0061:  85 c0                    testl    %eax, %eax
0x06ff0063:  0f 84 06 09 00 00        je       0x6ff096f

----------------
IN: 
0x06ff0069:  83 7c 24 0c 01           cmpl     $1, 0xc(%esp)
0x06ff006e:  83 dd ff                 sbbl     $-1, %ebp
0x06ff0071:  45                       incl     %ebp
0x06ff0072:  83 fd 06                 cmpl     $6, %ebp
0x06ff0075:  0f 8e 33 fe ff ff        jle      0x6fefeae

----------------
IN: 
0x06fee16d:  8b 70 f0                 movl     -0x10(%eax), %esi
0x06fee170:  8b 48 f4                 movl     -0xc(%eax), %ecx
0x06fee173:  39 fe                    cmpl     %edi, %esi
0x06fee175:  89 ca                    movl     %ecx, %edx
0x06fee177:  19 ea                    sbbl     %ebp, %edx
0x06fee179:  72 1f                    jb       0x6fee19a

----------------
IN: 
0x06ff0086:  a1 ec 55 0f 00           movl     0xf55ec, %eax
0x06ff008b:  89 44 24 2c              movl     %eax, 0x2c(%esp)
0x06ff008f:  6b c0 28                 imull    $0x28, %eax, %eax
0x06ff0092:  8b 3c 24                 movl     (%esp), %edi
0x06ff0095:  8d 2c 07                 leal     (%edi, %eax), %ebp
0x06ff0098:  83 7c 24 2c 00           cmpl     $0, 0x2c(%esp)
0x06ff009d:  0f 8e c9 03 00 00        jle      0x6ff046c

----------------
IN: 
0x06ff046c:  68 54 05 0f 00           pushl    $0xf0554
0x06ff0471:  e8 e9 b7 0f f9           calll    0xebc5f

----------------
IN: 
0x06ff0476:  8b 44 24 04              movl     4(%esp), %eax
0x06ff047a:  e8 e8 b5 ff ff           calll    0x6feba67

----------------
IN: 
0x06feba67:  55                       pushl    %ebp
0x06feba68:  89 e5                    movl     %esp, %ebp
0x06feba6a:  53                       pushl    %ebx
0x06feba6b:  8b 50 08                 movl     8(%eax), %edx
0x06feba6e:  83 ea 20                 subl     $0x20, %edx
0x06feba71:  31 c9                    xorl     %ecx, %ecx
0x06feba73:  31 db                    xorl     %ebx, %ebx
0x06feba75:  83 fa e0                 cmpl     $-0x20, %edx
0x06feba78:  74 0e                    je       0x6feba88

----------------
IN: 
0x06feba7a:  03 4a 08                 addl     8(%edx), %ecx
0x06feba7d:  13 5a 0c                 adcl     0xc(%edx), %ebx
0x06feba80:  8b 52 20                 movl     0x20(%edx), %edx
0x06feba83:  83 ea 20                 subl     $0x20, %edx
0x06feba86:  eb ed                    jmp      0x6feba75

----------------
IN: 
0x06feba75:  83 fa e0                 cmpl     $-0x20, %edx
0x06feba78:  74 0e                    je       0x6feba88

----------------
IN: 
0x06feba88:  89 c8                    movl     %ecx, %eax
0x06feba8a:  89 da                    movl     %ebx, %edx
0x06feba8c:  5b                       popl     %ebx
0x06feba8d:  5d                       popl     %ebp
0x06feba8e:  c3                       retl     

----------------
IN: 
0x06ff047f:  59                       popl     %ecx
0x06ff0480:  b9 ff 3f 00 00           movl     $0x3fff, %ecx
0x06ff0485:  39 c1                    cmpl     %eax, %ecx
0x06ff0487:  b9 00 00 00 00           movl     $0, %ecx
0x06ff048c:  19 d1                    sbbl     %edx, %ecx
0x06ff048e:  73 27                    jae      0x6ff04b7

----------------
IN: 
0x06ff04b7:  b9 00 c0 00 00           movl     $0xc000, %ecx
0x06ff04bc:  31 db                    xorl     %ebx, %ebx
0x06ff04be:  8b 3c 24                 movl     (%esp), %edi
0x06ff04c1:  89 0f                    movl     %ecx, (%edi)
0x06ff04c3:  89 5f 04                 movl     %ebx, 4(%edi)
0x06ff04c6:  89 ce                    movl     %ecx, %esi
0x06ff04c8:  89 df                    movl     %ebx, %edi
0x06ff04ca:  83 c6 ff                 addl     $-1, %esi
0x06ff04cd:  83 d7 ff                 adcl     $-1, %edi
0x06ff04d0:  01 c6                    addl     %eax, %esi
0x06ff04d2:  11 d7                    adcl     %edx, %edi
0x06ff04d4:  57                       pushl    %edi
0x06ff04d5:  56                       pushl    %esi
0x06ff04d6:  53                       pushl    %ebx
0x06ff04d7:  51                       pushl    %ecx
0x06ff04d8:  68 78 05 0f 00           pushl    $0xf0578
0x06ff04dd:  e8 7d b7 0f f9           calll    0xebc5f

----------------
IN: 
0x06ff04e2:  6a 00                    pushl    $0
0x06ff04e4:  68 00 00 c0 fe           pushl    $0xfec00000
0x06ff04e9:  ff 35 9c fd ff 06        pushl    0x6fffd9c
0x06ff04ef:  ff 35 98 fd ff 06        pushl    0x6fffd98
0x06ff04f5:  68 90 05 0f 00           pushl    $0xf0590
0x06ff04fa:  e8 60 b7 0f f9           calll    0xebc5f

----------------
IN: 
0x06ff04ff:  83 c4 28                 addl     $0x28, %esp
0x06ff0502:  83 3d e8 fe ff 06 00     cmpl     $0, 0x6fffee8
0x06ff0509:  74 44                    je       0x6ff054f

----------------
IN: 
0x06ff054f:  8b 04 24                 movl     (%esp), %eax
0x06ff0552:  e8 7c b5 ff ff           calll    0x6febad3

----------------
IN: 
0x06febad3:  55                       pushl    %ebp
0x06febad4:  57                       pushl    %edi
0x06febad5:  56                       pushl    %esi
0x06febad6:  53                       pushl    %ebx
0x06febad7:  51                       pushl    %ecx
0x06febad8:  8d 68 18                 leal     0x18(%eax), %ebp
0x06febadb:  83 c0 0c                 addl     $0xc, %eax
0x06febade:  89 04 24                 movl     %eax, (%esp)
0x06febae1:  e8 6b ff ff ff           calll    0x6feba51

----------------
IN: 
0x06feba51:  8b 40 08                 movl     8(%eax), %eax
0x06feba54:  85 c0                    testl    %eax, %eax
0x06feba56:  74 07                    je       0x6feba5f

----------------
IN: 
0x06feba58:  8b 50 f4                 movl     -0xc(%eax), %edx
0x06feba5b:  8b 40 f0                 movl     -0x10(%eax), %eax
0x06feba5e:  c3                       retl     

----------------
IN: 
0x06febae6:  89 c6                    movl     %eax, %esi
0x06febae8:  89 d1                    movl     %edx, %ecx
0x06febaea:  89 e8                    movl     %ebp, %eax
0x06febaec:  e8 60 ff ff ff           calll    0x6feba51

----------------
IN: 
0x06febaf1:  39 c6                    cmpl     %eax, %esi
0x06febaf3:  19 d1                    sbbl     %edx, %ecx
0x06febaf5:  72 08                    jb       0x6febaff

----------------
IN: 
0x06febaff:  8b 04 24                 movl     (%esp), %eax
0x06febb02:  e8 60 ff ff ff           calll    0x6feba67

----------------
IN: 
0x06febb07:  89 c1                    movl     %eax, %ecx
0x06febb09:  89 d3                    movl     %edx, %ebx
0x06febb0b:  8b 04 24                 movl     (%esp), %eax
0x06febb0e:  e8 3e ff ff ff           calll    0x6feba51

----------------
IN: 
0x06febb13:  89 c6                    movl     %eax, %esi
0x06febb15:  89 d7                    movl     %edx, %edi
0x06febb17:  b8 00 00 c0 fe           movl     $0xfec00000, %eax
0x06febb1c:  31 d2                    xorl     %edx, %edx
0x06febb1e:  29 c8                    subl     %ecx, %eax
0x06febb20:  19 da                    sbbl     %ebx, %edx
0x06febb22:  f7 de                    negl     %esi
0x06febb24:  83 d7 00                 adcl     $0, %edi
0x06febb27:  f7 df                    negl     %edi
0x06febb29:  21 c6                    andl     %eax, %esi
0x06febb2b:  21 d7                    andl     %edx, %edi
0x06febb2d:  8b 04 24                 movl     (%esp), %eax
0x06febb30:  89 30                    movl     %esi, (%eax)
0x06febb32:  89 78 04                 movl     %edi, 4(%eax)
0x06febb35:  89 e8                    movl     %ebp, %eax
0x06febb37:  e8 2b ff ff ff           calll    0x6feba67

----------------
IN: 
0x06febb3c:  89 c1                    movl     %eax, %ecx
0x06febb3e:  89 d3                    movl     %edx, %ebx
0x06febb40:  89 e8                    movl     %ebp, %eax
0x06febb42:  e8 0a ff ff ff           calll    0x6feba51

----------------
IN: 
0x06febb47:  29 ce                    subl     %ecx, %esi
0x06febb49:  19 df                    sbbl     %ebx, %edi
0x06febb4b:  f7 d8                    negl     %eax
0x06febb4d:  83 d2 00                 adcl     $0, %edx
0x06febb50:  f7 da                    negl     %edx
0x06febb52:  21 c6                    andl     %eax, %esi
0x06febb54:  21 d7                    andl     %edx, %edi
0x06febb56:  89 75 00                 movl     %esi, (%ebp)
0x06febb59:  89 7d 04                 movl     %edi, 4(%ebp)
0x06febb5c:  3b 35 98 fd ff 06        cmpl     0x6fffd98, %esi
0x06febb62:  89 f8                    movl     %edi, %eax
0x06febb64:  1b 05 9c fd ff 06        sbbl     0x6fffd9c, %eax
0x06febb6a:  0f 92 c1                 setb     %cl
0x06febb6d:  bb 00 00 c0 fe           movl     $0xfec00000, %ebx
0x06febb72:  31 c0                    xorl     %eax, %eax
0x06febb74:  39 f3                    cmpl     %esi, %ebx
0x06febb76:  19 f8                    sbbl     %edi, %eax
0x06febb78:  0f 92 c0                 setb     %al
0x06febb7b:  09 c8                    orl      %ecx, %eax
0x06febb7d:  0f b6 c0                 movzbl   %al, %eax
0x06febb80:  f7 d8                    negl     %eax
0x06febb82:  5a                       popl     %edx
0x06febb83:  5b                       popl     %ebx
0x06febb84:  5e                       popl     %esi
0x06febb85:  5f                       popl     %edi
0x06febb86:  5d                       popl     %ebp
0x06febb87:  c3                       retl     

----------------
IN: 
0x06ff0557:  85 c0                    testl    %eax, %eax
0x06ff0559:  75 b0                    jne      0x6ff050b

----------------
IN: 
0x06ff055b:  31 ff                    xorl     %edi, %edi
0x06ff055d:  89 3d 90 fd ff 06        movl     %edi, 0x6fffd90
0x06ff0563:  89 3d 94 fd ff 06        movl     %edi, 0x6fffd94
0x06ff0569:  e9 8d 02 00 00           jmp      0x6ff07fb

----------------
IN: 
0x06ff07fb:  8b 1c 24                 movl     (%esp), %ebx
0x06ff07fe:  31 f6                    xorl     %esi, %esi
0x06ff0800:  3b 35 ec 55 0f 00        cmpl     0xf55ec, %esi
0x06ff0806:  7f 26                    jg       0x6ff082e

----------------
IN: 
0x06ff0808:  89 da                    movl     %ebx, %edx
0x06ff080a:  8b 04 24                 movl     (%esp), %eax
0x06ff080d:  e8 68 ed ff ff           calll    0x6fef57a

----------------
IN: 
0x06fef57a:  55                       pushl    %ebp
0x06fef57b:  57                       pushl    %edi
0x06fef57c:  56                       pushl    %esi
0x06fef57d:  53                       pushl    %ebx
0x06fef57e:  83 ec 1c                 subl     $0x1c, %esp
0x06fef581:  89 44 24 18              movl     %eax, 0x18(%esp)
0x06fef585:  89 54 24 10              movl     %edx, 0x10(%esp)
0x06fef589:  8b 42 08                 movl     8(%edx), %eax
0x06fef58c:  8d 58 e0                 leal     -0x20(%eax), %ebx
0x06fef58f:  83 fb e0                 cmpl     $-0x20, %ebx
0x06fef592:  0f 84 d7 01 00 00        je       0x6fef76f

----------------
IN: 
0x06fef598:  8b 43 20                 movl     0x20(%ebx), %eax
0x06fef59b:  89 44 24 14              movl     %eax, 0x14(%esp)
0x06fef59f:  8b 44 24 10              movl     0x10(%esp), %eax
0x06fef5a3:  8b 50 04                 movl     4(%eax), %edx
0x06fef5a6:  8b 00                    movl     (%eax), %eax
0x06fef5a8:  89 04 24                 movl     %eax, (%esp)
0x06fef5ab:  89 54 24 04              movl     %edx, 4(%esp)
0x06fef5af:  8b 73 08                 movl     8(%ebx), %esi
0x06fef5b2:  8b 7b 0c                 movl     0xc(%ebx), %edi
0x06fef5b5:  01 f0                    addl     %esi, %eax
0x06fef5b7:  11 fa                    adcl     %edi, %edx
0x06fef5b9:  89 44 24 08              movl     %eax, 8(%esp)
0x06fef5bd:  89 54 24 0c              movl     %edx, 0xc(%esp)
0x06fef5c1:  8b 4c 24 10              movl     0x10(%esp), %ecx
0x06fef5c5:  89 01                    movl     %eax, (%ecx)
0x06fef5c7:  89 51 04                 movl     %edx, 4(%ecx)
0x06fef5ca:  8b 4b 04                 movl     4(%ebx), %ecx
0x06fef5cd:  8b 53 1c                 movl     0x1c(%ebx), %edx
0x06fef5d0:  8b 03                    movl     (%ebx), %eax
0x06fef5d2:  83 f9 ff                 cmpl     $-1, %ecx
0x06fef5d5:  75 20                    jne      0x6fef5f7

----------------
IN: 
0x06fef5f7:  85 c9                    testl    %ecx, %ecx
0x06fef5f9:  78 3d                    js       0x6fef638

----------------
IN: 
0x06fef5fb:  ff 34 95 7c fa ff 06     pushl    0x6fffa7c(, %edx, 4)
0x06fef602:  57                       pushl    %edi
0x06fef603:  56                       pushl    %esi
0x06fef604:  ff 74 24 10              pushl    0x10(%esp)
0x06fef608:  ff 74 24 10              pushl    0x10(%esp)
0x06fef60c:  51                       pushl    %ecx
0x06fef60d:  50                       pushl    %eax
0x06fef60e:  68 24 02 0f 00           pushl    $0xf0224
0x06fef613:  e8 47 c6 0f f9           calll    0xebc5f

----------------
IN: 
0x000eb518:  46                       incl     %esi
0x000eb519:  8b 13                    movl     (%ebx), %edx
0x000eb51b:  0f b6 d6                 movzbl   %dh, %edx
0x000eb51e:  6a 00                    pushl    $0
0x000eb520:  b9 02 00 00 00           movl     $2, %ecx
0x000eb525:  8b 44 24 04              movl     4(%esp), %eax
0x000eb529:  e8 a0 da ff ff           calll    0xe8fce

----------------
IN: 
0x000eb52e:  ba 3a 00 00 00           movl     $0x3a, %edx
0x000eb533:  8b 44 24 04              movl     4(%esp), %eax
0x000eb537:  e8 1f da ff ff           calll    0xe8f5b

----------------
IN: 
0x000eb53c:  8a 13                    movb     (%ebx), %dl
0x000eb53e:  c0 ea 03                 shrb     $3, %dl
0x000eb541:  0f b6 d2                 movzbl   %dl, %edx
0x000eb544:  6a 00                    pushl    $0
0x000eb546:  b9 02 00 00 00           movl     $2, %ecx
0x000eb54b:  8b 44 24 08              movl     8(%esp), %eax
0x000eb54f:  e8 7a da ff ff           calll    0xe8fce

----------------
IN: 
0x000eb554:  ba 2e 00 00 00           movl     $0x2e, %edx
0x000eb559:  8b 44 24 08              movl     8(%esp), %eax
0x000eb55d:  e8 f9 d9 ff ff           calll    0xe8f5b

----------------
IN: 
0x000eb562:  8b 13                    movl     (%ebx), %edx
0x000eb564:  83 e2 07                 andl     $7, %edx
0x000eb567:  31 c9                    xorl     %ecx, %ecx
0x000eb569:  8b 44 24 08              movl     8(%esp), %eax
0x000eb56d:  e8 3c da ff ff           calll    0xe8fae

----------------
IN: 
0x000eb572:  e9 8d 00 00 00           jmp      0xeb604

----------------
IN: 
0x06fef618:  83 c4 20                 addl     $0x20, %esp
0x06fef61b:  8b 53 04                 movl     4(%ebx), %edx
0x06fef61e:  ff 73 18                 pushl    0x18(%ebx)
0x06fef621:  ff 74 24 08              pushl    8(%esp)
0x06fef625:  ff 74 24 08              pushl    8(%esp)
0x06fef629:  8b 03                    movl     (%ebx), %eax
0x06fef62b:  e8 61 d2 ff ff           calll    0x6fec891

----------------
IN: 
0x06fec891:  55                       pushl    %ebp
0x06fec892:  57                       pushl    %edi
0x06fec893:  56                       pushl    %esi
0x06fec894:  53                       pushl    %ebx
0x06fec895:  89 c6                    movl     %eax, %esi
0x06fec897:  8b 4c 24 14              movl     0x14(%esp), %ecx
0x06fec89b:  8b 7c 24 18              movl     0x18(%esp), %edi
0x06fec89f:  8b 6c 24 1c              movl     0x1c(%esp), %ebp
0x06fec8a3:  83 fa 06                 cmpl     $6, %edx
0x06fec8a6:  74 09                    je       0x6fec8b1

----------------
IN: 
0x06fec8a8:  8d 1c 95 10 00 00 00     leal     0x10(, %edx, 4), %ebx
0x06fec8af:  eb 14                    jmp      0x6fec8c5

----------------
IN: 
0x06fec8c5:  0f b7 06                 movzwl   (%esi), %eax
0x06fec8c8:  89 da                    movl     %ebx, %edx
0x06fec8ca:  e8 3f c8 0f f9           calll    0xe910e

----------------
IN: 
0x06fec8cf:  85 ed                    testl    %ebp, %ebp
0x06fec8d1:  74 11                    je       0x6fec8e4

----------------
IN: 
0x06fec8e4:  5b                       popl     %ebx
0x06fec8e5:  5e                       popl     %esi
0x06fec8e6:  5f                       popl     %edi
0x06fec8e7:  5d                       popl     %ebp
0x06fec8e8:  c3                       retl     

----------------
IN: 
0x06fef630:  83 c4 0c                 addl     $0xc, %esp
0x06fef633:  e9 1c 01 00 00           jmp      0x6fef754

----------------
IN: 
0x06fef754:  8d 43 20                 leal     0x20(%ebx), %eax
0x06fef757:  e8 24 ba ff ff           calll    0x6feb180

----------------
IN: 
0x06feb180:  8b 10                    movl     (%eax), %edx
0x06feb182:  8b 40 04                 movl     4(%eax), %eax
0x06feb185:  89 10                    movl     %edx, (%eax)
0x06feb187:  85 d2                    testl    %edx, %edx
0x06feb189:  74 03                    je       0x6feb18e

----------------
IN: 
0x06feb18b:  89 42 04                 movl     %eax, 4(%edx)
0x06feb18e:  c3                       retl     

----------------
IN: 
0x06fef75c:  89 d8                    movl     %ebx, %eax
0x06fef75e:  e8 29 df ff ff           calll    0x6fed68c

----------------
IN: 
0x06fed68c:  85 c0                    testl    %eax, %eax
0x06fed68e:  74 18                    je       0x6fed6a8

----------------
IN: 
0x06fed690:  e8 61 de ff ff           calll    0x6feb4f6

----------------
IN: 
0x06feb4f6:  56                       pushl    %esi
0x06feb4f7:  53                       pushl    %ebx
0x06feb4f8:  89 c6                    movl     %eax, %esi
0x06feb4fa:  e8 d9 ff ff ff           calll    0x6feb4d8

----------------
IN: 
0x06feb4d8:  89 c1                    movl     %eax, %ecx
0x06feb4da:  31 d2                    xorl     %edx, %edx
0x06feb4dc:  8b 04 95 44 fe ff 06     movl     0x6fffe44(, %edx, 4), %eax
0x06feb4e3:  8b 00                    movl     (%eax), %eax
0x06feb4e5:  85 c0                    testl    %eax, %eax
0x06feb4e7:  74 06                    je       0x6feb4ef

----------------
IN: 
0x06feb4e9:  39 48 08                 cmpl     %ecx, 8(%eax)
0x06feb4ec:  75 f5                    jne      0x6feb4e3

----------------
IN: 
0x06feb4e3:  8b 00                    movl     (%eax), %eax
0x06feb4e5:  85 c0                    testl    %eax, %eax
0x06feb4e7:  74 06                    je       0x6feb4ef

----------------
IN: 
0x06feb4ef:  42                       incl     %edx
0x06feb4f0:  83 fa 05                 cmpl     $5, %edx
0x06feb4f3:  75 e7                    jne      0x6feb4dc

----------------
IN: 
0x06feb4dc:  8b 04 95 44 fe ff 06     movl     0x6fffe44(, %edx, 4), %eax
0x06feb4e3:  8b 00                    movl     (%eax), %eax
0x06feb4e5:  85 c0                    testl    %eax, %eax
0x06feb4e7:  74 06                    je       0x6feb4ef

----------------
IN: 
0x06feb4ee:  c3                       retl     

----------------
IN: 
0x06feb4ff:  85 c0                    testl    %eax, %eax
0x06feb501:  74 22                    je       0x6feb525

----------------
IN: 
0x06feb503:  89 c3                    movl     %eax, %ebx
0x06feb505:  83 c8 ff                 orl      $0xffffffff, %eax
0x06feb508:  39 f3                    cmpl     %esi, %ebx
0x06feb50a:  74 1c                    je       0x6feb528

----------------
IN: 
0x06feb50c:  83 7b 10 00              cmpl     $0, 0x10(%ebx)
0x06feb510:  74 16                    je       0x6feb528

----------------
IN: 
0x06feb512:  89 d8                    movl     %ebx, %eax
0x06feb514:  e8 a6 ff ff ff           calll    0x6feb4bf

----------------
IN: 
0x06feb4bf:  8b 10                    movl     (%eax), %edx
0x06feb4c1:  85 d2                    testl    %edx, %edx
0x06feb4c3:  74 0e                    je       0x6feb4d3

----------------
IN: 
0x06feb4c5:  8b 48 08                 movl     8(%eax), %ecx
0x06feb4c8:  39 4a 0c                 cmpl     %ecx, 0xc(%edx)
0x06feb4cb:  75 06                    jne      0x6feb4d3

----------------
IN: 
0x06feb4cd:  8b 48 0c                 movl     0xc(%eax), %ecx
0x06feb4d0:  89 4a 0c                 movl     %ecx, 0xc(%edx)
0x06feb4d3:  e9 a8 fc ff ff           jmp      0x6feb180

----------------
IN: 
0x06feb519:  8d 43 ec                 leal     -0x14(%ebx), %eax
0x06feb51c:  e8 9e ff ff ff           calll    0x6feb4bf

----------------
IN: 
0x06feb521:  31 c0                    xorl     %eax, %eax
0x06feb523:  eb 03                    jmp      0x6feb528

----------------
IN: 
0x06feb528:  5b                       popl     %ebx
0x06feb529:  5e                       popl     %esi
0x06feb52a:  c3                       retl     

----------------
IN: 
0x06fed695:  85 c0                    testl    %eax, %eax
0x06fed697:  74 0f                    je       0x6fed6a8

----------------
IN: 
0x06fed6a8:  c3                       retl     

----------------
IN: 
0x06fef763:  8b 5c 24 14              movl     0x14(%esp), %ebx
0x06fef767:  83 eb 20                 subl     $0x20, %ebx
0x06fef76a:  e9 20 fe ff ff           jmp      0x6fef58f

----------------
IN: 
0x06fef58f:  83 fb e0                 cmpl     $-0x20, %ebx
0x06fef592:  0f 84 d7 01 00 00        je       0x6fef76f

----------------
IN: 
0x06feb18e:  c3                       retl     

----------------
IN: 
0x06fef76f:  83 c4 1c                 addl     $0x1c, %esp
0x06fef772:  5b                       popl     %ebx
0x06fef773:  5e                       popl     %esi
0x06fef774:  5f                       popl     %edi
0x06fef775:  5d                       popl     %ebp
0x06fef776:  c3                       retl     

----------------
IN: 
0x06ff0812:  8d 53 0c                 leal     0xc(%ebx), %edx
0x06ff0815:  8b 04 24                 movl     (%esp), %eax
0x06ff0818:  e8 5d ed ff ff           calll    0x6fef57a

----------------
IN: 
0x06fec8b1:  8a 40 18                 movb     0x18(%eax), %al
0x06fec8b4:  83 e0 7f                 andl     $0x7f, %eax
0x06fec8b7:  31 db                    xorl     %ebx, %ebx
0x06fec8b9:  fe c8                    decb     %al
0x06fec8bb:  0f 94 c3                 sete     %bl
0x06fec8be:  8d 1c dd 30 00 00 00     leal     0x30(, %ebx, 8), %ebx
0x06fec8c5:  0f b7 06                 movzwl   (%esi), %eax
0x06fec8c8:  89 da                    movl     %ebx, %edx
0x06fec8ca:  e8 3f c8 0f f9           calll    0xe910e

----------------
IN: 
0x06ff081d:  8d 53 18                 leal     0x18(%ebx), %edx
0x06ff0820:  8b 04 24                 movl     (%esp), %eax
0x06ff0823:  e8 52 ed ff ff           calll    0x6fef57a

----------------
IN: 
0x06ff0828:  46                       incl     %esi
0x06ff0829:  83 c3 28                 addl     $0x28, %ebx
0x06ff082c:  eb d2                    jmp      0x6ff0800

----------------
IN: 
0x06ff0800:  3b 35 ec 55 0f 00        cmpl     0xf55ec, %esi
0x06ff0806:  7f 26                    jg       0x6ff082e

----------------
IN: 
0x06ff082e:  a1 c0 fd ff 06           movl     0x6fffdc0, %eax
0x06ff0833:  8d 58 fc                 leal     -4(%eax), %ebx
0x06ff0836:  83 fb fc                 cmpl     $-4, %ebx
0x06ff0839:  0f 84 86 00 00 00        je       0x6ff08c5

----------------
IN: 
0x06ff083f:  0f b7 43 12              movzwl   0x12(%ebx), %eax
0x06ff0843:  50                       pushl    %eax
0x06ff0844:  0f b7 43 10              movzwl   0x10(%ebx), %eax
0x06ff0848:  50                       pushl    %eax
0x06ff0849:  53                       pushl    %ebx
0x06ff084a:  68 20 06 0f 00           pushl    $0xf0620
0x06ff084f:  e8 0b b4 0f f9           calll    0xebc5f

----------------
IN: 
0x06ff0854:  0f b7 33                 movzwl   (%ebx), %esi
0x06ff0857:  ba 3d 00 00 00           movl     $0x3d, %edx
0x06ff085c:  89 f0                    movl     %esi, %eax
0x06ff085e:  e8 e4 89 0f f9           calll    0xe9247

----------------
IN: 
0x06ff0863:  0f b6 d0                 movzbl   %al, %edx
0x06ff0866:  83 c4 10                 addl     $0x10, %esp
0x06ff0869:  85 d2                    testl    %edx, %edx
0x06ff086b:  74 17                    je       0x6ff0884

----------------
IN: 
0x06ff0884:  31 c9                    xorl     %ecx, %ecx
0x06ff0886:  89 da                    movl     %ebx, %edx
0x06ff0888:  b8 60 f9 ff 06           movl     $0x6fff960, %eax
0x06ff088d:  e8 b6 af ff ff           calll    0x6feb848

----------------
IN: 
0x06ff0892:  b9 03 01 00 00           movl     $0x103, %ecx
0x06ff0897:  ba 04 00 00 00           movl     $4, %edx
0x06ff089c:  89 f0                    movl     %esi, %eax
0x06ff089e:  e8 e4 be ff ff           calll    0x6fec787

----------------
IN: 
0x06fec787:  57                       pushl    %edi
0x06fec788:  53                       pushl    %ebx
0x06fec789:  53                       pushl    %ebx
0x06fec78a:  89 cf                    movl     %ecx, %edi
0x06fec78c:  0f b7 d8                 movzwl   %ax, %ebx
0x06fec78f:  89 14 24                 movl     %edx, (%esp)
0x06fec792:  89 d8                    movl     %ebx, %eax
0x06fec794:  e8 70 ca 0f f9           calll    0xe9209

----------------
IN: 
0x06fec799:  09 f8                    orl      %edi, %eax
0x06fec79b:  0f b7 c8                 movzwl   %ax, %ecx
0x06fec79e:  8b 14 24                 movl     (%esp), %edx
0x06fec7a1:  89 d8                    movl     %ebx, %eax
0x06fec7a3:  5f                       popl     %edi
0x06fec7a4:  5b                       popl     %ebx
0x06fec7a5:  5f                       popl     %edi
0x06fec7a6:  e9 a2 c9 0f f9           jmp      0xe914d

----------------
IN: 
0x000e914d:  56                       pushl    %esi
0x000e914e:  53                       pushl    %ebx
0x000e914f:  89 d3                    movl     %edx, %ebx
0x000e9151:  8b 15 b8 4d 0f 00        movl     0xf4db8, %edx
0x000e9157:  0f b7 c0                 movzwl   %ax, %eax
0x000e915a:  85 d2                    testl    %edx, %edx
0x000e915c:  74 0c                    je       0xe916a

----------------
IN: 
0x000e916a:  c1 e0 08                 shll     $8, %eax
0x000e916d:  89 da                    movl     %ebx, %edx
0x000e916f:  81 e2 fc 00 00 00        andl     $0xfc, %edx
0x000e9175:  09 d0                    orl      %edx, %eax
0x000e9177:  0d 00 00 00 80           orl      $0x80000000, %eax
0x000e917c:  ba f8 0c 00 00           movl     $0xcf8, %edx
0x000e9181:  ef                       outl     %eax, %dx

----------------
IN: 
0x000e9182:  83 e3 02                 andl     $2, %ebx
0x000e9185:  8d 93 fc 0c 00 00        leal     0xcfc(%ebx), %edx
0x000e918b:  89 c8                    movl     %ecx, %eax
0x000e918d:  66 ef                    outw     %ax, %dx

----------------
IN: 
0x000e918f:  5b                       popl     %ebx
0x000e9190:  5e                       popl     %esi
0x000e9191:  c3                       retl     

----------------
IN: 
0x06ff08a3:  f6 43 18 01              testb    $1, 0x18(%ebx)
0x06ff08a7:  74 11                    je       0x6ff08ba

----------------
IN: 
0x06ff08ba:  8b 5b 04                 movl     4(%ebx), %ebx
0x06ff08bd:  83 eb 04                 subl     $4, %ebx
0x06ff08c0:  e9 71 ff ff ff           jmp      0x6ff0836

----------------
IN: 
0x06ff0836:  83 fb fc                 cmpl     $-4, %ebx
0x06ff0839:  0f 84 86 00 00 00        je       0x6ff08c5

----------------
IN: 
0x06fef777:  57                       pushl    %edi
0x06fef778:  56                       pushl    %esi
0x06fef779:  53                       pushl    %ebx
0x06fef77a:  52                       pushl    %edx
0x06fef77b:  89 c6                    movl     %eax, %esi
0x06fef77d:  66 c7 44 24 02 00 00     movw     $0, 2(%esp)
0x06fef784:  bb 60 00 00 00           movl     $0x60, %ebx
0x06fef789:  0f b6 83 18 fa ff 06     movzbl   0x6fffa18(%ebx), %eax
0x06fef790:  89 c1                    movl     %eax, %ecx
0x06fef792:  89 c2                    movl     %eax, %edx
0x06fef794:  c1 fa 03                 sarl     $3, %edx
0x06fef797:  83 e1 07                 andl     $7, %ecx
0x06fef79a:  bf 01 00 00 00           movl     $1, %edi
0x06fef79f:  d3 e7                    shll     %cl, %edi
0x06fef7a1:  89 f9                    movl     %edi, %ecx
0x06fef7a3:  08 4c 14 02              orb      %cl, 2(%esp, %edx)
0x06fef7a7:  0f b7 3e                 movzwl   (%esi), %edi
0x06fef7aa:  89 c1                    movl     %eax, %ecx
0x06fef7ac:  89 da                    movl     %ebx, %edx
0x06fef7ae:  89 f8                    movl     %edi, %eax
0x06fef7b0:  e8 dd 99 0f f9           calll    0xe9192

----------------
IN: 
0x000e9192:  56                       pushl    %esi
0x000e9193:  53                       pushl    %ebx
0x000e9194:  89 d3                    movl     %edx, %ebx
0x000e9196:  8b 15 b8 4d 0f 00        movl     0xf4db8, %edx
0x000e919c:  0f b7 c0                 movzwl   %ax, %eax
0x000e919f:  85 d2                    testl    %edx, %edx
0x000e91a1:  74 0b                    je       0xe91ae

----------------
IN: 
0x000e91ae:  c1 e0 08                 shll     $8, %eax
0x000e91b1:  89 da                    movl     %ebx, %edx
0x000e91b3:  81 e2 fc 00 00 00        andl     $0xfc, %edx
0x000e91b9:  09 d0                    orl      %edx, %eax
0x000e91bb:  0d 00 00 00 80           orl      $0x80000000, %eax
0x000e91c0:  ba f8 0c 00 00           movl     $0xcf8, %edx
0x000e91c5:  ef                       outl     %eax, %dx

----------------
IN: 
0x000e91c6:  83 e3 03                 andl     $3, %ebx
0x000e91c9:  8d 93 fc 0c 00 00        leal     0xcfc(%ebx), %edx
0x000e91cf:  88 c8                    movb     %cl, %al
0x000e91d1:  ee                       outb     %al, %dx

----------------
IN: 
0x000e91d2:  5b                       popl     %ebx
0x000e91d3:  5e                       popl     %esi
0x000e91d4:  c3                       retl     

----------------
IN: 
0x06fef7b5:  43                       incl     %ebx
0x06fef7b6:  83 fb 64                 cmpl     $0x64, %ebx
0x06fef7b9:  75 ce                    jne      0x6fef789

----------------
IN: 
0x06fef789:  0f b6 83 18 fa ff 06     movzbl   0x6fffa18(%ebx), %eax
0x06fef790:  89 c1                    movl     %eax, %ecx
0x06fef792:  89 c2                    movl     %eax, %edx
0x06fef794:  c1 fa 03                 sarl     $3, %edx
0x06fef797:  83 e1 07                 andl     $7, %ecx
0x06fef79a:  bf 01 00 00 00           movl     $1, %edi
0x06fef79f:  d3 e7                    shll     %cl, %edi
0x06fef7a1:  89 f9                    movl     %edi, %ecx
0x06fef7a3:  08 4c 14 02              orb      %cl, 2(%esp, %edx)
0x06fef7a7:  0f b7 3e                 movzwl   (%esi), %edi
0x06fef7aa:  89 c1                    movl     %eax, %ecx
0x06fef7ac:  89 da                    movl     %ebx, %edx
0x06fef7ae:  89 f8                    movl     %edi, %eax
0x06fef7b0:  e8 dd 99 0f f9           calll    0xe9192

----------------
IN: 
0x06fef7bb:  ba d0 04 00 00           movl     $0x4d0, %edx
0x06fef7c0:  8a 44 24 02              movb     2(%esp), %al
0x06fef7c4:  ee                       outb     %al, %dx

----------------
IN: 
0x06fef7c5:  0f b6 44 24 03           movzbl   3(%esp), %eax
0x06fef7ca:  ba d1 04 00 00           movl     $0x4d1, %edx
0x06fef7cf:  ee                       outb     %al, %dx

----------------
IN: 
0x06fef7d0:  50                       pushl    %eax
0x06fef7d1:  0f b6 44 24 06           movzbl   6(%esp), %eax
0x06fef7d6:  50                       pushl    %eax
0x06fef7d7:  68 64 02 0f 00           pushl    $0xf0264
0x06fef7dc:  e8 7e c4 0f f9           calll    0xebc5f

----------------
IN: 
0x06fef7e1:  83 c4 10                 addl     $0x10, %esp
0x06fef7e4:  5b                       popl     %ebx
0x06fef7e5:  5e                       popl     %esi
0x06fef7e6:  5f                       popl     %edi
0x06fef7e7:  c3                       retl     

----------------
IN: 
0x06feb9e7:  53                       pushl    %ebx
0x06feb9e8:  0f b7 18                 movzwl   (%eax), %ebx
0x06feb9eb:  b9 00 80 00 00           movl     $0x8000, %ecx
0x06feb9f0:  ba 40 00 00 00           movl     $0x40, %edx
0x06feb9f5:  89 d8                    movl     %ebx, %eax
0x06feb9f7:  e8 51 d7 0f f9           calll    0xe914d

----------------
IN: 
0x06feb9fc:  ba 42 00 00 00           movl     $0x42, %edx
0x06feba01:  89 d8                    movl     %ebx, %eax
0x06feba03:  5b                       popl     %ebx
0x06feba04:  e9 44 d7 0f f9           jmp      0xe914d

----------------
IN: 
0x06ff086d:  89 d8                    movl     %ebx, %eax
0x06ff086f:  ff 15 78 fd ff 06        calll    *0x6fffd78

----------------
IN: 
0x06feb981:  53                       pushl    %ebx
0x06feb982:  31 c9                    xorl     %ecx, %ecx
0x06feb984:  8b 58 0c                 movl     0xc(%eax), %ebx
0x06feb987:  8b 00                    movl     (%eax), %eax
0x06feb989:  c0 e8 03                 shrb     $3, %al
0x06feb98c:  0f b6 c0                 movzbl   %al, %eax
0x06feb98f:  85 db                    testl    %ebx, %ebx
0x06feb991:  74 06                    je       0x6feb999

----------------
IN: 
0x06feb999:  8d 44 01 ff              leal     -1(%ecx, %eax), %eax
0x06feb99d:  8d 44 02 ff              leal     -1(%edx, %eax), %eax
0x06feb9a1:  83 e0 03                 andl     $3, %eax
0x06feb9a4:  0f b6 80 78 fa ff 06     movzbl   0x6fffa78(%eax), %eax
0x06feb9ab:  5b                       popl     %ebx
0x06feb9ac:  c3                       retl     

----------------
IN: 
0x06ff0875:  0f b6 c8                 movzbl   %al, %ecx
0x06ff0878:  ba 3c 00 00 00           movl     $0x3c, %edx
0x06ff087d:  89 f0                    movl     %esi, %eax
0x06ff087f:  e8 0e 89 0f f9           calll    0xe9192

----------------
IN: 
0x06feef53:  0f b7 00                 movzwl   (%eax), %eax
0x06feef56:  a3 f0 49 0f 00           movl     %eax, 0xf49f0
0x06feef5b:  e8 8c a4 0f f9           calll    0xe93ec

----------------
IN: 
0x000e93ec:  56                       pushl    %esi
0x000e93ed:  53                       pushl    %ebx
0x000e93ee:  0f b7 f0                 movzwl   %ax, %esi
0x000e93f1:  b9 09 00 00 00           movl     $9, %ecx
0x000e93f6:  ba 3c 00 00 00           movl     $0x3c, %edx
0x000e93fb:  89 f0                    movl     %esi, %eax
0x000e93fd:  e8 90 fd ff ff           calll    0xe9192

----------------
IN: 
0x000e9402:  66 8b 1d fc 49 0f 00     movw     0xf49fc, %bx
0x000e9409:  89 d9                    movl     %ebx, %ecx
0x000e940b:  83 c9 01                 orl      $1, %ecx
0x000e940e:  0f b7 c9                 movzwl   %cx, %ecx
0x000e9411:  ba 40 00 00 00           movl     $0x40, %edx
0x000e9416:  89 f0                    movl     %esi, %eax
0x000e9418:  e8 f1 fc ff ff           calll    0xe910e

----------------
IN: 
0x000e941d:  b9 01 00 00 00           movl     $1, %ecx
0x000e9422:  ba 80 00 00 00           movl     $0x80, %edx
0x000e9427:  89 f0                    movl     %esi, %eax
0x000e9429:  e8 64 fd ff ff           calll    0xe9192

----------------
IN: 
0x000e942e:  0f b7 cb                 movzwl   %bx, %ecx
0x000e9431:  81 c1 00 01 00 00        addl     $0x100, %ecx
0x000e9437:  83 c9 01                 orl      $1, %ecx
0x000e943a:  ba 90 00 00 00           movl     $0x90, %edx
0x000e943f:  89 f0                    movl     %esi, %eax
0x000e9441:  e8 c8 fc ff ff           calll    0xe910e

----------------
IN: 
0x000e9446:  b9 09 00 00 00           movl     $9, %ecx
0x000e944b:  ba d2 00 00 00           movl     $0xd2, %edx
0x000e9450:  89 f0                    movl     %esi, %eax
0x000e9452:  5b                       popl     %ebx
0x000e9453:  5e                       popl     %esi
0x000e9454:  e9 39 fd ff ff           jmp      0xe9192

----------------
IN: 
0x06feef60:  0f b7 15 fc 49 0f 00     movzwl   0xf49fc, %edx
0x06feef67:  89 d0                    movl     %edx, %eax
0x06feef69:  83 c2 04                 addl     $4, %edx
0x06feef6c:  89 15 e4 55 0f 00        movl     %edx, 0xf55e4
0x06feef72:  83 c0 08                 addl     $8, %eax
0x06feef75:  0f b7 c0                 movzwl   %ax, %eax
0x06feef78:  e9 a5 ff ff ff           jmp      0x6feef22

----------------
IN: 
0x06feef22:  66 83 3d 98 60 0f 00 40  cmpw     $0x40, 0xf6098
0x06feef2a:  75 26                    jne      0x6feef52

----------------
IN: 
0x06feef2c:  53                       pushl    %ebx
0x06feef2d:  89 c3                    movl     %eax, %ebx
0x06feef2f:  0f b7 c0                 movzwl   %ax, %eax
0x06feef32:  50                       pushl    %eax
0x06feef33:  68 a5 fd 0e 00           pushl    $0xefda5
0x06feef38:  e8 22 cd 0f f9           calll    0xebc5f

----------------
IN: 
0x06feef3d:  66 89 1d 98 60 0f 00     movw     %bx, 0xf6098
0x06feef44:  c7 05 9c 60 0f 00 fc 0d  movl     $0xdfc, 0xf609c
0x06feef4c:  00 00
0x06feef4e:  58                       popl     %eax
0x06feef4f:  5a                       popl     %edx
0x06feef50:  5b                       popl     %ebx
0x06feef51:  c3                       retl     

----------------
IN: 
0x06ff08c5:  8b 04 24                 movl     (%esp), %eax
0x06ff08c8:  e8 bf cd ff ff           calll    0x6fed68c

----------------
IN: 
0x06ff08cd:  a1 c0 fd ff 06           movl     0x6fffdc0, %eax
0x06ff08d2:  8d 58 fc                 leal     -4(%eax), %ebx
0x06ff08d5:  83 fb fc                 cmpl     $-4, %ebx
0x06ff08d8:  74 22                    je       0x6ff08fc

----------------
IN: 
0x06ff08da:  89 d8                    movl     %ebx, %eax
0x06ff08dc:  e8 6c ad ff ff           calll    0x6feb64d

----------------
IN: 
0x06feb64d:  66 81 78 14 00 03        cmpw     $0x300, 0x14(%eax)
0x06feb653:  75 39                    jne      0x6feb68e

----------------
IN: 
0x06feb68e:  31 c0                    xorl     %eax, %eax
0x06feb690:  c3                       retl     

----------------
IN: 
0x06ff08e1:  85 c0                    testl    %eax, %eax
0x06ff08e3:  74 0f                    je       0x6ff08f4

----------------
IN: 
0x06ff08f4:  8b 5b 04                 movl     4(%ebx), %ebx
0x06ff08f7:  83 eb 04                 subl     $4, %ebx
0x06ff08fa:  eb d9                    jmp      0x6ff08d5

----------------
IN: 
0x06ff08d5:  83 fb fc                 cmpl     $-4, %ebx
0x06ff08d8:  74 22                    je       0x6ff08fc

----------------
IN: 
0x06feb655:  53                       pushl    %ebx
0x06feb656:  89 c3                    movl     %eax, %ebx
0x06feb658:  0f b7 00                 movzwl   (%eax), %eax
0x06feb65b:  ba 04 00 00 00           movl     $4, %edx
0x06feb660:  e8 a4 db 0f f9           calll    0xe9209

----------------
IN: 
0x06feb665:  f7 d0                    notl     %eax
0x06feb667:  a8 03                    testb    $3, %al
0x06feb669:  74 15                    je       0x6feb680

----------------
IN: 
0x06feb680:  8b 5b 0c                 movl     0xc(%ebx), %ebx
0x06feb683:  85 db                    testl    %ebx, %ebx
0x06feb685:  75 e8                    jne      0x6feb66f

----------------
IN: 
0x06feb687:  b8 01 00 00 00           movl     $1, %eax
0x06feb68c:  5b                       popl     %ebx
0x06feb68d:  c3                       retl     

----------------
IN: 
0x06ff08e5:  53                       pushl    %ebx
0x06ff08e6:  68 40 06 0f 00           pushl    $0xf0640
0x06ff08eb:  e8 6f b3 0f f9           calll    0xebc5f

----------------
IN: 
0x06ff08f0:  5b                       popl     %ebx
0x06ff08f1:  5e                       popl     %esi
0x06ff08f2:  eb 7b                    jmp      0x6ff096f

----------------
IN: 
0x06ff096f:  83 c4 5c                 addl     $0x5c, %esp
0x06ff0972:  5b                       popl     %ebx
0x06ff0973:  5e                       popl     %esi
0x06ff0974:  5f                       popl     %edi
0x06ff0975:  5d                       popl     %ebp
0x06ff0976:  c3                       retl     

----------------
IN: 
0x06ff5883:  ba 13 71 00 00           movl     $0x7113, %edx
0x06ff5888:  b8 86 80 00 00           movl     $0x8086, %eax
0x06ff588d:  e8 8e 5f ff ff           calll    0x6feb820

----------------
IN: 
0x06feb820:  53                       pushl    %ebx
0x06feb821:  89 c3                    movl     %eax, %ebx
0x06feb823:  a1 c0 fd ff 06           movl     0x6fffdc0, %eax
0x06feb828:  83 e8 04                 subl     $4, %eax
0x06feb82b:  83 f8 fc                 cmpl     $-4, %eax
0x06feb82e:  74 14                    je       0x6feb844

----------------
IN: 
0x06feb830:  66 39 58 10              cmpw     %bx, 0x10(%eax)
0x06feb834:  75 06                    jne      0x6feb83c

----------------
IN: 
0x06feb836:  66 39 50 12              cmpw     %dx, 0x12(%eax)
0x06feb83a:  74 0a                    je       0x6feb846

----------------
IN: 
0x06feb83c:  8b 48 04                 movl     4(%eax), %ecx
0x06feb83f:  8d 41 fc                 leal     -4(%ecx), %eax
0x06feb842:  eb e7                    jmp      0x6feb82b

----------------
IN: 
0x06feb82b:  83 f8 fc                 cmpl     $-4, %eax
0x06feb82e:  74 14                    je       0x6feb844

----------------
IN: 
0x06feb846:  5b                       popl     %ebx
0x06feb847:  c3                       retl     

----------------
IN: 
0x06ff5892:  89 c6                    movl     %eax, %esi
0x06ff5894:  ba 37 12 00 00           movl     $0x1237, %edx
0x06ff5899:  b8 86 80 00 00           movl     $0x8086, %eax
0x06ff589e:  e8 7d 5f ff ff           calll    0x6feb820

----------------
IN: 
0x06ff58a3:  85 f6                    testl    %esi, %esi
0x06ff58a5:  74 04                    je       0x6ff58ab

----------------
IN: 
0x06ff58a7:  85 c0                    testl    %eax, %eax
0x06ff58a9:  75 28                    jne      0x6ff58d3

----------------
IN: 
0x06ff58d3:  0f b7 16                 movzwl   (%esi), %edx
0x06ff58d6:  89 15 e4 49 0f 00        movl     %edx, 0xf49e4
0x06ff58dc:  0f b7 00                 movzwl   (%eax), %eax
0x06ff58df:  a3 e0 49 0f 00           movl     %eax, 0xf49e0
0x06ff58e4:  e8 9a 4e 0f f9           calll    0xea783

----------------
IN: 
0x000ea783:  55                       pushl    %ebp
0x000ea784:  57                       pushl    %edi
0x000ea785:  56                       pushl    %esi
0x000ea786:  53                       pushl    %ebx
0x000ea787:  8b 35 e4 49 0f 00        movl     0xf49e4, %esi
0x000ea78d:  85 f6                    testl    %esi, %esi
0x000ea78f:  0f 88 ea 00 00 00        js       0xea87f

----------------
IN: 
0x000ea795:  0f b7 f6                 movzwl   %si, %esi
0x000ea798:  ba 02 00 00 00           movl     $2, %edx
0x000ea79d:  89 f0                    movl     %esi, %eax
0x000ea79f:  e8 65 ea ff ff           calll    0xe9209

----------------
IN: 
0x000ea7a4:  8b 1d e0 49 0f 00        movl     0xf49e0, %ebx
0x000ea7aa:  66 3d 13 71              cmpw     $0x7113, %ax
0x000ea7ae:  75 64                    jne      0xea814

----------------
IN: 
0x000ea7b0:  ba 58 00 00 00           movl     $0x58, %edx
0x000ea7b5:  89 f0                    movl     %esi, %eax
0x000ea7b7:  e8 19 ea ff ff           calll    0xe91d5

----------------
IN: 
0x000ea7bc:  89 c7                    movl     %eax, %edi
0x000ea7be:  0f ba e0 19              btl      $0x19, %eax
0x000ea7c2:  0f 82 b7 00 00 00        jb       0xea87f

----------------
IN: 
0x000ea7c8:  0f b7 db                 movzwl   %bx, %ebx
0x000ea7cb:  b9 4a 00 00 00           movl     $0x4a, %ecx
0x000ea7d0:  ba 72 00 00 00           movl     $0x72, %edx
0x000ea7d5:  89 d8                    movl     %ebx, %eax
0x000ea7d7:  e8 b6 e9 ff ff           calll    0xe9192

----------------
IN: 
0x000ea7dc:  e8 52 ff ff ff           calll    0xea733

----------------
IN: 
0x000ea733:  57                       pushl    %edi
0x000ea734:  56                       pushl    %esi
0x000ea735:  b8 00 fe 0a 00           movl     $0xafe00, %eax
0x000ea73a:  be 00 fe 03 00           movl     $0x3fe00, %esi
0x000ea73f:  b9 80 00 00 00           movl     $0x80, %ecx
0x000ea744:  89 c7                    movl     %eax, %edi
0x000ea746:  f3 a5                    rep movsl (%esi), %es:(%edi)

----------------
IN: 
0x000ea746:  f3 a5                    rep movsl (%esi), %es:(%edi)

----------------
IN: 
0x000ea748:  b8 00 80 0a 00           movl     $0xa8000, %eax
0x000ea74d:  ba 00 80 03 00           movl     $0x38000, %edx
0x000ea752:  8b 0a                    movl     (%edx), %ecx
0x000ea754:  89 08                    movl     %ecx, (%eax)
0x000ea756:  8b 52 04                 movl     4(%edx), %edx
0x000ea759:  89 50 04                 movl     %edx, 4(%eax)
0x000ea75c:  b8 66 d0 00 00           movl     $0xd066, %eax
0x000ea761:  31 d2                    xorl     %edx, %edx
0x000ea763:  0f a4 c2 18              shldl    $0x18, %eax, %edx
0x000ea767:  c1 e0 18                 shll     $0x18, %eax
0x000ea76a:  0d 8c c8 ea 00           orl      $0xeac88c, %eax
0x000ea76f:  81 ca 00 00 f0 00        orl      $0xf00000, %edx
0x000ea775:  a3 00 80 03 00           movl     %eax, 0x38000
0x000ea77a:  89 15 04 80 03 00        movl     %edx, 0x38004
0x000ea780:  5e                       popl     %esi
0x000ea781:  5f                       popl     %edi
0x000ea782:  c3                       retl     

----------------
IN: 
0x000ea7e1:  81 cf 00 00 00 02        orl      $0x2000000, %edi
0x000ea7e7:  89 f9                    movl     %edi, %ecx
0x000ea7e9:  ba 58 00 00 00           movl     $0x58, %edx
0x000ea7ee:  89 f0                    movl     %esi, %eax
0x000ea7f0:  e8 19 e9 ff ff           calll    0xe910e

----------------
IN: 
0x000ea7f5:  66 a1 fc 49 0f 00        movw     0xf49fc, %ax
0x000ea7fb:  8d 50 28                 leal     0x28(%eax), %edx
0x000ea7fe:  ed                       inl      %dx, %eax

----------------
IN: 
0x000ea7ff:  83 c8 01                 orl      $1, %eax
0x000ea802:  ef                       outl     %eax, %dx

----------------
IN: 
0x000ea803:  e8 cb fe ff ff           calll    0xea6d3

----------------
IN: 
0x000ea6d3:  57                       pushl    %edi
0x000ea6d4:  56                       pushl    %esi
0x000ea6d5:  b0 01                    movb     $1, %al
0x000ea6d7:  e6 b3                    outb     %al, $0xb3

----------------
IN: 
0x000ea6d9:  31 c0                    xorl     %eax, %eax
0x000ea6db:  e6 b2                    outb     %al, $0xb2

SMM: enter
EAX=00000000 EBX=00000000 ECX=02000000 EDX=02000628
ESI=0000000b EDI=02000000 EBP=00014de0 ESP=00006c5c
EIP=000ea6dd EFL=00000046 [---Z-P-] CPL=0 II=0 A20=1 SMM=0 HLT=0
ES =0010 00000000 ffffffff 00cf9300 DPL=0 DS   [-WA]
CS =0008 00000000 ffffffff 00cf9b00 DPL=0 CS32 [-RA]
SS =0010 00000000 ffffffff 00cf9300 DPL=0 DS   [-WA]
DS =0010 00000000 ffffffff 00cf9300 DPL=0 DS   [-WA]
FS =0010 00000000 ffffffff 00cf9300 DPL=0 DS   [-WA]
GS =0010 00000000 ffffffff 00cf9300 DPL=0 DS   [-WA]
LDT=0000 00000000 0000ffff 00008200 DPL=0 LDT
TR =0000 00000000 0000ffff 00008b00 DPL=0 TSS32-busy
GDT=     000f61e0 00000037
IDT=     000f621e 00000000
CR0=00000011 CR2=00000000 CR3=00000000 CR4=00000000
DR0=0000000000000000 DR1=0000000000000000 DR2=0000000000000000 DR3=0000000000000000 
DR6=00000000ffff0ff0 DR7=0000000000000400
CCS=00000000 CCD=ffffffff CCO=CLR
EFER=0000000000000000
----------------
IN: 
0x00038000:  8c c8                    movw     %cs, %ax
0x00038002:  ea 66 d0 00 f0           ljmpw    $0xf000:$0xd066

----------------
IN: 
0x000fd066:  66 ba 6f d0 0f 00        movl     $0xfd06f, %edx
0x000fd06c:  e9 b4 1b                 jmp      0xfec23

----------------
IN: 
0x000fec23:  2e 0f 01 1e 18 62        lidtw    %cs:0x6218
0x000fec29:  2e 0f 01 16 d8 61        lgdtw    %cs:0x61d8
0x000fec2f:  0f 20 c1                 movl     %cr0, %ecx

----------------
IN: 
0x000fec32:  66 81 e1 ff ff ff 1f     andl     $0x1fffffff, %ecx
0x000fec39:  66 83 c9 01              orl      $1, %ecx
0x000fec3d:  0f 22 c1                 movl     %ecx, %cr0

----------------
IN: 
0x000fec40:  66 ea 48 ec 0f 00 08 00  ljmpl    $0x8:$0xfec48

----------------
IN: 
0x000fec48:  b9 10 00 00 00           movl     $0x10, %ecx
0x000fec4d:  8e d9                    movl     %ecx, %ds

----------------
IN: 
0x000fec4f:  8e c1                    movl     %ecx, %es

----------------
IN: 
0x000fec51:  8e d1                    movl     %ecx, %ss

----------------
IN: 
0x000fec53:  8e e1                    movl     %ecx, %fs

----------------
IN: 
0x000fec55:  8e e9                    movl     %ecx, %gs
0x000fec57:  ff e2                    jmpl     *%edx

----------------
IN: 
0x000fd06f:  bc 00 80 0a 00           movl     $0xa8000, %esp
0x000fd074:  e8 97 28 ff ff           calll    0xef910

----------------
IN: 
0x000ef910:  55                       pushl    %ebp
0x000ef911:  89 e5                    movl     %esp, %ebp
0x000ef913:  57                       pushl    %edi
0x000ef914:  56                       pushl    %esi
0x000ef915:  53                       pushl    %ebx
0x000ef916:  83 e4 f8                 andl     $0xfffffff8, %esp
0x000ef919:  83 ec 50                 subl     $0x50, %esp
0x000ef91c:  89 c2                    movl     %eax, %edx
0x000ef91e:  e4 b2                    inb      $0xb2, %al

----------------
IN: 
0x000ef920:  0f b7 d2                 movzwl   %dx, %edx
0x000ef923:  c1 e2 04                 shll     $4, %edx
0x000ef926:  89 d3                    movl     %edx, %ebx
0x000ef928:  8b 92 fc fe 00 00        movl     0xfefc(%edx), %edx
0x000ef92e:  81 e2 ff ff 02 00        andl     $0x2ffff, %edx
0x000ef934:  81 fb 00 00 03 00        cmpl     $0x30000, %ebx
0x000ef93a:  75 76                    jne      0xef9b2

----------------
IN: 
0x000ef93c:  81 fa 00 00 02 00        cmpl     $0x20000, %edx
0x000ef942:  75 0c                    jne      0xef950

----------------
IN: 
0x000ef950:  81 fa 64 00 02 00        cmpl     $0x20064, %edx
0x000ef956:  75 0c                    jne      0xef964

----------------
IN: 
0x000ef958:  c7 05 00 ff 03 00 00 00  movl     $0xa0000, 0x3ff00
0x000ef960:  0a 00
0x000ef962:  eb 16                    jmp      0xef97a

----------------
IN: 
0x000ef97a:  31 c0                    xorl     %eax, %eax
0x000ef97c:  e6 b3                    outb     %al, $0xb3

----------------
IN: 
0x000ef97e:  ba 00 fe 03 00           movl     $0x3fe00, %edx
0x000ef983:  b8 00 00 0a 00           movl     $0xa0000, %eax
0x000ef988:  89 d6                    movl     %edx, %esi
0x000ef98a:  b9 80 00 00 00           movl     $0x80, %ecx
0x000ef98f:  89 c7                    movl     %eax, %edi
0x000ef991:  f3 a5                    rep movsl (%esi), %es:(%edi)

----------------
IN: 
0x000ef991:  f3 a5                    rep movsl (%esi), %es:(%edi)

----------------
IN: 
0x000ef993:  b8 00 02 0a 00           movl     $0xa0200, %eax
0x000ef998:  89 d6                    movl     %edx, %esi
0x000ef99a:  b9 80 00 00 00           movl     $0x80, %ecx
0x000ef99f:  89 c7                    movl     %eax, %edi
0x000ef9a1:  f3 a5                    rep movsl (%esi), %es:(%edi)

----------------
IN: 
0x000ef9a1:  f3 a5                    rep movsl (%esi), %es:(%edi)

----------------
IN: 
0x000ef9a3:  c7 05 d4 61 0f 00 01 00  movl     $1, 0xf61d4
0x000ef9ab:  00 00
0x000ef9ad:  e9 c9 01 00 00           jmp      0xefb7b

----------------
IN: 
0x000efb7b:  8d 65 f4                 leal     -0xc(%ebp), %esp
0x000efb7e:  5b                       popl     %ebx
0x000efb7f:  5e                       popl     %esi
0x000efb80:  5f                       popl     %edi
0x000efb81:  5d                       popl     %ebp
0x000efb82:  c3                       retl     

----------------
IN: 
0x000fd079:  0f aa                    rsm      

SMM: after RSM
EAX=00000000 EBX=00000000 ECX=02000000 EDX=02000628
ESI=0000000b EDI=02000000 EBP=00014de0 ESP=00006c5c
EIP=000ea6dd EFL=00000046 [---Z-P-] CPL=0 II=0 A20=1 SMM=0 HLT=0
ES =0010 00000000 ffffffff 00c09300 DPL=0 DS   [-WA]
CS =0008 00000000 ffffffff 00c09b00 DPL=0 CS32 [-RA]
SS =0010 00000000 ffffffff 00c09300 DPL=0 DS   [-WA]
DS =0010 00000000 ffffffff 00c09300 DPL=0 DS   [-WA]
FS =0010 00000000 ffffffff 00c09300 DPL=0 DS   [-WA]
GS =0010 00000000 ffffffff 00c09300 DPL=0 DS   [-WA]
LDT=0000 00000000 0000ffff 00008200 DPL=0 LDT
TR =0000 00000000 0000ffff 00008b00 DPL=0 TSS32-busy
GDT=     000f61e0 00000037
IDT=     000f621e 00000000
CR0=00000011 CR2=00000000 CR3=00000000 CR4=00000000
DR0=0000000000000000 DR1=0000000000000000 DR2=0000000000000000 DR3=0000000000000000 
DR6=00000000ffff0ff0 DR7=0000000000000400
CCS=00000044 CCD=00000000 CCO=EFLAGS
EFER=0000000000000000
----------------
IN: 
0x000ea6dd:  e4 b3                    inb      $0xb3, %al

----------------
IN: 
0x000ea6df:  84 c0                    testb    %al, %al
0x000ea6e1:  75 fa                    jne      0xea6dd

----------------
IN: 
0x000ea6e3:  b8 00 fe 03 00           movl     $0x3fe00, %eax
0x000ea6e8:  be 00 fe 0a 00           movl     $0xafe00, %esi
0x000ea6ed:  b9 80 00 00 00           movl     $0x80, %ecx
0x000ea6f2:  89 c7                    movl     %eax, %edi
0x000ea6f4:  f3 a5                    rep movsl (%esi), %es:(%edi)

----------------
IN: 
0x000ea6f4:  f3 a5                    rep movsl (%esi), %es:(%edi)

----------------
IN: 
0x000ea6f6:  b8 00 80 03 00           movl     $0x38000, %eax
0x000ea6fb:  ba 00 80 0a 00           movl     $0xa8000, %edx
0x000ea700:  8b 0a                    movl     (%edx), %ecx
0x000ea702:  89 08                    movl     %ecx, (%eax)
0x000ea704:  8b 52 04                 movl     4(%edx), %edx
0x000ea707:  89 50 04                 movl     %edx, 4(%eax)
0x000ea70a:  b8 66 d0 00 00           movl     $0xd066, %eax
0x000ea70f:  31 d2                    xorl     %edx, %edx
0x000ea711:  0f a4 c2 18              shldl    $0x18, %eax, %edx
0x000ea715:  c1 e0 18                 shll     $0x18, %eax
0x000ea718:  0d 8c c8 ea 00           orl      $0xeac88c, %eax
0x000ea71d:  81 ca 00 00 f0 00        orl      $0xf00000, %edx
0x000ea723:  a3 00 80 0a 00           movl     %eax, 0xa8000
0x000ea728:  89 15 04 80 0a 00        movl     %edx, 0xa8004
0x000ea72e:  0f 09                    wbinvd   
0x000ea730:  5e                       popl     %esi
0x000ea731:  5f                       popl     %edi
0x000ea732:  c3                       retl     

----------------
IN: 
0x000ea808:  b9 0a 00 00 00           movl     $0xa, %ecx
0x000ea80d:  ba 72 00 00 00           movl     $0x72, %edx
0x000ea812:  eb 60                    jmp      0xea874

----------------
IN: 
0x000ea874:  89 d8                    movl     %ebx, %eax
0x000ea876:  5b                       popl     %ebx
0x000ea877:  5e                       popl     %esi
0x000ea878:  5f                       popl     %edi
0x000ea879:  5d                       popl     %ebp
0x000ea87a:  e9 13 e9 ff ff           jmp      0xe9192

----------------
IN: 
0x06ff58e9:  e8 f6 7e ff ff           calll    0x6fed7e4

----------------
IN: 
0x06fed7e4:  55                       pushl    %ebp
0x06fed7e5:  57                       pushl    %edi
0x06fed7e6:  56                       pushl    %esi
0x06fed7e7:  53                       pushl    %ebx
0x06fed7e8:  83 ec 1c                 subl     $0x1c, %esp
0x06fed7eb:  8d 44 24 10              leal     0x10(%esp), %eax
0x06fed7ef:  50                       pushl    %eax
0x06fed7f0:  8d 44 24 0c              leal     0xc(%esp), %eax
0x06fed7f4:  50                       pushl    %eax
0x06fed7f5:  8d 4c 24 0c              leal     0xc(%esp), %ecx
0x06fed7f9:  8d 54 24 08              leal     8(%esp), %edx
0x06fed7fd:  b8 01 00 00 00           movl     $1, %eax
0x06fed802:  e8 ae ba 0f f9           calll    0xe92b5

----------------
IN: 
0x06fed807:  58                       popl     %eax
0x06fed808:  5a                       popl     %edx
0x06fed809:  8b 44 24 10              movl     0x10(%esp), %eax
0x06fed80d:  f7 d0                    notl     %eax
0x06fed80f:  a9 20 10 00 00           testl    $0x1020, %eax
0x06fed814:  0f 85 cc 01 00 00        jne      0x6fed9e6

----------------
IN: 
0x06fed81a:  b9 fe 00 00 00           movl     $0xfe, %ecx
0x06fed81f:  0f 32                    rdmsr    
0x06fed821:  0f b6 f8                 movzbl   %al, %edi
0x06fed824:  0f ba e0 08              btl      $8, %eax
0x06fed828:  0f 83 b8 01 00 00        jae      0x6fed9e6

----------------
IN: 
0x06fed82e:  85 ff                    testl    %edi, %edi
0x06fed830:  0f 84 b0 01 00 00        je       0x6fed9e6

----------------
IN: 
0x06fed836:  31 d2                    xorl     %edx, %edx
0x06fed838:  31 c9                    xorl     %ecx, %ecx
0x06fed83a:  b8 ff 02 00 00           movl     $0x2ff, %eax
0x06fed83f:  e8 59 ff ff ff           calll    0x6fed79d

----------------
IN: 
0x06fed79d:  56                       pushl    %esi
0x06fed79e:  53                       pushl    %ebx
0x06fed79f:  89 c6                    movl     %eax, %esi
0x06fed7a1:  89 d0                    movl     %edx, %eax
0x06fed7a3:  89 ca                    movl     %ecx, %edx
0x06fed7a5:  89 f1                    movl     %esi, %ecx
0x06fed7a7:  0f 30                    wrmsr    

----------------
IN: 
0x06fed7a9:  8b 1d 28 4b 0f 00        movl     0xf4b28, %ebx
0x06fed7af:  83 fb 1f                 cmpl     $0x1f, %ebx
0x06fed7b2:  76 11                    jbe      0x6fed7c5

----------------
IN: 
0x06fed7c5:  6b cb 0c                 imull    $0xc, %ebx, %ecx
0x06fed7c8:  89 b1 40 4b 0f 00        movl     %esi, 0xf4b40(%ecx)
0x06fed7ce:  89 81 44 4b 0f 00        movl     %eax, 0xf4b44(%ecx)
0x06fed7d4:  89 91 48 4b 0f 00        movl     %edx, 0xf4b48(%ecx)
0x06fed7da:  43                       incl     %ebx
0x06fed7db:  89 1d 28 4b 0f 00        movl     %ebx, 0xf4b28
0x06fed7e1:  5b                       popl     %ebx
0x06fed7e2:  5e                       popl     %esi
0x06fed7e3:  c3                       retl     

----------------
IN: 
0x06fed844:  31 c0                    xorl     %eax, %eax
0x06fed846:  89 44 24 14              movl     %eax, 0x14(%esp)
0x06fed84a:  89 44 24 18              movl     %eax, 0x18(%esp)
0x06fed84e:  8b 15 10 ff ff 06        movl     0x6ffff10, %edx
0x06fed854:  31 c0                    xorl     %eax, %eax
0x06fed856:  40                       incl     %eax
0x06fed857:  89 c1                    movl     %eax, %ecx
0x06fed859:  c1 e1 10                 shll     $0x10, %ecx
0x06fed85c:  39 ca                    cmpl     %ecx, %edx
0x06fed85e:  72 05                    jb       0x6fed865

----------------
IN: 
0x06fed860:  c6 44 04 13 06           movb     $6, 0x13(%esp, %eax)
0x06fed865:  83 f8 08                 cmpl     $8, %eax
0x06fed868:  75 ec                    jne      0x6fed856

----------------
IN: 
0x06fed856:  40                       incl     %eax
0x06fed857:  89 c1                    movl     %eax, %ecx
0x06fed859:  c1 e1 10                 shll     $0x10, %ecx
0x06fed85c:  39 ca                    cmpl     %ecx, %edx
0x06fed85e:  72 05                    jb       0x6fed865

----------------
IN: 
0x06fed86a:  8b 54 24 14              movl     0x14(%esp), %edx
0x06fed86e:  8b 4c 24 18              movl     0x18(%esp), %ecx
0x06fed872:  b8 50 02 00 00           movl     $0x250, %eax
0x06fed877:  e8 21 ff ff ff           calll    0x6fed79d

----------------
IN: 
0x06fed87c:  31 ed                    xorl     %ebp, %ebp
0x06fed87e:  89 6c 24 14              movl     %ebp, 0x14(%esp)
0x06fed882:  89 6c 24 18              movl     %ebp, 0x18(%esp)
0x06fed886:  8b 0d 10 ff ff 06        movl     0x6ffff10, %ecx
0x06fed88c:  8d 54 24 14              leal     0x14(%esp), %edx
0x06fed890:  b8 00 40 08 00           movl     $0x84000, %eax
0x06fed895:  39 c1                    cmpl     %eax, %ecx
0x06fed897:  72 03                    jb       0x6fed89c

----------------
IN: 
0x06fed899:  c6 02 06                 movb     $6, (%edx)
0x06fed89c:  05 00 40 00 00           addl     $0x4000, %eax
0x06fed8a1:  42                       incl     %edx
0x06fed8a2:  3d 00 40 0a 00           cmpl     $0xa4000, %eax
0x06fed8a7:  75 ec                    jne      0x6fed895

----------------
IN: 
0x06fed895:  39 c1                    cmpl     %eax, %ecx
0x06fed897:  72 03                    jb       0x6fed89c

----------------
IN: 
0x06fed8a9:  8b 54 24 14              movl     0x14(%esp), %edx
0x06fed8ad:  8b 4c 24 18              movl     0x18(%esp), %ecx
0x06fed8b1:  b8 58 02 00 00           movl     $0x258, %eax
0x06fed8b6:  e8 e2 fe ff ff           calll    0x6fed79d

----------------
IN: 
0x06fed8bb:  31 d2                    xorl     %edx, %edx
0x06fed8bd:  31 c9                    xorl     %ecx, %ecx
0x06fed8bf:  b8 59 02 00 00           movl     $0x259, %eax
0x06fed8c4:  e8 d4 fe ff ff           calll    0x6fed79d

----------------
IN: 
0x06fed8c9:  31 db                    xorl     %ebx, %ebx
0x06fed8cb:  31 f6                    xorl     %esi, %esi
0x06fed8cd:  89 74 24 14              movl     %esi, 0x14(%esp)
0x06fed8d1:  89 74 24 18              movl     %esi, 0x18(%esp)
0x06fed8d5:  8b 0d 10 ff ff 06        movl     0x6ffff10, %ecx
0x06fed8db:  89 da                    movl     %ebx, %edx
0x06fed8dd:  c1 e2 0f                 shll     $0xf, %edx
0x06fed8e0:  31 c0                    xorl     %eax, %eax
0x06fed8e2:  40                       incl     %eax
0x06fed8e3:  8d b2 00 10 0c 00        leal     0xc1000(%edx), %esi
0x06fed8e9:  39 f1                    cmpl     %esi, %ecx
0x06fed8eb:  72 05                    jb       0x6fed8f2

----------------
IN: 
0x06fed8ed:  c6 44 04 13 05           movb     $5, 0x13(%esp, %eax)
0x06fed8f2:  81 c2 00 10 00 00        addl     $0x1000, %edx
0x06fed8f8:  83 f8 08                 cmpl     $8, %eax
0x06fed8fb:  75 e5                    jne      0x6fed8e2

----------------
IN: 
0x06fed8e2:  40                       incl     %eax
0x06fed8e3:  8d b2 00 10 0c 00        leal     0xc1000(%edx), %esi
0x06fed8e9:  39 f1                    cmpl     %esi, %ecx
0x06fed8eb:  72 05                    jb       0x6fed8f2

----------------
IN: 
0x06fed8fd:  8d 83 68 02 00 00        leal     0x268(%ebx), %eax
0x06fed903:  8b 54 24 14              movl     0x14(%esp), %edx
0x06fed907:  8b 4c 24 18              movl     0x18(%esp), %ecx
0x06fed90b:  e8 8d fe ff ff           calll    0x6fed79d

----------------
IN: 
0x06fed910:  43                       incl     %ebx
0x06fed911:  83 fb 08                 cmpl     $8, %ebx
0x06fed914:  75 b5                    jne      0x6fed8cb

----------------
IN: 
0x06fed8cb:  31 f6                    xorl     %esi, %esi
0x06fed8cd:  89 74 24 14              movl     %esi, 0x14(%esp)
0x06fed8d1:  89 74 24 18              movl     %esi, 0x18(%esp)
0x06fed8d5:  8b 0d 10 ff ff 06        movl     0x6ffff10, %ecx
0x06fed8db:  89 da                    movl     %ebx, %edx
0x06fed8dd:  c1 e2 0f                 shll     $0xf, %edx
0x06fed8e0:  31 c0                    xorl     %eax, %eax
0x06fed8e2:  40                       incl     %eax
0x06fed8e3:  8d b2 00 10 0c 00        leal     0xc1000(%edx), %esi
0x06fed8e9:  39 f1                    cmpl     %esi, %ecx
0x06fed8eb:  72 05                    jb       0x6fed8f2

----------------
IN: 
0x06fed916:  8d 6c 24 0c              leal     0xc(%esp), %ebp
0x06fed91a:  55                       pushl    %ebp
0x06fed91b:  8d 74 24 0c              leal     0xc(%esp), %esi
0x06fed91f:  56                       pushl    %esi
0x06fed920:  8d 4c 24 0c              leal     0xc(%esp), %ecx
0x06fed924:  8d 54 24 08              leal     8(%esp), %edx
0x06fed928:  b8 00 00 00 80           movl     $0x80000000, %eax
0x06fed92d:  e8 83 b9 0f f9           calll    0xe92b5

----------------
IN: 
0x06fed932:  59                       popl     %ecx
0x06fed933:  5b                       popl     %ebx
0x06fed934:  bb 24 00 00 00           movl     $0x24, %ebx
0x06fed939:  81 3c 24 07 00 00 80     cmpl     $0x80000007, (%esp)
0x06fed940:  76 1b                    jbe      0x6fed95d

----------------
IN: 
0x06fed942:  55                       pushl    %ebp
0x06fed943:  56                       pushl    %esi
0x06fed944:  8d 4c 24 0c              leal     0xc(%esp), %ecx
0x06fed948:  8d 54 24 08              leal     8(%esp), %edx
0x06fed94c:  b8 08 00 00 80           movl     $0x80000008, %eax
0x06fed951:  e8 5f b9 0f f9           calll    0xe92b5

----------------
IN: 
0x06fed956:  0f b6 5c 24 08           movzbl   8(%esp), %ebx
0x06fed95b:  58                       popl     %eax
0x06fed95c:  5a                       popl     %edx
0x06fed95d:  31 f6                    xorl     %esi, %esi
0x06fed95f:  8d 2c 36                 leal     (%esi, %esi), %ebp
0x06fed962:  8d 85 00 02 00 00        leal     0x200(%ebp), %eax
0x06fed968:  31 d2                    xorl     %edx, %edx
0x06fed96a:  31 c9                    xorl     %ecx, %ecx
0x06fed96c:  e8 2c fe ff ff           calll    0x6fed79d

----------------
IN: 
0x06fed971:  8d 85 01 02 00 00        leal     0x201(%ebp), %eax
0x06fed977:  31 d2                    xorl     %edx, %edx
0x06fed979:  31 c9                    xorl     %ecx, %ecx
0x06fed97b:  e8 1d fe ff ff           calll    0x6fed79d

----------------
IN: 
0x06fed980:  46                       incl     %esi
0x06fed981:  39 f7                    cmpl     %esi, %edi
0x06fed983:  7f da                    jg       0x6fed95f

----------------
IN: 
0x06fed95f:  8d 2c 36                 leal     (%esi, %esi), %ebp
0x06fed962:  8d 85 00 02 00 00        leal     0x200(%ebp), %eax
0x06fed968:  31 d2                    xorl     %edx, %edx
0x06fed96a:  31 c9                    xorl     %ecx, %ecx
0x06fed96c:  e8 2c fe ff ff           calll    0x6fed79d

----------------
IN: 
0x06fed985:  8b 15 98 fd ff 06        movl     0x6fffd98, %edx
0x06fed98b:  8b 0d 9c fd ff 06        movl     0x6fffd9c, %ecx
0x06fed991:  b8 00 02 00 00           movl     $0x200, %eax
0x06fed996:  e8 02 fe ff ff           calll    0x6fed79d

----------------
IN: 
0x06fed99b:  8b 35 98 fd ff 06        movl     0x6fffd98, %esi
0x06fed9a1:  8b 3d 9c fd ff 06        movl     0x6fffd9c, %edi
0x06fed9a7:  4f                       decl     %edi
0x06fed9a8:  88 d9                    movb     %bl, %cl
0x06fed9aa:  b8 ff ff ff ff           movl     $0xffffffff, %eax
0x06fed9af:  89 c2                    movl     %eax, %edx
0x06fed9b1:  d3 e0                    shll     %cl, %eax
0x06fed9b3:  f6 c1 20                 testb    $0x20, %cl
0x06fed9b6:  74 04                    je       0x6fed9bc

----------------
IN: 
0x06fed9b8:  89 c2                    movl     %eax, %edx
0x06fed9ba:  31 c0                    xorl     %eax, %eax
0x06fed9bc:  f7 d0                    notl     %eax
0x06fed9be:  f7 d2                    notl     %edx
0x06fed9c0:  89 d1                    movl     %edx, %ecx
0x06fed9c2:  89 c2                    movl     %eax, %edx
0x06fed9c4:  21 f2                    andl     %esi, %edx
0x06fed9c6:  21 f9                    andl     %edi, %ecx
0x06fed9c8:  80 ce 08                 orb      $8, %dh
0x06fed9cb:  b8 01 02 00 00           movl     $0x201, %eax
0x06fed9d0:  e8 c8 fd ff ff           calll    0x6fed79d

----------------
IN: 
0x06fed9d5:  ba 06 0c 00 00           movl     $0xc06, %edx
0x06fed9da:  31 c9                    xorl     %ecx, %ecx
0x06fed9dc:  b8 ff 02 00 00           movl     $0x2ff, %eax
0x06fed9e1:  e8 b7 fd ff ff           calll    0x6fed79d

----------------
IN: 
0x06fed9e6:  83 c4 1c                 addl     $0x1c, %esp
0x06fed9e9:  5b                       popl     %ebx
0x06fed9ea:  5e                       popl     %esi
0x06fed9eb:  5f                       popl     %edi
0x06fed9ec:  5d                       popl     %ebp
0x06fed9ed:  c3                       retl     

----------------
IN: 
0x06ff58ee:  31 d2                    xorl     %edx, %edx
0x06ff58f0:  31 c9                    xorl     %ecx, %ecx
0x06ff58f2:  b8 e1 17 0f 00           movl     $0xf17e1, %eax
0x06ff58f7:  e8 63 7a ff ff           calll    0x6fed35f

----------------
IN: 
0x06ff58fc:  89 d1                    movl     %edx, %ecx
0x06ff58fe:  85 d2                    testl    %edx, %edx
0x06ff5900:  75 04                    jne      0x6ff5906

----------------
IN: 
0x06ff5902:  85 c0                    testl    %eax, %eax
0x06ff5904:  74 0c                    je       0x6ff5912

----------------
IN: 
0x06ff5912:  31 d2                    xorl     %edx, %edx
0x06ff5914:  31 c9                    xorl     %ecx, %ecx
0x06ff5916:  b8 12 0f 0f 00           movl     $0xf0f12, %eax
0x06ff591b:  e8 3f 7a ff ff           calll    0x6fed35f

----------------
IN: 
0x06ff5920:  89 c6                    movl     %eax, %esi
0x06ff5922:  a3 24 4b 0f 00           movl     %eax, 0xf4b24
0x06ff5927:  e8 16 62 0f f9           calll    0xebb42

----------------
IN: 
0x000ebb42:  51                       pushl    %ecx
0x000ebb43:  66 c7 44 24 02 00 00     movw     $0, 2(%esp)
0x000ebb4a:  83 3d c4 4c 0f 00 00     cmpl     $0, 0xf4cc4
0x000ebb51:  74 13                    je       0xebb66

----------------
IN: 
0x000ebb53:  b9 02 00 00 00           movl     $2, %ecx
0x000ebb58:  ba 05 00 00 00           movl     $5, %edx
0x000ebb5d:  8d 44 24 02              leal     2(%esp), %eax
0x000ebb61:  e8 a6 ff ff ff           calll    0xebb0c

----------------
IN: 
0x000ebb66:  b0 88                    movb     $0x88, %al
0x000ebb68:  e6 70                    outb     %al, $0x70

----------------
IN: 
0x000ebb6a:  e4 71                    inb      $0x71, %al

----------------
IN: 
0x000ebb6c:  fe c0                    incb     %al
0x000ebb6e:  74 16                    je       0xebb86

----------------
IN: 
0x000ebb70:  b0 df                    movb     $0xdf, %al
0x000ebb72:  e6 70                    outb     %al, $0x70

----------------
IN: 
0x000ebb74:  e4 71                    inb      $0x71, %al

----------------
IN: 
0x000ebb76:  0f b6 c0                 movzbl   %al, %eax
0x000ebb79:  40                       incl     %eax
0x000ebb7a:  66 39 44 24 02           cmpw     %ax, 2(%esp)
0x000ebb7f:  73 05                    jae      0xebb86

----------------
IN: 
0x000ebb86:  66 8b 44 24 02           movw     2(%esp), %ax
0x000ebb8b:  5a                       popl     %edx
0x000ebb8c:  c3                       retl     

----------------
IN: 
0x06ff592c:  0f b7 c0                 movzwl   %ax, %eax
0x06ff592f:  39 c6                    cmpl     %eax, %esi
0x06ff5931:  73 05                    jae      0x6ff5938

----------------
IN: 
0x06ff5938:  e8 c1 81 0f f9           calll    0xedafe

----------------
IN: 
0x000edafe:  57                       pushl    %edi
0x000edaff:  56                       pushl    %esi
0x000edb00:  53                       pushl    %ebx
0x000edb01:  83 ec 10                 subl     $0x10, %esp
0x000edb04:  8d 44 24 0c              leal     0xc(%esp), %eax
0x000edb08:  50                       pushl    %eax
0x000edb09:  8d 44 24 0c              leal     0xc(%esp), %eax
0x000edb0d:  50                       pushl    %eax
0x000edb0e:  8d 4c 24 0c              leal     0xc(%esp), %ecx
0x000edb12:  8d 54 24 08              leal     8(%esp), %edx
0x000edb16:  b8 01 00 00 00           movl     $1, %eax
0x000edb1b:  e8 95 b7 ff ff           calll    0xe92b5

----------------
IN: 
0x000edb20:  5a                       popl     %edx
0x000edb21:  59                       popl     %ecx
0x000edb22:  83 3c 24 00              cmpl     $0, (%esp)
0x000edb26:  74 07                    je       0xedb2f

----------------
IN: 
0x000edb28:  f6 44 24 0d 02           testb    $2, 0xd(%esp)
0x000edb2d:  75 1a                    jne      0xedb49

----------------
IN: 
0x000edb49:  c7 05 20 4b 0f 00 01 00  movl     $1, 0xf4b20
0x000edb51:  00 00
0x000edb53:  8b 35 00 00 01 00        movl     0x10000, %esi
0x000edb59:  8b 3d 04 00 01 00        movl     0x10004, %edi
0x000edb5f:  b8 7b d0 00 00           movl     $0xd07b, %eax
0x000edb64:  c1 e0 08                 shll     $8, %eax
0x000edb67:  31 d2                    xorl     %edx, %edx
0x000edb69:  0c ea                    orb      $0xea, %al
0x000edb6b:  80 ca f0                 orb      $0xf0, %dl
0x000edb6e:  a3 00 00 01 00           movl     %eax, 0x10000
0x000edb73:  89 15 04 00 01 00        movl     %edx, 0x10004
0x000edb79:  a1 f0 00 e0 fe           movl     0xfee000f0, %eax
0x000edb7e:  80 cc 01                 orb      $1, %ah
0x000edb81:  a3 f0 00 e0 fe           movl     %eax, 0xfee000f0
0x000edb86:  c7 05 50 03 e0 fe 00 87  movl     $0x8700, 0xfee00350
0x000edb8e:  00 00
0x000edb90:  c7 05 60 03 e0 fe 00 84  movl     $0x8400, 0xfee00360
0x000edb98:  00 00
0x000edb9a:  c7 05 e8 4a 0f 00 01 00  movl     $1, 0xf4ae8
0x000edba2:  00 00
0x000edba4:  c7 05 00 03 e0 fe 00 45  movl     $0xc4500, 0xfee00300
0x000edbac:  0c 00
0x000edbae:  c7 05 00 03 e0 fe 10 46  movl     $0xc4610, 0xfee00300
0x000edbb6:  0c 00
0x000edbb8:  e8 f6 b8 ff ff           calll    0xe94b3

----------------
IN: 
0x000edb79:  a1 f0 00 e0 fe           movl     0xfee000f0, %eax

----------------
IN: 
0x000edb7e:  80 cc 01                 orb      $1, %ah
0x000edb81:  a3 f0 00 e0 fe           movl     %eax, 0xfee000f0
0x000edb86:  c7 05 50 03 e0 fe 00 87  movl     $0x8700, 0xfee00350
0x000edb8e:  00 00
0x000edb90:  c7 05 60 03 e0 fe 00 84  movl     $0x8400, 0xfee00360
0x000edb98:  00 00
0x000edb9a:  c7 05 e8 4a 0f 00 01 00  movl     $1, 0xf4ae8
0x000edba2:  00 00
0x000edba4:  c7 05 00 03 e0 fe 00 45  movl     $0xc4500, 0xfee00300
0x000edbac:  0c 00
0x000edbae:  c7 05 00 03 e0 fe 10 46  movl     $0xc4610, 0xfee00300
0x000edbb6:  0c 00
0x000edbb8:  e8 f6 b8 ff ff           calll    0xe94b3

----------------
IN: 
0x000edb81:  a3 f0 00 e0 fe           movl     %eax, 0xfee000f0

----------------
IN: 
0x000edb86:  c7 05 50 03 e0 fe 00 87  movl     $0x8700, 0xfee00350
0x000edb8e:  00 00
0x000edb90:  c7 05 60 03 e0 fe 00 84  movl     $0x8400, 0xfee00360
0x000edb98:  00 00
0x000edb9a:  c7 05 e8 4a 0f 00 01 00  movl     $1, 0xf4ae8
0x000edba2:  00 00
0x000edba4:  c7 05 00 03 e0 fe 00 45  movl     $0xc4500, 0xfee00300
0x000edbac:  0c 00
0x000edbae:  c7 05 00 03 e0 fe 10 46  movl     $0xc4610, 0xfee00300
0x000edbb6:  0c 00
0x000edbb8:  e8 f6 b8 ff ff           calll    0xe94b3

----------------
IN: 
0x000edb86:  c7 05 50 03 e0 fe 00 87  movl     $0x8700, 0xfee00350
0x000edb8e:  00 00

----------------
IN: 
0x000edb90:  c7 05 60 03 e0 fe 00 84  movl     $0x8400, 0xfee00360
0x000edb98:  00 00
0x000edb9a:  c7 05 e8 4a 0f 00 01 00  movl     $1, 0xf4ae8
0x000edba2:  00 00
0x000edba4:  c7 05 00 03 e0 fe 00 45  movl     $0xc4500, 0xfee00300
0x000edbac:  0c 00
0x000edbae:  c7 05 00 03 e0 fe 10 46  movl     $0xc4610, 0xfee00300
0x000edbb6:  0c 00
0x000edbb8:  e8 f6 b8 ff ff           calll    0xe94b3

----------------
IN: 
0x000edb90:  c7 05 60 03 e0 fe 00 84  movl     $0x8400, 0xfee00360
0x000edb98:  00 00

----------------
IN: 
0x000edb9a:  c7 05 e8 4a 0f 00 01 00  movl     $1, 0xf4ae8
0x000edba2:  00 00
0x000edba4:  c7 05 00 03 e0 fe 00 45  movl     $0xc4500, 0xfee00300
0x000edbac:  0c 00
0x000edbae:  c7 05 00 03 e0 fe 10 46  movl     $0xc4610, 0xfee00300
0x000edbb6:  0c 00
0x000edbb8:  e8 f6 b8 ff ff           calll    0xe94b3

----------------
IN: 
0x000edba4:  c7 05 00 03 e0 fe 00 45  movl     $0xc4500, 0xfee00300
0x000edbac:  0c 00

----------------
IN: 
0x000edbae:  c7 05 00 03 e0 fe 10 46  movl     $0xc4610, 0xfee00300
0x000edbb6:  0c 00
0x000edbb8:  e8 f6 b8 ff ff           calll    0xe94b3

----------------
IN: 
0x000edbae:  c7 05 00 03 e0 fe 10 46  movl     $0xc4610, 0xfee00300
0x000edbb6:  0c 00

----------------
IN: 
0x000edbb8:  e8 f6 b8 ff ff           calll    0xe94b3

----------------
IN: 
0x000e94b3:  53                       pushl    %ebx
0x000e94b4:  83 ec 10                 subl     $0x10, %esp
0x000e94b7:  8d 44 24 0c              leal     0xc(%esp), %eax
0x000e94bb:  50                       pushl    %eax
0x000e94bc:  8d 44 24 0c              leal     0xc(%esp), %eax
0x000e94c0:  50                       pushl    %eax
0x000e94c1:  8d 4c 24 0c              leal     0xc(%esp), %ecx
0x000e94c5:  8d 54 24 08              leal     8(%esp), %edx
0x000e94c9:  b8 01 00 00 00           movl     $1, %eax
0x000e94ce:  e8 e2 fd ff ff           calll    0xe92b5

----------------
IN: 
0x000e94d3:  58                       popl     %eax
0x000e94d4:  5a                       popl     %edx
0x000e94d5:  81 3d 24 4b 0f 00 ff 00  cmpl     $0xff, 0xf4b24
0x000e94dd:  00 00
0x000e94df:  77 1e                    ja       0xe94ff

----------------
IN: 
0x000e94e1:  8b 54 24 04              movl     4(%esp), %edx
0x000e94e5:  89 d0                    movl     %edx, %eax
0x000e94e7:  c1 e8 18                 shrl     $0x18, %eax
0x000e94ea:  c1 ea 1d                 shrl     $0x1d, %edx
0x000e94ed:  bb 01 00 00 00           movl     $1, %ebx
0x000e94f2:  88 c1                    movb     %al, %cl
0x000e94f4:  d3 e3                    shll     %cl, %ebx
0x000e94f6:  09 1c 95 00 4b 0f 00     orl      %ebx, 0xf4b00(, %edx, 4)
0x000e94fd:  eb 1d                    jmp      0xe951c

----------------
IN: 
0x000e951c:  83 c4 10                 addl     $0x10, %esp
0x000e951f:  5b                       popl     %ebx
0x000e9520:  c3                       retl     

----------------
IN: 
0x000edbbd:  e8 80 df ff ff           calll    0xebb42

----------------
IN: 
0x000edbc2:  0f b7 d8                 movzwl   %ax, %ebx
0x000edbc5:  3b 1d 20 4b 0f 00        cmpl     0xf4b20, %ebx
0x000edbcb:  74 1f                    je       0xedbec

----------------
IN: 
0x000edbec:  e8 7d dc ff ff           calll    0xeb86e

----------------
IN: 
0x000eb86e:  53                       pushl    %ebx
0x000eb86f:  89 e0                    movl     %esp, %eax
0x000eb871:  bb c8 61 0f 00           movl     $0xf61c8, %ebx
0x000eb876:  3d 00 00 10 00           cmpl     $0x100000, %eax
0x000eb87b:  76 07                    jbe      0xeb884

----------------
IN: 
0x000eb884:  89 d8                    movl     %ebx, %eax
0x000eb886:  e8 b2 d6 ff ff           calll    0xe8f3d

----------------
IN: 
0x000e8f3d:  8b 50 04                 movl     4(%eax), %edx
0x000e8f40:  8d 4a fc                 leal     -4(%edx), %ecx
0x000e8f43:  39 c8                    cmpl     %ecx, %eax
0x000e8f45:  74 13                    je       0xe8f5a

----------------
IN: 
0x000e8f5a:  c3                       retl     

----------------
IN: 
0x000eb88b:  81 fb c8 61 0f 00        cmpl     $0xf61c8, %ebx
0x000eb891:  75 06                    jne      0xeb899

----------------
IN: 
0x000eb893:  5b                       popl     %ebx
0x000eb894:  e9 bb ff ff ff           jmp      0xeb854

----------------
IN: 
0x000eb854:  80 3d c1 4d 0f 00 00     cmpb     $0, 0xf4dc1
0x000eb85b:  75 03                    jne      0xeb860

----------------
IN: 
0x000eb860:  b9 0e 8a 0f 00           movl     $0xf8a0e, %ecx
0x000eb865:  31 d2                    xorl     %edx, %edx
0x000eb867:  31 c0                    xorl     %eax, %eax
0x000eb869:  e9 5e ff ff ff           jmp      0xeb7cc

----------------
IN: 
0x000eb7cc:  55                       pushl    %ebp
0x000eb7cd:  57                       pushl    %edi
0x000eb7ce:  56                       pushl    %esi
0x000eb7cf:  53                       pushl    %ebx
0x000eb7d0:  89 c6                    movl     %eax, %esi
0x000eb7d2:  89 e0                    movl     %esp, %eax
0x000eb7d4:  3d 00 00 10 00           cmpl     $0x100000, %eax
0x000eb7d9:  76 0a                    jbe      0xeb7e5

----------------
IN: 
0x000eb7e5:  89 d3                    movl     %edx, %ebx
0x000eb7e7:  a0 dc 8e 0e 00           movb     0xe8edc, %al
0x000eb7ec:  8d a9 00 00 f1 ff        leal     -0xf0000(%ecx), %ebp
0x000eb7f2:  0f b7 3d e0 8e 0e 00     movzwl   0xe8ee0, %edi
0x000eb7f9:  3c 02                    cmpb     $2, %al
0x000eb7fb:  75 1d                    jne      0xeb81a

----------------
IN: 
0x000eb81a:  b9 94 cf 0f 00           movl     $0xfcf94, %ecx
0x000eb81f:  fe c8                    decb     %al
0x000eb821:  74 0e                    je       0xeb831

----------------
IN: 
0x000eb831:  89 f0                    movl     %esi, %eax
0x000eb833:  ba 56 62 00 00           movl     $0x6256, %edx
0x000eb838:  ff e1                    jmpl     *%ecx

----------------
IN: 
0x000fcf94:  b9 30 00 00 00           movl     $0x30, %ecx
0x000fcf99:  8e d9                    movl     %ecx, %ds

----------------
IN: 
0x000fcf9b:  8e c1                    movl     %ecx, %es

----------------
IN: 
0x000fcf9d:  8e d1                    movl     %ecx, %ss

----------------
IN: 
0x000fcf9f:  8e e1                    movl     %ecx, %fs

----------------
IN: 
0x000fcfa1:  8e e9                    movl     %ecx, %gs
0x000fcfa3:  66 ea a9 cf 28 00        ljmpw    $0x28:$0xcfa9

----------------
IN: 
0x000fcfa9:  0f 20 c1                 movl     %cr0, %ecx

----------------
IN: 
0x000fcfac:  66 83 e1 fe              andl     $0xfffffffe, %ecx
0x000fcfb0:  0f 22 c1                 movl     %ecx, %cr0

----------------
IN: 
0x000fcfb3:  ea b8 cf 00 f0           ljmpw    $0xf000:$0xcfb8

----------------
IN: 
0x000fcfb8:  2e 0f 01 1e 20 62        lidtw    %cs:0x6220
0x000fcfbe:  31 c9                    xorw     %cx, %cx
0x000fcfc0:  8e e1                    movw     %cx, %fs
0x000fcfc2:  8e e9                    movw     %cx, %gs
0x000fcfc4:  8e c1                    movw     %cx, %es
0x000fcfc6:  8e d9                    movw     %cx, %ds
0x000fcfc8:  8e d1                    movw     %cx, %ss

----------------
IN: 
0x000fcfca:  66 ff e2                 jmpl     *%edx

----------------
IN: 
0x000f6256:  66 89 f9                 movl     %edi, %ecx
0x000f6259:  66 c1 e7 04              shll     $4, %edi
0x000f625d:  8e d1                    movw     %cx, %ss

----------------
IN: 
0x000f625f:  66 29 fc                 subl     %edi, %esp

----------------
IN: 
0x000f6262:  8e d9                    movw     %cx, %ds
0x000f6264:  66 89 da                 movl     %ebx, %edx
0x000f6267:  66 89 e9                 movl     %ebp, %ecx
0x000f626a:  66 e8 13 1b 00 00        calll    0xf7d83

----------------
IN: 
0x000f7d83:  66 57                    pushl    %edi
0x000f7d85:  66 56                    pushl    %esi
0x000f7d87:  66 53                    pushl    %ebx
0x000f7d89:  66 53                    pushl    %ebx
0x000f7d8b:  66 89 c7                 movl     %eax, %edi
0x000f7d8e:  67 66 89 14 24           movl     %edx, (%esp)
0x000f7d93:  66 89 ce                 movl     %ecx, %esi
0x000f7d96:  66 e8 28 f2 ff ff        calll    0xf6fc4

----------------
IN: 
0x000f6fc4:  66 53                    pushl    %ebx
0x000f6fc6:  66 83 ec 0c              subl     $0xc, %esp
0x000f6fca:  66 bb 00 d9 00 00        movl     $0xd900, %ebx
0x000f6fd0:  8e c3                    movw     %bx, %es
0x000f6fd2:  26 a0 dc fe              movb     %es:0xfedc, %al
0x000f6fd6:  67 88 44 24 03           movb     %al, 3(%esp)
0x000f6fdb:  66 31 c0                 xorl     %eax, %eax
0x000f6fde:  26 a2 dc fe              movb     %al, %es:0xfedc
0x000f6fe2:  66 31 c0                 xorl     %eax, %eax
0x000f6fe5:  26 a3 e0 fe              movw     %ax, %es:0xfee0
0x000f6fe9:  67 80 7c 24 03 02        cmpb     $2, 3(%esp)
0x000f6fef:  74 5b                    je       0xf704c

----------------
IN: 
0x000f6ff1:  26 a0 de fe              movb     %es:0xfede, %al
0x000f6ff5:  84 c0                    testb    %al, %al
0x000f6ff7:  75 09                    jne      0xf7002

----------------
IN: 
0x000f7002:  8e c3                    movw     %bx, %es
0x000f7004:  26 a1 ec fe              movw     %es:0xfeec, %ax
0x000f7008:  67 89 44 24 06           movw     %ax, 6(%esp)
0x000f700d:  26 66 a1 ee fe           movl     %es:0xfeee, %eax
0x000f7012:  67 66 89 44 24 08        movl     %eax, 8(%esp)
0x000f7018:  67 66 0f 01 54 24 06     lgdtl    6(%esp)
0x000f701f:  8e c3                    movw     %bx, %es
0x000f7021:  26 a1 e2 fe              movw     %es:0xfee2, %ax
0x000f7025:  8e e0                    movw     %ax, %fs
0x000f7027:  26 a1 e4 fe              movw     %es:0xfee4, %ax
0x000f702b:  8e e8                    movw     %ax, %gs
0x000f702d:  26 66 a1 e8 fe           movl     %es:0xfee8, %eax
0x000f7032:  66 25 00 00 00 60        andl     $0x60000000, %eax
0x000f7038:  66 89 c2                 movl     %eax, %edx
0x000f703b:  74 0f                    je       0xf704c

----------------
IN: 
0x000f704c:  8e c3                    movw     %bx, %es
0x000f704e:  26 a0 dd fe              movb     %es:0xfedd, %al
0x000f7052:  84 c0                    testb    %al, %al
0x000f7054:  78 04                    js       0xf705a

----------------
IN: 
0x000f7056:  e6 70                    outb     %al, $0x70

----------------
IN: 
0x000f7058:  e4 71                    inb      $0x71, %al

----------------
IN: 
0x000f705a:  67 8a 44 24 03           movb     3(%esp), %al
0x000f705f:  66 83 c4 0c              addl     $0xc, %esp
0x000f7063:  66 5b                    popl     %ebx
0x000f7065:  66 c3                    retl     

----------------
IN: 
0x000f7d9c:  88 c3                    movb     %al, %bl
0x000f7d9e:  67 66 8b 14 24           movl     (%esp), %edx
0x000f7da3:  66 89 f8                 movl     %edi, %eax
0x000f7da6:  66 ff d6                 calll    *%esi

----------------
IN: 
0x000f8a0e:  66 e8 19 e2 ff ff        calll    0xf6c2d

----------------
IN: 
0x000f6c2d:  8c d0                    movw     %ss, %ax
0x000f6c2f:  66 0f b7 c0              movzwl   %ax, %eax
0x000f6c33:  66 31 d2                 xorl     %edx, %edx
0x000f6c36:  66 3d 00 d9 00 00        cmpl     $0xd900, %eax
0x000f6c3c:  75 0f                    jne      0xf6c4d

----------------
IN: 
0x000f6c4d:  66 89 d0                 movl     %edx, %eax
0x000f6c50:  66 c3                    retl     

----------------
IN: 
0x000f8a14:  66 85 c0                 testl    %eax, %eax
0x000f8a17:  74 0f                    je       0xf8a28

----------------
IN: 
0x000f8a28:  fb                       sti      

----------------
IN: 
0x000f8a29:  90                       nop      

----------------
IN: 
0x000f8a2a:  f3 90                    pause    

----------------
IN: 
0x000f8a2c:  fa                       cli      
0x000f8a2d:  fc                       cld      
0x000f8a2e:  66 c3                    retl     

----------------
IN: 
0x000f7da9:  66 89 c6                 movl     %eax, %esi
0x000f7dac:  66 0f b6 c3              movzbl   %bl, %eax
0x000f7db0:  66 e8 de ed ff ff        calll    0xf6b94

----------------
IN: 
0x000f6b94:  66 56                    pushl    %esi
0x000f6b96:  66 53                    pushl    %ebx
0x000f6b98:  66 83 ec 08              subl     $8, %esp
0x000f6b9c:  66 89 c3                 movl     %eax, %ebx
0x000f6b9f:  3c 02                    cmpb     $2, %al
0x000f6ba1:  74 53                    je       0xf6bf6

----------------
IN: 
0x000f6ba3:  0f 20 c0                 movl     %cr0, %eax

----------------
IN: 
0x000f6ba6:  a8 01                    testb    $1, %al
0x000f6ba8:  74 06                    je       0xf6bb0

----------------
IN: 
0x000f6bb0:  66 be 00 d9 00 00        movl     $0xd900, %esi
0x000f6bb6:  8e c6                    movw     %si, %es
0x000f6bb8:  26 66 a3 e8 fe           movl     %eax, %es:0xfee8
0x000f6bbd:  8c e0                    movw     %fs, %ax
0x000f6bbf:  26 a3 e2 fe              movw     %ax, %es:0xfee2
0x000f6bc3:  8c e8                    movw     %gs, %ax
0x000f6bc5:  26 a3 e4 fe              movw     %ax, %es:0xfee4
0x000f6bc9:  67 66 0f 01 44 24 02     sgdtl    2(%esp)
0x000f6bd0:  67 8b 44 24 02           movw     2(%esp), %ax
0x000f6bd5:  26 a3 ec fe              movw     %ax, %es:0xfeec
0x000f6bd9:  67 66 8b 44 24 04        movl     4(%esp), %eax
0x000f6bdf:  26 66 a3 ee fe           movl     %eax, %es:0xfeee
0x000f6be4:  66 b8 01 00 00 00        movl     $1, %eax
0x000f6bea:  66 e8 70 ff ff ff        calll    0xf6b60

----------------
IN: 
0x000f6b60:  66 89 c1                 movl     %eax, %ecx
0x000f6b63:  e4 92                    inb      $0x92, %al

----------------
IN: 
0x000f6b65:  88 c2                    movb     %al, %dl
0x000f6b67:  d0 ea                    shrb     $1, %dl
0x000f6b69:  66 83 e2 01              andl     $1, %edx
0x000f6b6d:  84 c9                    testb    %cl, %cl
0x000f6b6f:  0f 95 c1                 setne    %cl
0x000f6b72:  38 ca                    cmpb     %cl, %dl
0x000f6b74:  74 06                    je       0xf6b7c

----------------
IN: 
0x000f6b7c:  88 d0                    movb     %dl, %al
0x000f6b7e:  66 c3                    retl     

----------------
IN: 
0x000f6bf0:  8e c6                    movw     %si, %es
0x000f6bf2:  26 a2 de fe              movb     %al, %es:0xfede
0x000f6bf6:  8c d0                    movw     %ss, %ax
0x000f6bf8:  66 b9 00 d9 00 00        movl     $0xd900, %ecx
0x000f6bfe:  8e c1                    movw     %cx, %es
0x000f6c00:  26 a3 e0 fe              movw     %ax, %es:0xfee0
0x000f6c04:  e4 70                    inb      $0x70, %al

----------------
IN: 
0x000f6c06:  88 c2                    movb     %al, %dl
0x000f6c08:  84 c0                    testb    %al, %al
0x000f6c0a:  78 08                    js       0xf6c14

----------------
IN: 
0x000f6c14:  8e c1                    movw     %cx, %es
0x000f6c16:  26 88 16 dd fe           movb     %dl, %es:0xfedd
0x000f6c1b:  26 88 1e dc fe           movb     %bl, %es:0xfedc
0x000f6c20:  66 31 c0                 xorl     %eax, %eax
0x000f6c23:  66 83 c4 08              addl     $8, %esp
0x000f6c27:  66 5b                    popl     %ebx
0x000f6c29:  66 5e                    popl     %esi
0x000f6c2b:  66 c3                    retl     

----------------
IN: 
0x000f7db6:  66 89 f0                 movl     %esi, %eax
0x000f7db9:  66 5e                    popl     %esi
0x000f7dbb:  66 5b                    popl     %ebx
0x000f7dbd:  66 5e                    popl     %esi
0x000f7dbf:  66 5f                    popl     %edi
0x000f7dc1:  66 c3                    retl     

----------------
IN: 
0x000f6270:  66 ba 3a b8 0e 00        movl     $0xeb83a, %edx
0x000f6276:  e9 aa 89                 jmp      0xeec23

----------------
IN: 
0x000fec23:  2e 0f 01 1e 18 62        lidtw    %cs:0x6218
0x000fec29:  2e 0f 01 16 d8 61        lgdtw    %cs:0x61d8
0x000fec2f:  0f 20 c1                 movl     %cr0, %ecx

----------------
IN: 
0x000fec32:  66 81 e1 ff ff ff 1f     andl     $0x1fffffff, %ecx
0x000fec39:  66 83 c9 01              orl      $1, %ecx
0x000fec3d:  0f 22 c1                 movl     %ecx, %cr0

----------------
IN: 
0x000fec40:  66 ea 48 ec 0f 00 08 00  ljmpl    $0x8:$0xfec48

----------------
IN: 
0x000fec48:  b9 10 00 00 00           movl     $0x10, %ecx
0x000fec4d:  8e d9                    movl     %ecx, %ds

----------------
IN: 
0x000fec4f:  8e c1                    movl     %ecx, %es

----------------
IN: 
0x000fec51:  8e d1                    movl     %ecx, %ss

----------------
IN: 
0x000fec53:  8e e1                    movl     %ecx, %fs

----------------
IN: 
0x000fec55:  8e e9                    movl     %ecx, %gs
0x000fec57:  ff e2                    jmpl     *%edx

----------------
IN: 
0x000eb83a:  01 fc                    addl     %edi, %esp
0x000eb83c:  5b                       popl     %ebx
0x000eb83d:  5e                       popl     %esi
0x000eb83e:  5f                       popl     %edi
0x000eb83f:  5d                       popl     %ebp
0x000eb840:  c3                       retl     

----------------
IN: 
0x000edbf1:  89 35 00 00 01 00        movl     %esi, 0x10000
0x000edbf7:  89 3d 04 00 01 00        movl     %edi, 0x10004
0x000edbfd:  ff 35 24 4b 0f 00        pushl    0xf4b24
0x000edc03:  53                       pushl    %ebx
0x000edc04:  68 f0 0a 0f 00           pushl    $0xf0af0
0x000edc09:  e8 51 e0 ff ff           calll    0xebc5f

----------------
IN: 
0x000edc0e:  83 c4 0c                 addl     $0xc, %esp
0x000edc11:  83 c4 10                 addl     $0x10, %esp
0x000edc14:  5b                       popl     %ebx
0x000edc15:  5e                       popl     %esi
0x000edc16:  5f                       popl     %edi
0x000edc17:  c3                       retl     

----------------
IN: 
0x06ff593d:  81 3d 24 4b 0f 00 ff 00  cmpl     $0xff, 0xf4b24
0x06ff5945:  00 00
0x06ff5947:  0f 87 dc 03 00 00        ja       0x6ff5d29

----------------
IN: 
0x06ff594d:  c7 05 20 fc ff 06 24 50  movl     $0x52495024, 0x6fffc20
0x06ff5955:  49 52
0x06ff5957:  ba 80 00 00 00           movl     $0x80, %edx
0x06ff595c:  b8 20 fc ff 06           movl     $0x6fffc20, %eax
0x06ff5961:  e8 1e 46 0f f9           calll    0xe9f84

----------------
IN: 
0x06ff5966:  28 05 3f fc ff 06        subb     %al, 0x6fffc3f
0x06ff596c:  83 3d e8 55 0f 00 00     cmpl     $0, 0xf55e8
0x06ff5973:  75 0a                    jne      0x6ff597f

----------------
IN: 
0x06ff5975:  b8 20 fc ff 06           movl     $0x6fffc20, %eax
0x06ff597a:  e8 84 bb ff ff           calll    0x6ff1503

----------------
IN: 
0x06ff1503:  56                       pushl    %esi
0x06ff1504:  53                       pushl    %ebx
0x06ff1505:  0f b7 70 06              movzwl   6(%eax), %esi
0x06ff1509:  66 83 fe 1f              cmpw     $0x1f, %si
0x06ff150d:  76 20                    jbe      0x6ff152f

----------------
IN: 
0x06ff150f:  89 c3                    movl     %eax, %ebx
0x06ff1511:  89 f2                    movl     %esi, %edx
0x06ff1513:  e8 6c 8a 0f f9           calll    0xe9f84

----------------
IN: 
0x06ff1518:  84 c0                    testb    %al, %al
0x06ff151a:  75 13                    jne      0x6ff152f

----------------
IN: 
0x06ff151c:  89 f1                    movl     %esi, %ecx
0x06ff151e:  89 da                    movl     %ebx, %edx
0x06ff1520:  b8 d6 08 0f 00           movl     $0xf08d6, %eax
0x06ff1525:  e8 94 ff ff ff           calll    0x6ff14be

----------------
IN: 
0x06ff14be:  55                       pushl    %ebp
0x06ff14bf:  57                       pushl    %edi
0x06ff14c0:  56                       pushl    %esi
0x06ff14c1:  53                       pushl    %ebx
0x06ff14c2:  89 c7                    movl     %eax, %edi
0x06ff14c4:  89 d6                    movl     %edx, %esi
0x06ff14c6:  89 cd                    movl     %ecx, %ebp
0x06ff14c8:  89 c8                    movl     %ecx, %eax
0x06ff14ca:  e8 61 c9 ff ff           calll    0x6fede30

----------------
IN: 
0x06fede30:  89 c2                    movl     %eax, %edx
0x06fede32:  b9 10 00 00 00           movl     $0x10, %ecx
0x06fede37:  b8 60 fe ff 06           movl     $0x6fffe60, %eax
0x06fede3c:  e9 d3 fe ff ff           jmp      0x6fedd14

----------------
IN: 
0x06ff14cf:  89 c3                    movl     %eax, %ebx
0x06ff14d1:  85 c0                    testl    %eax, %eax
0x06ff14d3:  75 11                    jne      0x6ff14e6

----------------
IN: 
0x06ff14e6:  50                       pushl    %eax
0x06ff14e7:  56                       pushl    %esi
0x06ff14e8:  57                       pushl    %edi
0x06ff14e9:  68 bc 08 0f 00           pushl    $0xf08bc
0x06ff14ee:  e8 6c a7 0f f9           calll    0xebc5f

----------------
IN: 
0x06ff14f3:  89 df                    movl     %ebx, %edi
0x06ff14f5:  89 e9                    movl     %ebp, %ecx
0x06ff14f7:  f3 a4                    rep movsb (%esi), %es:(%edi)

----------------
IN: 
0x06ff14f7:  f3 a4                    rep movsb (%esi), %es:(%edi)

----------------
IN: 
0x06ff14f9:  83 c4 10                 addl     $0x10, %esp
0x06ff14fc:  89 d8                    movl     %ebx, %eax
0x06ff14fe:  5b                       popl     %ebx
0x06ff14ff:  5e                       popl     %esi
0x06ff1500:  5f                       popl     %edi
0x06ff1501:  5d                       popl     %ebp
0x06ff1502:  c3                       retl     

----------------
IN: 
0x06ff152a:  a3 e8 55 0f 00           movl     %eax, 0xf55e8
0x06ff152f:  5b                       popl     %ebx
0x06ff1530:  5e                       popl     %esi
0x06ff1531:  c3                       retl     

----------------
IN: 
0x06ff597f:  b8 00 80 00 00           movl     $0x8000, %eax
0x06ff5984:  e8 76 84 ff ff           calll    0x6feddff

----------------
IN: 
0x06ff5989:  89 c5                    movl     %eax, %ebp
0x06ff598b:  85 c0                    testl    %eax, %eax
0x06ff598d:  75 14                    jne      0x6ff59a3

----------------
IN: 
0x06ff59a3:  b9 2c 00 00 00           movl     $0x2c, %ecx
0x06ff59a8:  31 d2                    xorl     %edx, %edx
0x06ff59aa:  e8 ab 46 0f f9           calll    0xea05a

----------------
IN: 
0x06ff59af:  c7 00 50 43 4d 50        movl     $0x504d4350, (%eax)
0x06ff59b5:  c6 40 06 04              movb     $4, 6(%eax)
0x06ff59b9:  c7 40 08 42 4f 43 48     movl     $0x48434f42, 8(%eax)
0x06ff59c0:  c7 40 0c 53 43 50 55     movl     $0x55504353, 0xc(%eax)
0x06ff59c7:  8d 40 10                 leal     0x10(%eax), %eax
0x06ff59ca:  be f9 17 0f 00           movl     $0xf17f9, %esi
0x06ff59cf:  b9 03 00 00 00           movl     $3, %ecx
0x06ff59d4:  89 c7                    movl     %eax, %edi
0x06ff59d6:  f3 a5                    rep movsl (%esi), %es:(%edi)

----------------
IN: 
0x06ff59d6:  f3 a5                    rep movsl (%esi), %es:(%edi)

----------------
IN: 
0x06ff59d8:  c7 45 24 00 00 e0 fe     movl     $0xfee00000, 0x24(%ebp)
0x06ff59df:  53                       pushl    %ebx
0x06ff59e0:  8d 44 24 58              leal     0x58(%esp), %eax
0x06ff59e4:  50                       pushl    %eax
0x06ff59e5:  8d 4c 24 54              leal     0x54(%esp), %ecx
0x06ff59e9:  8d 54 24 50              leal     0x50(%esp), %edx
0x06ff59ed:  b8 01 00 00 00           movl     $1, %eax
0x06ff59f2:  e8 be 38 0f f9           calll    0xe92b5

----------------
IN: 
0x06ff59f7:  58                       popl     %eax
0x06ff59f8:  5a                       popl     %edx
0x06ff59f9:  83 7c 24 48 00           cmpl     $0, 0x48(%esp)
0x06ff59fe:  75 12                    jne      0x6ff5a12

----------------
IN: 
0x06ff5a12:  f6 44 24 5f 10           testb    $0x10, 0x5f(%esp)
0x06ff5a17:  75 07                    jne      0x6ff5a20

----------------
IN: 
0x06ff5a19:  bf 01 00 00 00           movl     $1, %edi
0x06ff5a1e:  eb 11                    jmp      0x6ff5a31

----------------
IN: 
0x06ff5a31:  a1 30 00 e0 fe           movl     0xfee00030, %eax
0x06ff5a36:  88 04 24                 movb     %al, (%esp)
0x06ff5a39:  8d 45 2c                 leal     0x2c(%ebp), %eax
0x06ff5a3c:  89 44 24 04              movl     %eax, 4(%esp)
0x06ff5a40:  31 f6                    xorl     %esi, %esi
0x06ff5a42:  89 c3                    movl     %eax, %ebx
0x06ff5a44:  3b 35 24 4b 0f 00        cmpl     0xf4b24, %esi
0x06ff5a4a:  73 4e                    jae      0x6ff5a9a

----------------
IN: 
0x06ff5a31:  a1 30 00 e0 fe           movl     0xfee00030, %eax

----------------
IN: 
0x06ff5a36:  88 04 24                 movb     %al, (%esp)
0x06ff5a39:  8d 45 2c                 leal     0x2c(%ebp), %eax
0x06ff5a3c:  89 44 24 04              movl     %eax, 4(%esp)
0x06ff5a40:  31 f6                    xorl     %esi, %esi
0x06ff5a42:  89 c3                    movl     %eax, %ebx
0x06ff5a44:  3b 35 24 4b 0f 00        cmpl     0xf4b24, %esi
0x06ff5a4a:  73 4e                    jae      0x6ff5a9a

----------------
IN: 
0x06ff5a4c:  b9 14 00 00 00           movl     $0x14, %ecx
0x06ff5a51:  31 d2                    xorl     %edx, %edx
0x06ff5a53:  89 d8                    movl     %ebx, %eax
0x06ff5a55:  e8 00 46 0f f9           calll    0xea05a

----------------
IN: 
0x06ff5a5a:  c6 03 00                 movb     $0, (%ebx)
0x06ff5a5d:  89 f0                    movl     %esi, %eax
0x06ff5a5f:  88 43 01                 movb     %al, 1(%ebx)
0x06ff5a62:  8a 04 24                 movb     (%esp), %al
0x06ff5a65:  88 43 02                 movb     %al, 2(%ebx)
0x06ff5a68:  89 f0                    movl     %esi, %eax
0x06ff5a6a:  0f b6 c0                 movzbl   %al, %eax
0x06ff5a6d:  e8 16 61 ff ff           calll    0x6febb88

----------------
IN: 
0x06febb88:  89 c1                    movl     %eax, %ecx
0x06febb8a:  c0 e8 05                 shrb     $5, %al
0x06febb8d:  0f b6 c0                 movzbl   %al, %eax
0x06febb90:  8b 04 85 00 4b 0f 00     movl     0xf4b00(, %eax, 4), %eax
0x06febb97:  d3 e8                    shrl     %cl, %eax
0x06febb99:  83 e0 01                 andl     $1, %eax
0x06febb9c:  c3                       retl     

----------------
IN: 
0x06ff5a72:  89 c2                    movl     %eax, %edx
0x06ff5a74:  85 f6                    testl    %esi, %esi
0x06ff5a76:  0f 94 c0                 sete     %al
0x06ff5a79:  d1 e0                    shll     $1, %eax
0x06ff5a7b:  85 d2                    testl    %edx, %edx
0x06ff5a7d:  0f 95 c2                 setne    %dl
0x06ff5a80:  09 d0                    orl      %edx, %eax
0x06ff5a82:  88 43 03                 movb     %al, 3(%ebx)
0x06ff5a85:  8b 44 24 48              movl     0x48(%esp), %eax
0x06ff5a89:  89 43 04                 movl     %eax, 4(%ebx)
0x06ff5a8c:  8b 44 24 5c              movl     0x5c(%esp), %eax
0x06ff5a90:  89 43 08                 movl     %eax, 8(%ebx)
0x06ff5a93:  83 c3 14                 addl     $0x14, %ebx
0x06ff5a96:  01 fe                    addl     %edi, %esi
0x06ff5a98:  eb aa                    jmp      0x6ff5a44

----------------
IN: 
0x06ff5a44:  3b 35 24 4b 0f 00        cmpl     0xf4b24, %esi
0x06ff5a4a:  73 4e                    jae      0x6ff5a9a

----------------
IN: 
0x06ff5a9a:  89 df                    movl     %ebx, %edi
0x06ff5a9c:  8b 44 24 04              movl     4(%esp), %eax
0x06ff5aa0:  29 c7                    subl     %eax, %edi
0x06ff5aa2:  c1 ff 02                 sarl     $2, %edi
0x06ff5aa5:  69 ff cd cc cc cc        imull    $0xcccccccd, %edi, %edi
0x06ff5aab:  89 de                    movl     %ebx, %esi
0x06ff5aad:  83 3d c0 fd ff 06 00     cmpl     $0, 0x6fffdc0
0x06ff5ab4:  74 24                    je       0x6ff5ada

----------------
IN: 
0x06ff5ab6:  8d 73 08                 leal     8(%ebx), %esi
0x06ff5ab9:  b9 08 00 00 00           movl     $8, %ecx
0x06ff5abe:  31 d2                    xorl     %edx, %edx
0x06ff5ac0:  89 d8                    movl     %ebx, %eax
0x06ff5ac2:  e8 93 45 0f f9           calll    0xea05a

----------------
IN: 
0x06ff5ac7:  66 c7 03 01 00           movw     $1, (%ebx)
0x06ff5acc:  c7 43 02 50 43 49 20     movl     $0x20494350, 2(%ebx)
0x06ff5ad3:  66 c7 43 06 20 20        movw     $0x2020, 6(%ebx)
0x06ff5ad9:  47                       incl     %edi
0x06ff5ada:  b9 08 00 00 00           movl     $8, %ecx
0x06ff5adf:  31 d2                    xorl     %edx, %edx
0x06ff5ae1:  89 f0                    movl     %esi, %eax
0x06ff5ae3:  e8 72 45 0f f9           calll    0xea05a

----------------
IN: 
0x06ff5ae8:  c6 06 01                 movb     $1, (%esi)
0x06ff5aeb:  29 d8                    subl     %ebx, %eax
0x06ff5aed:  c1 f8 03                 sarl     $3, %eax
0x06ff5af0:  89 44 24 10              movl     %eax, 0x10(%esp)
0x06ff5af4:  8a 44 24 10              movb     0x10(%esp), %al
0x06ff5af8:  88 44 24 20              movb     %al, 0x20(%esp)
0x06ff5afc:  88 46 01                 movb     %al, 1(%esi)
0x06ff5aff:  c7 46 02 49 53 41 20     movl     $0x20415349, 2(%esi)
0x06ff5b06:  66 c7 46 06 20 20        movw     $0x2020, 6(%esi)
0x06ff5b0c:  8d 46 08                 leal     8(%esi), %eax
0x06ff5b0f:  b9 08 00 00 00           movl     $8, %ecx
0x06ff5b14:  e8 41 45 0f f9           calll    0xea05a

----------------
IN: 
0x06ff5b19:  c7 46 08 02 00 11 01     movl     $0x1110002, 8(%esi)
0x06ff5b20:  c7 46 0c 00 00 c0 fe     movl     $0xfec00000, 0xc(%esi)
0x06ff5b27:  8d 47 02                 leal     2(%edi), %eax
0x06ff5b2a:  89 44 24 28              movl     %eax, 0x28(%esp)
0x06ff5b2e:  8d 5e 10                 leal     0x10(%esi), %ebx
0x06ff5b31:  a1 c0 fd ff 06           movl     0x6fffdc0, %eax
0x06ff5b36:  83 e8 04                 subl     $4, %eax
0x06ff5b39:  89 04 24                 movl     %eax, (%esp)
0x06ff5b3c:  66 c7 44 24 18 00 00     movw     $0, 0x18(%esp)
0x06ff5b43:  83 c9 ff                 orl      $0xffffffff, %ecx
0x06ff5b46:  83 3c 24 fc              cmpl     $-4, (%esp)
0x06ff5b4a:  0f 84 d4 00 00 00        je       0x6ff5c24

----------------
IN: 
0x06ff5b50:  89 4c 24 34              movl     %ecx, 0x34(%esp)
0x06ff5b54:  8b 04 24                 movl     (%esp), %eax
0x06ff5b57:  8b 00                    movl     (%eax), %eax
0x06ff5b59:  66 89 44 24 04           movw     %ax, 4(%esp)
0x06ff5b5e:  66 c1 e8 08              shrw     $8, %ax
0x06ff5b62:  0f 85 bc 00 00 00        jne      0x6ff5c24

----------------
IN: 
0x06ff5b68:  0f b7 7c 24 04           movzwl   4(%esp), %edi
0x06ff5b6d:  ba 3d 00 00 00           movl     $0x3d, %edx
0x06ff5b72:  89 f8                    movl     %edi, %eax
0x06ff5b74:  e8 ce 36 0f f9           calll    0xe9247

----------------
IN: 
0x06ff5b79:  88 44 24 08              movb     %al, 8(%esp)
0x06ff5b7d:  0f b6 c0                 movzbl   %al, %eax
0x06ff5b80:  89 44 24 2c              movl     %eax, 0x2c(%esp)
0x06ff5b84:  ba 3c 00 00 00           movl     $0x3c, %edx
0x06ff5b89:  89 f8                    movl     %edi, %eax
0x06ff5b8b:  e8 b7 36 0f f9           calll    0xe9247

----------------
IN: 
0x06ff5b90:  88 44 24 30              movb     %al, 0x30(%esp)
0x06ff5b94:  83 7c 24 2c 00           cmpl     $0, 0x2c(%esp)
0x06ff5b99:  8b 4c 24 34              movl     0x34(%esp), %ecx
0x06ff5b9d:  74 74                    je       0x6ff5c13

----------------
IN: 
0x06ff5c13:  8b 04 24                 movl     (%esp), %eax
0x06ff5c16:  8b 40 04                 movl     4(%eax), %eax
0x06ff5c19:  83 e8 04                 subl     $4, %eax
0x06ff5c1c:  89 04 24                 movl     %eax, (%esp)
0x06ff5c1f:  e9 22 ff ff ff           jmp      0x6ff5b46

----------------
IN: 
0x06ff5b46:  83 3c 24 fc              cmpl     $-4, (%esp)
0x06ff5b4a:  0f 84 d4 00 00 00        je       0x6ff5c24

----------------
IN: 
0x06ff5b9f:  8b 7c 24 04              movl     4(%esp), %edi
0x06ff5ba3:  81 e7 f8 ff 00 00        andl     $0xfff8, %edi
0x06ff5ba9:  39 cf                    cmpl     %ecx, %edi
0x06ff5bab:  75 10                    jne      0x6ff5bbd

----------------
IN: 
0x06ff5bbd:  66 c7 44 24 18 00 00     movw     $0, 0x18(%esp)
0x06ff5bc4:  b8 01 00 00 00           movl     $1, %eax
0x06ff5bc9:  8a 4c 24 08              movb     8(%esp), %cl
0x06ff5bcd:  d3 e0                    shll     %cl, %eax
0x06ff5bcf:  66 09 44 24 18           orw      %ax, 0x18(%esp)
0x06ff5bd4:  b9 08 00 00 00           movl     $8, %ecx
0x06ff5bd9:  31 d2                    xorl     %edx, %edx
0x06ff5bdb:  89 d8                    movl     %ebx, %eax
0x06ff5bdd:  e8 78 44 0f f9           calll    0xea05a

----------------
IN: 
0x06ff5be2:  c7 03 03 00 01 00        movl     $0x10003, (%ebx)
0x06ff5be8:  c6 43 04 00              movb     $0, 4(%ebx)
0x06ff5bec:  8b 44 24 04              movl     4(%esp), %eax
0x06ff5bf0:  66 c1 e8 03              shrw     $3, %ax
0x06ff5bf4:  c1 e0 02                 shll     $2, %eax
0x06ff5bf7:  8a 4c 24 08              movb     8(%esp), %cl
0x06ff5bfb:  8d 51 ff                 leal     -1(%ecx), %edx
0x06ff5bfe:  09 d0                    orl      %edx, %eax
0x06ff5c00:  88 43 05                 movb     %al, 5(%ebx)
0x06ff5c03:  c6 43 06 00              movb     $0, 6(%ebx)
0x06ff5c07:  8a 44 24 30              movb     0x30(%esp), %al
0x06ff5c0b:  88 43 07                 movb     %al, 7(%ebx)
0x06ff5c0e:  83 c3 08                 addl     $8, %ebx
0x06ff5c11:  89 f9                    movl     %edi, %ecx
0x06ff5c13:  8b 04 24                 movl     (%esp), %eax
0x06ff5c16:  8b 40 04                 movl     4(%eax), %eax
0x06ff5c19:  83 e8 04                 subl     $4, %eax
0x06ff5c1c:  89 04 24                 movl     %eax, (%esp)
0x06ff5c1f:  e9 22 ff ff ff           jmp      0x6ff5b46

----------------
IN: 
0x06ff5c24:  31 d2                    xorl     %edx, %edx
0x06ff5c26:  31 c9                    xorl     %ecx, %ecx
0x06ff5c28:  b8 00 0f 0f 00           movl     $0xf0f00, %eax
0x06ff5c2d:  e8 2d 77 ff ff           calll    0x6fed35f

----------------
IN: 
0x06ff5c32:  89 04 24                 movl     %eax, (%esp)
0x06ff5c35:  31 ff                    xorl     %edi, %edi
0x06ff5c37:  b9 08 00 00 00           movl     $8, %ecx
0x06ff5c3c:  31 d2                    xorl     %edx, %edx
0x06ff5c3e:  89 d8                    movl     %ebx, %eax
0x06ff5c40:  e8 15 44 0f f9           calll    0xea05a

----------------
IN: 
0x06ff5c45:  b8 20 0e 00 00           movl     $0xe20, %eax
0x06ff5c4a:  0f a3 f8                 btl      %edi, %eax
0x06ff5c4d:  72 34                    jb       0x6ff5c83

----------------
IN: 
0x06ff5c4f:  c7 03 03 00 00 00        movl     $3, (%ebx)
0x06ff5c55:  8a 44 24 20              movb     0x20(%esp), %al
0x06ff5c59:  88 43 04                 movb     %al, 4(%ebx)
0x06ff5c5c:  89 f8                    movl     %edi, %eax
0x06ff5c5e:  88 43 05                 movb     %al, 5(%ebx)
0x06ff5c61:  c6 43 06 00              movb     $0, 6(%ebx)
0x06ff5c65:  88 43 07                 movb     %al, 7(%ebx)
0x06ff5c68:  83 3c 24 00              cmpl     $0, (%esp)
0x06ff5c6c:  74 12                    je       0x6ff5c80

----------------
IN: 
0x06ff5c6e:  85 ff                    testl    %edi, %edi
0x06ff5c70:  75 06                    jne      0x6ff5c78

----------------
IN: 
0x06ff5c72:  c6 43 07 02              movb     $2, 7(%ebx)
0x06ff5c76:  eb 08                    jmp      0x6ff5c80

----------------
IN: 
0x06ff5c80:  83 c3 08                 addl     $8, %ebx
0x06ff5c83:  47                       incl     %edi
0x06ff5c84:  83 ff 10                 cmpl     $0x10, %edi
0x06ff5c87:  75 ae                    jne      0x6ff5c37

----------------
IN: 
0x06ff5c37:  b9 08 00 00 00           movl     $8, %ecx
0x06ff5c3c:  31 d2                    xorl     %edx, %edx
0x06ff5c3e:  89 d8                    movl     %ebx, %eax
0x06ff5c40:  e8 15 44 0f f9           calll    0xea05a

----------------
IN: 
0x06ff5c78:  83 ff 02                 cmpl     $2, %edi
0x06ff5c7b:  75 03                    jne      0x6ff5c80

----------------
IN: 
0x06ff5c7d:  83 eb 08                 subl     $8, %ebx
0x06ff5c80:  83 c3 08                 addl     $8, %ebx
0x06ff5c83:  47                       incl     %edi
0x06ff5c84:  83 ff 10                 cmpl     $0x10, %edi
0x06ff5c87:  75 ae                    jne      0x6ff5c37

----------------
IN: 
0x06ff5c83:  47                       incl     %edi
0x06ff5c84:  83 ff 10                 cmpl     $0x10, %edi
0x06ff5c87:  75 ae                    jne      0x6ff5c37

----------------
IN: 
0x06ff5c89:  c7 03 04 03 00 00        movl     $0x304, (%ebx)
0x06ff5c8f:  8a 44 24 10              movb     0x10(%esp), %al
0x06ff5c93:  88 43 04                 movb     %al, 4(%ebx)
0x06ff5c96:  c7 43 05 00 00 00 04     movl     $0x4000000, 5(%ebx)
0x06ff5c9d:  66 c7 43 09 01 00        movw     $1, 9(%ebx)
0x06ff5ca3:  c6 43 0b 00              movb     $0, 0xb(%ebx)
0x06ff5ca7:  88 43 0c                 movb     %al, 0xc(%ebx)
0x06ff5caa:  66 c7 43 0d 00 ff        movw     $0xff00, 0xd(%ebx)
0x06ff5cb0:  c6 43 0f 01              movb     $1, 0xf(%ebx)
0x06ff5cb4:  8d 53 10                 leal     0x10(%ebx), %edx
0x06ff5cb7:  29 ea                    subl     %ebp, %edx
0x06ff5cb9:  29 f3                    subl     %esi, %ebx
0x06ff5cbb:  c1 fb 03                 sarl     $3, %ebx
0x06ff5cbe:  8b 44 24 28              movl     0x28(%esp), %eax
0x06ff5cc2:  01 c3                    addl     %eax, %ebx
0x06ff5cc4:  66 89 5d 22              movw     %bx, 0x22(%ebp)
0x06ff5cc8:  66 89 55 04              movw     %dx, 4(%ebp)
0x06ff5ccc:  89 e8                    movl     %ebp, %eax
0x06ff5cce:  e8 b1 42 0f f9           calll    0xe9f84

----------------
IN: 
0x06ff5cd3:  28 45 07                 subb     %al, 7(%ebp)
0x06ff5cd6:  b9 10 00 00 00           movl     $0x10, %ecx
0x06ff5cdb:  31 d2                    xorl     %edx, %edx
0x06ff5cdd:  8d 84 24 80 00 00 00     leal     0x80(%esp), %eax
0x06ff5ce4:  e8 71 43 0f f9           calll    0xea05a

----------------
IN: 
0x06ff5ce9:  c7 84 24 80 00 00 00 5f  movl     $0x5f504d5f, 0x80(%esp)
0x06ff5cf1:  4d 50 5f
0x06ff5cf4:  89 ac 24 84 00 00 00     movl     %ebp, 0x84(%esp)
0x06ff5cfb:  66 c7 84 24 88 00 00 00  movw     $0x401, 0x88(%esp)
0x06ff5d03:  01 04
0x06ff5d05:  ba 10 00 00 00           movl     $0x10, %edx
0x06ff5d0a:  e8 75 42 0f f9           calll    0xe9f84

----------------
IN: 
0x06ff5d0f:  28 84 24 8a 00 00 00     subb     %al, 0x8a(%esp)
0x06ff5d16:  8d 84 24 80 00 00 00     leal     0x80(%esp), %eax
0x06ff5d1d:  e8 e2 b8 ff ff           calll    0x6ff1604

----------------
IN: 
0x06ff1604:  55                       pushl    %ebp
0x06ff1605:  57                       pushl    %edi
0x06ff1606:  56                       pushl    %esi
0x06ff1607:  53                       pushl    %ebx
0x06ff1608:  83 ec 08                 subl     $8, %esp
0x06ff160b:  8b 70 04                 movl     4(%eax), %esi
0x06ff160e:  85 f6                    testl    %esi, %esi
0x06ff1610:  0f 84 9d 00 00 00        je       0x6ff16b3

----------------
IN: 
0x06ff1616:  89 c3                    movl     %eax, %ebx
0x06ff1618:  ba 10 00 00 00           movl     $0x10, %edx
0x06ff161d:  e8 62 89 0f f9           calll    0xe9f84

----------------
IN: 
0x06ff1622:  84 c0                    testb    %al, %al
0x06ff1624:  0f 85 89 00 00 00        jne      0x6ff16b3

----------------
IN: 
0x06ff162a:  0f b6 43 08              movzbl   8(%ebx), %eax
0x06ff162e:  c1 e0 04                 shll     $4, %eax
0x06ff1631:  89 04 24                 movl     %eax, (%esp)
0x06ff1634:  0f b7 46 04              movzwl   4(%esi), %eax
0x06ff1638:  89 44 24 04              movl     %eax, 4(%esp)
0x06ff163c:  8b 04 24                 movl     (%esp), %eax
0x06ff163f:  8b 54 24 04              movl     4(%esp), %edx
0x06ff1643:  01 d0                    addl     %edx, %eax
0x06ff1645:  3d 58 02 00 00           cmpl     $0x258, %eax
0x06ff164a:  76 0f                    jbe      0x6ff165b

----------------
IN: 
0x06ff165b:  e8 d0 c7 ff ff           calll    0x6fede30

----------------
IN: 
0x06ff1660:  89 c5                    movl     %eax, %ebp
0x06ff1662:  85 c0                    testl    %eax, %eax
0x06ff1664:  75 16                    jne      0x6ff167c

----------------
IN: 
0x06ff167c:  50                       pushl    %eax
0x06ff167d:  ff 73 04                 pushl    4(%ebx)
0x06ff1680:  53                       pushl    %ebx
0x06ff1681:  68 36 09 0f 00           pushl    $0xf0936
0x06ff1686:  e8 d4 a5 0f f9           calll    0xebc5f

----------------
IN: 
0x06ff168b:  89 ef                    movl     %ebp, %edi
0x06ff168d:  89 de                    movl     %ebx, %esi
0x06ff168f:  8b 4c 24 10              movl     0x10(%esp), %ecx
0x06ff1693:  f3 a4                    rep movsb (%esi), %es:(%edi)

----------------
IN: 
0x06ff1693:  f3 a4                    rep movsb (%esi), %es:(%edi)

----------------
IN: 
0x06ff1695:  89 7d 04                 movl     %edi, 4(%ebp)
0x06ff1698:  ba 10 00 00 00           movl     $0x10, %edx
0x06ff169d:  89 e8                    movl     %ebp, %eax
0x06ff169f:  e8 e0 88 0f f9           calll    0xe9f84

----------------
IN: 
0x06ff16a4:  28 45 0a                 subb     %al, 0xa(%ebp)
0x06ff16a7:  8b 73 04                 movl     4(%ebx), %esi
0x06ff16aa:  8b 4c 24 14              movl     0x14(%esp), %ecx
0x06ff16ae:  f3 a4                    rep movsb (%esi), %es:(%edi)

----------------
IN: 
0x06ff16ae:  f3 a4                    rep movsb (%esi), %es:(%edi)

----------------
IN: 
0x06ff16b0:  83 c4 10                 addl     $0x10, %esp
0x06ff16b3:  83 c4 08                 addl     $8, %esp
0x06ff16b6:  5b                       popl     %ebx
0x06ff16b7:  5e                       popl     %esi
0x06ff16b8:  5f                       popl     %edi
0x06ff16b9:  5d                       popl     %ebp
0x06ff16ba:  c3                       retl     

----------------
IN: 
0x06ff5d22:  89 e8                    movl     %ebp, %eax
0x06ff5d24:  e8 63 79 ff ff           calll    0x6fed68c

----------------
IN: 
0x06ff5d29:  b8 06 18 0f 00           movl     $0xf1806, %eax
0x06ff5d2e:  e8 fb 75 ff ff           calll    0x6fed32e

----------------
IN: 
0x06ff5d33:  89 c3                    movl     %eax, %ebx
0x06ff5d35:  b8 1f 18 0f 00           movl     $0xf181f, %eax
0x06ff5d3a:  e8 ef 75 ff ff           calll    0x6fed32e

----------------
IN: 
0x06ff5d3f:  89 c6                    movl     %eax, %esi
0x06ff5d41:  85 db                    testl    %ebx, %ebx
0x06ff5d43:  0f 84 7e 01 00 00        je       0x6ff5ec7

----------------
IN: 
0x06ff5d49:  85 c0                    testl    %eax, %eax
0x06ff5d4b:  0f 84 76 01 00 00        je       0x6ff5ec7

----------------
IN: 
0x06ff5d51:  8b 8b 84 00 00 00        movl     0x84(%ebx), %ecx
0x06ff5d57:  83 f9 1f                 cmpl     $0x1f, %ecx
0x06ff5d5a:  0f 87 67 01 00 00        ja       0x6ff5ec7

----------------
IN: 
0x06ff5d60:  8d 94 24 80 00 00 00     leal     0x80(%esp), %edx
0x06ff5d67:  89 d8                    movl     %ebx, %eax
0x06ff5d69:  ff 93 88 00 00 00        calll    *0x88(%ebx)

----------------
IN: 
0x06ff5d6f:  8b 83 84 00 00 00        movl     0x84(%ebx), %eax
0x06ff5d75:  83 f8 1f                 cmpl     $0x1f, %eax
0x06ff5d78:  0f 85 d7 00 00 00        jne      0x6ff5e55

----------------
IN: 
0x06ff5d7e:  81 bc 24 80 00 00 00 5f  cmpl     $0x5f4d535f, 0x80(%esp)
0x06ff5d86:  53 4d 5f
0x06ff5d89:  0f 85 2d 01 00 00        jne      0x6ff5ebc

----------------
IN: 
0x06ff5d8f:  8b 84 24 98 00 00 00     movl     0x98(%esp), %eax
0x06ff5d96:  89 44 24 5c              movl     %eax, 0x5c(%esp)
0x06ff5d9a:  31 db                    xorl     %ebx, %ebx
0x06ff5d9c:  89 5c 24 60              movl     %ebx, 0x60(%esp)
0x06ff5da0:  0f b7 84 24 96 00 00 00  movzwl   0x96(%esp), %eax
0x06ff5da8:  89 44 24 54              movl     %eax, 0x54(%esp)
0x06ff5dac:  8d 84 24 9c 00 00 00     leal     0x9c(%esp), %eax
0x06ff5db3:  50                       pushl    %eax
0x06ff5db4:  8d 84 24 8c 00 00 00     leal     0x8c(%esp), %eax
0x06ff5dbb:  50                       pushl    %eax
0x06ff5dbc:  8d 4c 24 5c              leal     0x5c(%esp), %ecx
0x06ff5dc0:  8d 54 24 64              leal     0x64(%esp), %edx
0x06ff5dc4:  89 f0                    movl     %esi, %eax
0x06ff5dc6:  e8 f0 b8 ff ff           calll    0x6ff16bb

----------------
IN: 
0x06ff16bb:  55                       pushl    %ebp
0x06ff16bc:  57                       pushl    %edi
0x06ff16bd:  56                       pushl    %esi
0x06ff16be:  53                       pushl    %ebx
0x06ff16bf:  83 ec 0c                 subl     $0xc, %esp
0x06ff16c2:  89 c7                    movl     %eax, %edi
0x06ff16c4:  89 14 24                 movl     %edx, (%esp)
0x06ff16c7:  8b 6c 24 20              movl     0x20(%esp), %ebp
0x06ff16cb:  8b 74 24 24              movl     0x24(%esp), %esi
0x06ff16cf:  8b 80 84 00 00 00        movl     0x84(%eax), %eax
0x06ff16d5:  3b 01                    cmpl     (%ecx), %eax
0x06ff16d7:  75 1e                    jne      0x6ff16f7

----------------
IN: 
0x06ff16d9:  89 cb                    movl     %ecx, %ebx
0x06ff16db:  e8 0e c7 ff ff           calll    0x6feddee

----------------
IN: 
0x06ff16e0:  89 44 24 04              movl     %eax, 4(%esp)
0x06ff16e4:  85 c0                    testl    %eax, %eax
0x06ff16e6:  75 16                    jne      0x6ff16fe

----------------
IN: 
0x06ff16fe:  8b 8f 84 00 00 00        movl     0x84(%edi), %ecx
0x06ff1704:  8b 54 24 04              movl     4(%esp), %edx
0x06ff1708:  89 f8                    movl     %edi, %eax
0x06ff170a:  ff 97 88 00 00 00        calll    *0x88(%edi)

----------------
IN: 
0x06ff1710:  0f b7 87 84 00 00 00     movzwl   0x84(%edi), %eax
0x06ff1717:  89 44 24 08              movl     %eax, 8(%esp)
0x06ff171b:  31 c9                    xorl     %ecx, %ecx
0x06ff171d:  89 c2                    movl     %eax, %edx
0x06ff171f:  8b 44 24 04              movl     4(%esp), %eax
0x06ff1723:  e8 ca a1 ff ff           calll    0x6feb8f2

----------------
IN: 
0x06feb8f2:  85 c0                    testl    %eax, %eax
0x06feb8f4:  74 5c                    je       0x6feb952

----------------
IN: 
0x06feb8f6:  01 c2                    addl     %eax, %edx
0x06feb8f8:  85 c9                    testl    %ecx, %ecx
0x06feb8fa:  74 27                    je       0x6feb923

----------------
IN: 
0x06feb923:  39 d0                    cmpl     %edx, %eax
0x06feb925:  72 17                    jb       0x6feb93e

----------------
IN: 
0x06feb93e:  8d 48 04                 leal     4(%eax), %ecx
0x06feb941:  39 d1                    cmpl     %edx, %ecx
0x06feb943:  73 0a                    jae      0x6feb94f

----------------
IN: 
0x06feb945:  0f b6 48 01              movzbl   1(%eax), %ecx
0x06feb949:  01 c1                    addl     %eax, %ecx
0x06feb94b:  39 d1                    cmpl     %edx, %ecx
0x06feb94d:  72 03                    jb       0x6feb952

----------------
IN: 
0x06feb952:  c3                       retl     

----------------
IN: 
0x06ff1728:  85 c0                    testl    %eax, %eax
0x06ff172a:  74 0d                    je       0x6ff1739

----------------
IN: 
0x06ff172c:  80 38 00                 cmpb     $0, (%eax)
0x06ff172f:  74 4d                    je       0x6ff177e

----------------
IN: 
0x06ff1731:  89 c1                    movl     %eax, %ecx
0x06ff1733:  8b 54 24 08              movl     8(%esp), %edx
0x06ff1737:  eb e6                    jmp      0x6ff171f

----------------
IN: 
0x06ff171f:  8b 44 24 04              movl     4(%esp), %eax
0x06ff1723:  e8 ca a1 ff ff           calll    0x6feb8f2

----------------
IN: 
0x06feb8fc:  53                       pushl    %ebx
0x06feb8fd:  8d 59 04                 leal     4(%ecx), %ebx
0x06feb900:  31 c0                    xorl     %eax, %eax
0x06feb902:  39 da                    cmpl     %ebx, %edx
0x06feb904:  72 36                    jb       0x6feb93c

----------------
IN: 
0x06feb906:  0f b6 41 01              movzbl   1(%ecx), %eax
0x06feb90a:  8d 44 01 02              leal     2(%ecx, %eax), %eax
0x06feb90e:  39 d0                    cmpl     %edx, %eax
0x06feb910:  73 28                    jae      0x6feb93a

----------------
IN: 
0x06feb912:  80 78 ff 00              cmpb     $0, -1(%eax)
0x06feb916:  74 03                    je       0x6feb91b

----------------
IN: 
0x06feb918:  40                       incl     %eax
0x06feb919:  eb f3                    jmp      0x6feb90e

----------------
IN: 
0x06feb90e:  39 d0                    cmpl     %edx, %eax
0x06feb910:  73 28                    jae      0x6feb93a

----------------
IN: 
0x06feb91b:  80 78 fe 00              cmpb     $0, -2(%eax)
0x06feb91f:  75 f7                    jne      0x6feb918

----------------
IN: 
0x06feb921:  eb 06                    jmp      0x6feb929

----------------
IN: 
0x06feb929:  8d 48 04                 leal     4(%eax), %ecx
0x06feb92c:  39 d1                    cmpl     %edx, %ecx
0x06feb92e:  73 0a                    jae      0x6feb93a

----------------
IN: 
0x06feb930:  0f b6 48 01              movzbl   1(%eax), %ecx
0x06feb934:  01 c1                    addl     %eax, %ecx
0x06feb936:  39 d1                    cmpl     %edx, %ecx
0x06feb938:  72 02                    jb       0x6feb93c

----------------
IN: 
0x06feb93c:  5b                       popl     %ebx
0x06feb93d:  c3                       retl     

----------------
IN: 
0x06feb93a:  31 c0                    xorl     %eax, %eax
0x06feb93c:  5b                       popl     %ebx
0x06feb93d:  c3                       retl     

----------------
IN: 
0x06ff1739:  b8 9d 09 0f 00           movl     $0xf099d, %eax
0x06ff173e:  e8 79 79 0f f9           calll    0xe90bc

----------------
IN: 
0x06ff1743:  89 c7                    movl     %eax, %edi
0x06ff1745:  b8 80 4a 0f 00           movl     $0xf4a80, %eax
0x06ff174a:  e8 6d 79 0f f9           calll    0xe90bc

----------------
IN: 
0x06ff174f:  01 c7                    addl     %eax, %edi
0x06ff1751:  b8 a5 09 0f 00           movl     $0xf09a5, %eax
0x06ff1756:  e8 61 79 0f f9           calll    0xe90bc

----------------
IN: 
0x06ff175b:  8d 44 07 1c              leal     0x1c(%edi, %eax), %eax
0x06ff175f:  0f b7 d0                 movzwl   %ax, %edx
0x06ff1762:  8b 3b                    movl     (%ebx), %edi
0x06ff1764:  b9 ff ff 00 00           movl     $0xffff, %ecx
0x06ff1769:  29 f9                    subl     %edi, %ecx
0x06ff176b:  39 d1                    cmpl     %edx, %ecx
0x06ff176d:  73 13                    jae      0x6ff1782

----------------
IN: 
0x06ff1782:  01 fa                    addl     %edi, %edx
0x06ff1784:  89 13                    movl     %edx, (%ebx)
0x06ff1786:  85 ed                    testl    %ebp, %ebp
0x06ff1788:  0f 85 42 01 00 00        jne      0x6ff18d0

----------------
IN: 
0x06ff18d0:  66 39 45 00              cmpw     %ax, (%ebp)
0x06ff18d4:  0f 83 b4 fe ff ff        jae      0x6ff178e

----------------
IN: 
0x06ff18da:  66 89 45 00              movw     %ax, (%ebp)
0x06ff18de:  e9 ab fe ff ff           jmp      0x6ff178e

----------------
IN: 
0x06ff178e:  85 f6                    testl    %esi, %esi
0x06ff1790:  74 03                    je       0x6ff1795

----------------
IN: 
0x06ff1792:  66 ff 06                 incw     (%esi)
0x06ff1795:  be 01 00 00 00           movl     $1, %esi
0x06ff179a:  8b 03                    movl     (%ebx), %eax
0x06ff179c:  3d 58 02 00 00           cmpl     $0x258, %eax
0x06ff17a1:  76 07                    jbe      0x6ff17aa

----------------
IN: 
0x06ff17aa:  e8 81 c6 ff ff           calll    0x6fede30

----------------
IN: 
0x06ff17af:  89 c3                    movl     %eax, %ebx
0x06ff17b1:  85 c0                    testl    %eax, %eax
0x06ff17b3:  75 1d                    jne      0x6ff17d2

----------------
IN: 
0x06ff17d2:  8b 04 24                 movl     (%esp), %eax
0x06ff17d5:  89 18                    movl     %ebx, (%eax)
0x06ff17d7:  31 d2                    xorl     %edx, %edx
0x06ff17d9:  89 50 04                 movl     %edx, 4(%eax)
0x06ff17dc:  66 85 f6                 testw    %si, %si
0x06ff17df:  0f 84 cf 00 00 00        je       0x6ff18b4

----------------
IN: 
0x06ff17e5:  8d 43 18                 leal     0x18(%ebx), %eax
0x06ff17e8:  89 04 24                 movl     %eax, (%esp)
0x06ff17eb:  c7 03 00 18 00 00        movl     $0x1800, (%ebx)
0x06ff17f1:  b8 9d 09 0f 00           movl     $0xf099d, %eax
0x06ff17f6:  e8 c1 78 0f f9           calll    0xe90bc

----------------
IN: 
0x06ff17fb:  8d 48 01                 leal     1(%eax), %ecx
0x06ff17fe:  83 f9 01                 cmpl     $1, %ecx
0x06ff1801:  7e 16                    jle      0x6ff1819

----------------
IN: 
0x06ff1803:  be 9d 09 0f 00           movl     $0xf099d, %esi
0x06ff1808:  8b 3c 24                 movl     (%esp), %edi
0x06ff180b:  f3 a4                    rep movsb (%esi), %es:(%edi)

----------------
IN: 
0x06ff180b:  f3 a4                    rep movsb (%esi), %es:(%edi)

----------------
IN: 
0x06ff180d:  89 3c 24                 movl     %edi, (%esp)
0x06ff1810:  b0 01                    movb     $1, %al
0x06ff1812:  bd 01 00 00 00           movl     $1, %ebp
0x06ff1817:  eb 04                    jmp      0x6ff181d

----------------
IN: 
0x06ff181d:  88 43 04                 movb     %al, 4(%ebx)
0x06ff1820:  be 80 4a 0f 00           movl     $0xf4a80, %esi
0x06ff1825:  31 ff                    xorl     %edi, %edi
0x06ff1827:  85 f6                    testl    %esi, %esi
0x06ff1829:  74 1a                    je       0x6ff1845

----------------
IN: 
0x06ff182b:  89 f0                    movl     %esi, %eax
0x06ff182d:  e8 8a 78 0f f9           calll    0xe90bc

----------------
IN: 
0x06ff1832:  8d 48 01                 leal     1(%eax), %ecx
0x06ff1835:  83 f9 01                 cmpl     $1, %ecx
0x06ff1838:  7e 0b                    jle      0x6ff1845

----------------
IN: 
0x06ff183a:  8b 3c 24                 movl     (%esp), %edi
0x06ff183d:  f3 a4                    rep movsb (%esi), %es:(%edi)

----------------
IN: 
0x06ff183d:  f3 a4                    rep movsb (%esi), %es:(%edi)

----------------
IN: 
0x06ff183f:  89 3c 24                 movl     %edi, (%esp)
0x06ff1842:  45                       incl     %ebp
0x06ff1843:  89 ef                    movl     %ebp, %edi
0x06ff1845:  89 f8                    movl     %edi, %eax
0x06ff1847:  88 43 05                 movb     %al, 5(%ebx)
0x06ff184a:  66 c7 43 06 00 e8        movw     $0xe800, 6(%ebx)
0x06ff1850:  b8 a5 09 0f 00           movl     $0xf09a5, %eax
0x06ff1855:  e8 62 78 0f f9           calll    0xe90bc

----------------
IN: 
0x06ff185a:  8d 48 01                 leal     1(%eax), %ecx
0x06ff185d:  31 c0                    xorl     %eax, %eax
0x06ff185f:  83 f9 01                 cmpl     $1, %ecx
0x06ff1862:  7e 10                    jle      0x6ff1874

----------------
IN: 
0x06ff1864:  be a5 09 0f 00           movl     $0xf09a5, %esi
0x06ff1869:  8b 3c 24                 movl     (%esp), %edi
0x06ff186c:  f3 a4                    rep movsb (%esi), %es:(%edi)

----------------
IN: 
0x06ff186c:  f3 a4                    rep movsb (%esi), %es:(%edi)

----------------
IN: 
0x06ff186e:  89 3c 24                 movl     %edi, (%esp)
0x06ff1871:  45                       incl     %ebp
0x06ff1872:  89 e8                    movl     %ebp, %eax
0x06ff1874:  88 43 08                 movb     %al, 8(%ebx)
0x06ff1877:  c6 43 09 00              movb     $0, 9(%ebx)
0x06ff187b:  8d 43 0a                 leal     0xa(%ebx), %eax
0x06ff187e:  b9 08 00 00 00           movl     $8, %ecx
0x06ff1883:  31 d2                    xorl     %edx, %edx
0x06ff1885:  e8 d0 87 0f f9           calll    0xea05a

----------------
IN: 
0x06ff188a:  c6 43 0a 08              movb     $8, 0xa(%ebx)
0x06ff188e:  c7 43 12 00 04 00 00     movl     $0x400, 0x12(%ebx)
0x06ff1895:  66 c7 43 16 ff ff        movw     $0xffff, 0x16(%ebx)
0x06ff189b:  8b 04 24                 movl     (%esp), %eax
0x06ff189e:  c6 00 00                 movb     $0, (%eax)
0x06ff18a1:  85 ed                    testl    %ebp, %ebp
0x06ff18a3:  74 05                    je       0x6ff18aa

----------------
IN: 
0x06ff18a5:  89 c3                    movl     %eax, %ebx
0x06ff18a7:  43                       incl     %ebx
0x06ff18a8:  eb 0a                    jmp      0x6ff18b4

----------------
IN: 
0x06ff18b4:  89 df                    movl     %ebx, %edi
0x06ff18b6:  8b 74 24 04              movl     4(%esp), %esi
0x06ff18ba:  8b 4c 24 08              movl     8(%esp), %ecx
0x06ff18be:  f3 a4                    rep movsb (%esi), %es:(%edi)

----------------
IN: 
0x06ff18be:  f3 a4                    rep movsb (%esi), %es:(%edi)

----------------
IN: 
0x06ff18c0:  8b 44 24 04              movl     4(%esp), %eax
0x06ff18c4:  e8 c3 bd ff ff           calll    0x6fed68c

----------------
IN: 
0x06ff18c9:  b8 01 00 00 00           movl     $1, %eax
0x06ff18ce:  eb 13                    jmp      0x6ff18e3

----------------
IN: 
0x06ff18e3:  83 c4 0c                 addl     $0xc, %esp
0x06ff18e6:  5b                       popl     %ebx
0x06ff18e7:  5e                       popl     %esi
0x06ff18e8:  5f                       popl     %edi
0x06ff18e9:  5d                       popl     %ebp
0x06ff18ea:  c3                       retl     

----------------
IN: 
0x06ff5dcb:  5e                       popl     %esi
0x06ff5dcc:  5f                       popl     %edi
0x06ff5dcd:  85 c0                    testl    %eax, %eax
0x06ff5dcf:  0f 84 f2 00 00 00        je       0x6ff5ec7

----------------
IN: 
0x06ff5dd5:  8b 54 24 5c              movl     0x5c(%esp), %edx
0x06ff5dd9:  83 7c 24 60 00           cmpl     $0, 0x60(%esp)
0x06ff5dde:  75 0b                    jne      0x6ff5deb

----------------
IN: 
0x06ff5de0:  8b 44 24 54              movl     0x54(%esp), %eax
0x06ff5de4:  3d ff ff 00 00           cmpl     $0xffff, %eax
0x06ff5de9:  76 14                    jbe      0x6ff5dff

----------------
IN: 
0x06ff5dff:  89 94 24 98 00 00 00     movl     %edx, 0x98(%esp)
0x06ff5e06:  66 89 84 24 96 00 00 00  movw     %ax, 0x96(%esp)
0x06ff5e0e:  ba 10 00 00 00           movl     $0x10, %edx
0x06ff5e13:  8d 84 24 80 00 00 00     leal     0x80(%esp), %eax
0x06ff5e1a:  e8 65 41 0f f9           calll    0xe9f84

----------------
IN: 
0x06ff5e1f:  28 84 24 84 00 00 00     subb     %al, 0x84(%esp)
0x06ff5e26:  0f b6 94 24 85 00 00 00  movzbl   0x85(%esp), %edx
0x06ff5e2e:  83 ea 10                 subl     $0x10, %edx
0x06ff5e31:  8d 84 24 90 00 00 00     leal     0x90(%esp), %eax
0x06ff5e38:  e8 47 41 0f f9           calll    0xe9f84

----------------
IN: 
0x06ff5e3d:  28 84 24 95 00 00 00     subb     %al, 0x95(%esp)
0x06ff5e44:  8d 84 24 80 00 00 00     leal     0x80(%esp), %eax
0x06ff5e4b:  e8 06 b7 ff ff           calll    0x6ff1556

----------------
IN: 
0x06ff1556:  83 3d 18 ff ff 06 00     cmpl     $0, 0x6ffff18
0x06ff155d:  75 5c                    jne      0x6ff15bb

----------------
IN: 
0x06ff155f:  57                       pushl    %edi
0x06ff1560:  56                       pushl    %esi
0x06ff1561:  53                       pushl    %ebx
0x06ff1562:  89 c3                    movl     %eax, %ebx
0x06ff1564:  81 38 5f 53 4d 5f        cmpl     $0x5f4d535f, (%eax)
0x06ff156a:  75 4b                    jne      0x6ff15b7

----------------
IN: 
0x06ff156c:  ba 10 00 00 00           movl     $0x10, %edx
0x06ff1571:  e8 0e 8a 0f f9           calll    0xe9f84

----------------
IN: 
0x06ff1576:  84 c0                    testb    %al, %al
0x06ff1578:  75 3d                    jne      0x6ff15b7

----------------
IN: 
0x06ff157a:  8d 7b 10                 leal     0x10(%ebx), %edi
0x06ff157d:  b9 05 00 00 00           movl     $5, %ecx
0x06ff1582:  ba e4 08 0f 00           movl     $0xf08e4, %edx
0x06ff1587:  89 f8                    movl     %edi, %eax
0x06ff1589:  e8 3f 7b 0f f9           calll    0xe90cd

----------------
IN: 
0x06ff158e:  85 c0                    testl    %eax, %eax
0x06ff1590:  75 25                    jne      0x6ff15b7

----------------
IN: 
0x06ff1592:  0f b6 73 05              movzbl   5(%ebx), %esi
0x06ff1596:  8d 56 f0                 leal     -0x10(%esi), %edx
0x06ff1599:  89 f8                    movl     %edi, %eax
0x06ff159b:  e8 e4 89 0f f9           calll    0xe9f84

----------------
IN: 
0x06ff15a0:  84 c0                    testb    %al, %al
0x06ff15a2:  75 13                    jne      0x6ff15b7

----------------
IN: 
0x06ff15a4:  89 f1                    movl     %esi, %ecx
0x06ff15a6:  89 da                    movl     %ebx, %edx
0x06ff15a8:  b8 ea 08 0f 00           movl     $0xf08ea, %eax
0x06ff15ad:  e8 0c ff ff ff           calll    0x6ff14be

----------------
IN: 
0x06ff15b2:  a3 18 ff ff 06           movl     %eax, 0x6ffff18
0x06ff15b7:  5b                       popl     %ebx
0x06ff15b8:  5e                       popl     %esi
0x06ff15b9:  5f                       popl     %edi
0x06ff15ba:  c3                       retl     

----------------
IN: 
0x06ff5e50:  e9 7f 0b 00 00           jmp      0x6ff69d4

----------------
IN: 
0x06ff69d4:  8d 54 24 5c              leal     0x5c(%esp), %edx
0x06ff69d8:  b8 88 0f 0f 00           movl     $0xf0f88, %eax
0x06ff69dd:  e8 55 75 ff ff           calll    0x6fedf37

----------------
IN: 
0x06fedf52:  8d 45 01                 leal     1(%ebp), %eax
0x06fedf55:  e8 94 fe ff ff           calll    0x6feddee

----------------
IN: 
0x06fedf5a:  89 c3                    movl     %eax, %ebx
0x06fedf5c:  85 c0                    testl    %eax, %eax
0x06fedf5e:  75 13                    jne      0x6fedf73

----------------
IN: 
0x06fedf73:  89 e9                    movl     %ebp, %ecx
0x06fedf75:  89 c2                    movl     %eax, %edx
0x06fedf77:  89 f0                    movl     %esi, %eax
0x06fedf79:  ff 96 88 00 00 00        calll    *0x88(%esi)

----------------
IN: 
0x06fedf7f:  85 c0                    testl    %eax, %eax
0x06fedf81:  79 09                    jns      0x6fedf8c

----------------
IN: 
0x06fedf8c:  85 ff                    testl    %edi, %edi
0x06fedf8e:  74 02                    je       0x6fedf92

----------------
IN: 
0x06fedf90:  89 2f                    movl     %ebp, (%edi)
0x06fedf92:  c6 04 2b 00              movb     $0, (%ebx, %ebp)
0x06fedf96:  89 d8                    movl     %ebx, %eax
0x06fedf98:  5b                       popl     %ebx
0x06fedf99:  5e                       popl     %esi
0x06fedf9a:  5f                       popl     %edi
0x06fedf9b:  5d                       popl     %ebp
0x06fedf9c:  c3                       retl     

----------------
IN: 
0x06ff69e2:  89 44 24 04              movl     %eax, 4(%esp)
0x06ff69e6:  85 c0                    testl    %eax, %eax
0x06ff69e8:  0f 84 4e 04 00 00        je       0x6ff6e3c

----------------
IN: 
0x06ff69ee:  8b 44 24 5c              movl     0x5c(%esp), %eax
0x06ff69f2:  89 44 24 08              movl     %eax, 8(%esp)
0x06ff69f6:  83 e0 7f                 andl     $0x7f, %eax
0x06ff69f9:  89 44 24 10              movl     %eax, 0x10(%esp)
0x06ff69fd:  74 14                    je       0x6ff6a13

----------------
IN: 
0x06ff6a13:  8b 44 24 08              movl     8(%esp), %eax
0x06ff6a17:  c1 e8 07                 shrl     $7, %eax
0x06ff6a1a:  8d 04 c5 04 00 00 00     leal     4(, %eax, 8), %eax
0x06ff6a21:  e8 d9 73 ff ff           calll    0x6feddff

----------------
IN: 
0x06ff6a26:  89 04 24                 movl     %eax, (%esp)
0x06ff6a29:  85 c0                    testl    %eax, %eax
0x06ff6a2b:  75 14                    jne      0x6ff6a41

----------------
IN: 
0x06ff6a41:  8b 04 24                 movl     (%esp), %eax
0x06ff6a44:  31 ff                    xorl     %edi, %edi
0x06ff6a46:  89 38                    movl     %edi, (%eax)
0x06ff6a48:  8b 44 24 04              movl     4(%esp), %eax
0x06ff6a4c:  8d 68 04                 leal     4(%eax), %ebp
0x06ff6a4f:  b8 fc ff ff ff           movl     $0xfffffffc, %eax
0x06ff6a54:  8b 7c 24 04              movl     4(%esp), %edi
0x06ff6a58:  29 f8                    subl     %edi, %eax
0x06ff6a5a:  89 44 24 20              movl     %eax, 0x20(%esp)
0x06ff6a5e:  8b 44 24 20              movl     0x20(%esp), %eax
0x06ff6a62:  01 e8                    addl     %ebp, %eax
0x06ff6a64:  39 44 24 08              cmpl     %eax, 8(%esp)
0x06ff6a68:  0f 8e b2 03 00 00        jle      0x6ff6e20

----------------
IN: 
0x06ff6a6e:  8b 45 fc                 movl     -4(%ebp), %eax
0x06ff6a71:  83 f8 03                 cmpl     $3, %eax
0x06ff6a74:  0f 84 90 01 00 00        je       0x6ff6c0a

----------------
IN: 
0x06ff6a7a:  77 13                    ja       0x6ff6a8f

----------------
IN: 
0x06ff6a7c:  83 f8 01                 cmpl     $1, %eax
0x06ff6a7f:  74 1c                    je       0x6ff6a9d

----------------
IN: 
0x06ff6a9d:  8b 04 24                 movl     (%esp), %eax
0x06ff6aa0:  8b 18                    movl     (%eax), %ebx
0x06ff6aa2:  8b 7d 38                 movl     0x38(%ebp), %edi
0x06ff6aa5:  8d 47 ff                 leal     -1(%edi), %eax
0x06ff6aa8:  85 f8                    testl    %edi, %eax
0x06ff6aaa:  0f 85 a4 00 00 00        jne      0x6ff6b54

----------------
IN: 
0x06ff6ab0:  8a 45 3c                 movb     0x3c(%ebp), %al
0x06ff6ab3:  3c 01                    cmpb     $1, %al
0x06ff6ab5:  74 0e                    je       0x6ff6ac5

----------------
IN: 
0x06ff6ab7:  be 60 fe ff 06           movl     $0x6fffe60, %esi
0x06ff6abc:  3c 02                    cmpb     $2, %al
0x06ff6abe:  74 0a                    je       0x6ff6aca

----------------
IN: 
0x06ff6aca:  80 7d 37 00              cmpb     $0, 0x37(%ebp)
0x06ff6ace:  0f 85 80 00 00 00        jne      0x6ff6b54

----------------
IN: 
0x06ff6ad4:  89 e8                    movl     %ebp, %eax
0x06ff6ad6:  e8 53 68 ff ff           calll    0x6fed32e

----------------
IN: 
0x06ff6adb:  8b 0c 24                 movl     (%esp), %ecx
0x06ff6ade:  8d 1c d9                 leal     (%ecx, %ebx, 8), %ebx
0x06ff6ae1:  89 43 04                 movl     %eax, 4(%ebx)
0x06ff6ae4:  85 c0                    testl    %eax, %eax
0x06ff6ae6:  0f 84 2c 03 00 00        je       0x6ff6e18

----------------
IN: 
0x06ff6aec:  8b 90 84 00 00 00        movl     0x84(%eax), %edx
0x06ff6af2:  85 d2                    testl    %edx, %edx
0x06ff6af4:  0f 84 1e 03 00 00        je       0x6ff6e18

----------------
IN: 
0x06ff6afa:  89 f9                    movl     %edi, %ecx
0x06ff6afc:  83 ff 10                 cmpl     $0x10, %edi
0x06ff6aff:  73 05                    jae      0x6ff6b06

----------------
IN: 
0x06ff6b06:  89 f0                    movl     %esi, %eax
0x06ff6b08:  e8 07 72 ff ff           calll    0x6fedd14

----------------
IN: 
0x06ff6b0d:  89 c6                    movl     %eax, %esi
0x06ff6b0f:  85 c0                    testl    %eax, %eax
0x06ff6b11:  75 0f                    jne      0x6ff6b22

----------------
IN: 
0x06ff6b22:  8b 43 04                 movl     4(%ebx), %eax
0x06ff6b25:  8b 88 84 00 00 00        movl     0x84(%eax), %ecx
0x06ff6b2b:  89 f2                    movl     %esi, %edx
0x06ff6b2d:  ff 90 88 00 00 00        calll    *0x88(%eax)

----------------
IN: 
0x06ff6b33:  8b 53 04                 movl     4(%ebx), %edx
0x06ff6b36:  39 82 84 00 00 00        cmpl     %eax, 0x84(%edx)
0x06ff6b3c:  74 09                    je       0x6ff6b47

----------------
IN: 
0x06ff6b47:  89 73 08                 movl     %esi, 8(%ebx)
0x06ff6b4a:  8b 04 24                 movl     (%esp), %eax
0x06ff6b4d:  ff 00                    incl     (%eax)
0x06ff6b4f:  e9 c4 02 00 00           jmp      0x6ff6e18

----------------
IN: 
0x06ff6e18:  83 ed 80                 subl     $-0x80, %ebp
0x06ff6e1b:  e9 3e fc ff ff           jmp      0x6ff6a5e

----------------
IN: 
0x06ff6a5e:  8b 44 24 20              movl     0x20(%esp), %eax
0x06ff6a62:  01 e8                    addl     %ebp, %eax
0x06ff6a64:  39 44 24 08              cmpl     %eax, 8(%esp)
0x06ff6a68:  0f 8e b2 03 00 00        jle      0x6ff6e20

----------------
IN: 
0x06ff6ac5:  be 64 fe ff 06           movl     $0x6fffe64, %esi
0x06ff6aca:  80 7d 37 00              cmpb     $0, 0x37(%ebp)
0x06ff6ace:  0f 85 80 00 00 00        jne      0x6ff6b54

----------------
IN: 
0x06ff6c0a:  8b 5d 38                 movl     0x38(%ebp), %ebx
0x06ff6c0d:  8b 75 3c                 movl     0x3c(%ebp), %esi
0x06ff6c10:  8b 45 40                 movl     0x40(%ebp), %eax
0x06ff6c13:  89 44 24 0c              movl     %eax, 0xc(%esp)
0x06ff6c17:  8b 14 24                 movl     (%esp), %edx
0x06ff6c1a:  89 e8                    movl     %ebp, %eax
0x06ff6c1c:  e8 c5 50 ff ff           calll    0x6febce6

----------------
IN: 
0x06febce6:  80 78 37 00              cmpb     $0, 0x37(%eax)
0x06febcea:  75 2f                    jne      0x6febd1b

----------------
IN: 
0x06febcec:  55                       pushl    %ebp
0x06febced:  57                       pushl    %edi
0x06febcee:  56                       pushl    %esi
0x06febcef:  53                       pushl    %ebx
0x06febcf0:  89 c7                    movl     %eax, %edi
0x06febcf2:  89 d6                    movl     %edx, %esi
0x06febcf4:  8b 2a                    movl     (%edx), %ebp
0x06febcf6:  31 db                    xorl     %ebx, %ebx
0x06febcf8:  39 dd                    cmpl     %ebx, %ebp
0x06febcfa:  7e 1b                    jle      0x6febd17

----------------
IN: 
0x06febcfc:  8b 44 de 04              movl     4(%esi, %ebx, 8), %eax
0x06febd00:  83 c0 04                 addl     $4, %eax
0x06febd03:  89 fa                    movl     %edi, %edx
0x06febd05:  e8 e4 d3 0f f9           calll    0xe90ee

----------------
IN: 
0x06febd0a:  85 c0                    testl    %eax, %eax
0x06febd0c:  75 06                    jne      0x6febd14

----------------
IN: 
0x06febd14:  43                       incl     %ebx
0x06febd15:  eb e1                    jmp      0x6febcf8

----------------
IN: 
0x06febcf8:  39 dd                    cmpl     %ebx, %ebp
0x06febcfa:  7e 1b                    jle      0x6febd17

----------------
IN: 
0x06febd0e:  8d 44 de 04              leal     4(%esi, %ebx, 8), %eax
0x06febd12:  eb 0a                    jmp      0x6febd1e

----------------
IN: 
0x06febd1e:  5b                       popl     %ebx
0x06febd1f:  5e                       popl     %esi
0x06febd20:  5f                       popl     %edi
0x06febd21:  5d                       popl     %ebp
0x06febd22:  c3                       retl     

----------------
IN: 
0x06ff6c21:  85 c0                    testl    %eax, %eax
0x06ff6c23:  74 26                    je       0x6ff6c4b

----------------
IN: 
0x06ff6c25:  8b 50 04                 movl     4(%eax), %edx
0x06ff6c28:  85 d2                    testl    %edx, %edx
0x06ff6c2a:  74 1f                    je       0x6ff6c4b

----------------
IN: 
0x06ff6c2c:  8b 00                    movl     (%eax), %eax
0x06ff6c2e:  8b 80 84 00 00 00        movl     0x84(%eax), %eax
0x06ff6c34:  39 c3                    cmpl     %eax, %ebx
0x06ff6c36:  73 13                    jae      0x6ff6c4b

----------------
IN: 
0x06ff6c38:  8b 7c 24 0c              movl     0xc(%esp), %edi
0x06ff6c3c:  31 c9                    xorl     %ecx, %ecx
0x06ff6c3e:  01 f7                    addl     %esi, %edi
0x06ff6c40:  0f 92 c1                 setb     %cl
0x06ff6c43:  39 f8                    cmpl     %edi, %eax
0x06ff6c45:  72 04                    jb       0x6ff6c4b

----------------
IN: 
0x06ff6c47:  85 c9                    testl    %ecx, %ecx
0x06ff6c49:  74 0f                    je       0x6ff6c5a

----------------
IN: 
0x06ff6c5a:  01 d3                    addl     %edx, %ebx
0x06ff6c5c:  8d 04 32                 leal     (%edx, %esi), %eax
0x06ff6c5f:  8b 54 24 0c              movl     0xc(%esp), %edx
0x06ff6c63:  e8 1c 33 0f f9           calll    0xe9f84

----------------
IN: 
0x06ff6c68:  28 03                    subb     %al, (%ebx)
0x06ff6c6a:  e9 a9 01 00 00           jmp      0x6ff6e18

----------------
IN: 
0x06ff6a81:  83 f8 02                 cmpl     $2, %eax
0x06ff6a84:  0f 84 d9 00 00 00        je       0x6ff6b63

----------------
IN: 
0x06ff6b63:  8b 7d 70                 movl     0x70(%ebp), %edi
0x06ff6b66:  31 f6                    xorl     %esi, %esi
0x06ff6b68:  89 b4 24 80 00 00 00     movl     %esi, 0x80(%esp)
0x06ff6b6f:  89 b4 24 84 00 00 00     movl     %esi, 0x84(%esp)
0x06ff6b76:  8b 14 24                 movl     (%esp), %edx
0x06ff6b79:  89 e8                    movl     %ebp, %eax
0x06ff6b7b:  e8 66 51 ff ff           calll    0x6febce6

----------------
IN: 
0x06ff6b80:  89 c6                    movl     %eax, %esi
0x06ff6b82:  8d 45 38                 leal     0x38(%ebp), %eax
0x06ff6b85:  8b 14 24                 movl     (%esp), %edx
0x06ff6b88:  e8 59 51 ff ff           calll    0x6febce6

----------------
IN: 
0x06ff6b8d:  85 c0                    testl    %eax, %eax
0x06ff6b8f:  74 38                    je       0x6ff6bc9

----------------
IN: 
0x06ff6b91:  85 f6                    testl    %esi, %esi
0x06ff6b93:  74 34                    je       0x6ff6bc9

----------------
IN: 
0x06ff6b95:  8b 4e 04                 movl     4(%esi), %ecx
0x06ff6b98:  85 c9                    testl    %ecx, %ecx
0x06ff6b9a:  74 2d                    je       0x6ff6bc9

----------------
IN: 
0x06ff6b9c:  8b 58 04                 movl     4(%eax), %ebx
0x06ff6b9f:  85 db                    testl    %ebx, %ebx
0x06ff6ba1:  74 26                    je       0x6ff6bc9

----------------
IN: 
0x06ff6ba3:  0f b6 45 74              movzbl   0x74(%ebp), %eax
0x06ff6ba7:  89 c2                    movl     %eax, %edx
0x06ff6ba9:  89 44 24 0c              movl     %eax, 0xc(%esp)
0x06ff6bad:  01 f8                    addl     %edi, %eax
0x06ff6baf:  72 18                    jb       0x6ff6bc9

----------------
IN: 
0x06ff6bb1:  8b 36                    movl     (%esi), %esi
0x06ff6bb3:  39 86 84 00 00 00        cmpl     %eax, 0x84(%esi)
0x06ff6bb9:  72 0e                    jb       0x6ff6bc9

----------------
IN: 
0x06ff6bbb:  8d 42 ff                 leal     -1(%edx), %eax
0x06ff6bbe:  3c 07                    cmpb     $7, %al
0x06ff6bc0:  77 07                    ja       0x6ff6bc9

----------------
IN: 
0x06ff6bc2:  8d 42 ff                 leal     -1(%edx), %eax
0x06ff6bc5:  85 d0                    testl    %edx, %eax
0x06ff6bc7:  74 0f                    je       0x6ff6bd8

----------------
IN: 
0x06ff6bd8:  8d 04 39                 leal     (%ecx, %edi), %eax
0x06ff6bdb:  8d 94 24 80 00 00 00     leal     0x80(%esp), %edx
0x06ff6be2:  89 d7                    movl     %edx, %edi
0x06ff6be4:  89 c6                    movl     %eax, %esi
0x06ff6be6:  8b 4c 24 0c              movl     0xc(%esp), %ecx
0x06ff6bea:  f3 a4                    rep movsb (%esi), %es:(%edi)

----------------
IN: 
0x06ff6bea:  f3 a4                    rep movsb (%esi), %es:(%edi)

----------------
IN: 
0x06ff6bec:  01 9c 24 80 00 00 00     addl     %ebx, 0x80(%esp)
0x06ff6bf3:  83 94 24 84 00 00 00 00  adcl     $0, 0x84(%esp)
0x06ff6bfb:  89 c7                    movl     %eax, %edi
0x06ff6bfd:  89 d6                    movl     %edx, %esi
0x06ff6bff:  8b 4c 24 0c              movl     0xc(%esp), %ecx
0x06ff6c03:  f3 a4                    rep movsb (%esi), %es:(%edi)

----------------
IN: 
0x06ff6c03:  f3 a4                    rep movsb (%esi), %es:(%edi)

----------------
IN: 
0x06ff6c05:  e9 0e 02 00 00           jmp      0x6ff6e18

----------------
IN: 
0x06ff6a8a:  e9 89 03 00 00           jmp      0x6ff6e18

----------------
IN: 
0x06ff6e20:  8b 04 24                 movl     (%esp), %eax
0x06ff6e23:  e8 64 68 ff ff           calll    0x6fed68c

----------------
IN: 
0x06ff6e28:  8b 44 24 04              movl     4(%esp), %eax
0x06ff6e2c:  e8 5b 68 ff ff           calll    0x6fed68c

----------------
IN: 
0x06ff6e31:  eb 11                    jmp      0x6ff6e44

----------------
IN: 
0x06ff6e44:  bf e0 55 0f 00           movl     $0xf55e0, %edi
0x06ff6e49:  bb ef 4d 0f 00           movl     $0xf4def, %ebx
0x06ff6e4e:  83 e3 f0                 andl     $0xfffffff0, %ebx
0x06ff6e51:  89 fe                    movl     %edi, %esi
0x06ff6e53:  83 e6 f0                 andl     $0xfffffff0, %esi
0x06ff6e56:  39 de                    cmpl     %ebx, %esi
0x06ff6e58:  72 18                    jb       0x6ff6e72

----------------
IN: 
0x06ff6e5a:  89 5c 24 08              movl     %ebx, 8(%esp)
0x06ff6e5e:  89 fa                    movl     %edi, %edx
0x06ff6e60:  29 da                    subl     %ebx, %edx
0x06ff6e62:  89 d8                    movl     %ebx, %eax
0x06ff6e64:  e8 42 59 ff ff           calll    0x6fec7ab

----------------
IN: 
0x06fec7ab:  57                       pushl    %edi
0x06fec7ac:  56                       pushl    %esi
0x06fec7ad:  53                       pushl    %ebx
0x06fec7ae:  89 c3                    movl     %eax, %ebx
0x06fec7b0:  89 d7                    movl     %edx, %edi
0x06fec7b2:  8b 00                    movl     (%eax), %eax
0x06fec7b4:  35 52 53 44 20           xorl     $0x20445352, %eax
0x06fec7b9:  8b 53 04                 movl     4(%ebx), %edx
0x06fec7bc:  81 f2 50 54 52 20        xorl     $0x20525450, %edx
0x06fec7c2:  09 d0                    orl      %edx, %eax
0x06fec7c4:  75 44                    jne      0x6fec80a

----------------
IN: 
0x06fec80a:  83 c8 ff                 orl      $0xffffffff, %eax
0x06fec80d:  5b                       popl     %ebx
0x06fec80e:  5e                       popl     %esi
0x06fec80f:  5f                       popl     %edi
0x06fec810:  c3                       retl     

----------------
IN: 
0x06ff6e69:  85 c0                    testl    %eax, %eax
0x06ff6e6b:  79 0b                    jns      0x6ff6e78

----------------
IN: 
0x06ff6e6d:  83 c3 10                 addl     $0x10, %ebx
0x06ff6e70:  eb e4                    jmp      0x6ff6e56

----------------
IN: 
0x06ff6e56:  39 de                    cmpl     %ebx, %esi
0x06ff6e58:  72 18                    jb       0x6ff6e72

----------------
IN: 
0x06fec7c6:  83 ff 13                 cmpl     $0x13, %edi
0x06fec7c9:  76 3f                    jbe      0x6fec80a

----------------
IN: 
0x06fec7cb:  ba 14 00 00 00           movl     $0x14, %edx
0x06fec7d0:  89 d8                    movl     %ebx, %eax
0x06fec7d2:  e8 ad d7 0f f9           calll    0xe9f84

----------------
IN: 
0x06fec7d7:  88 c2                    movb     %al, %dl
0x06fec7d9:  83 c8 ff                 orl      $0xffffffff, %eax
0x06fec7dc:  84 d2                    testb    %dl, %dl
0x06fec7de:  75 2d                    jne      0x6fec80d

----------------
IN: 
0x06fec7e0:  80 7b 0f 01              cmpb     $1, 0xf(%ebx)
0x06fec7e4:  76 1b                    jbe      0x6fec801

----------------
IN: 
0x06fec801:  be 14 00 00 00           movl     $0x14, %esi
0x06fec806:  89 f0                    movl     %esi, %eax
0x06fec808:  eb 03                    jmp      0x6fec80d

----------------
IN: 
0x06fec80d:  5b                       popl     %ebx
0x06fec80e:  5e                       popl     %esi
0x06fec80f:  5f                       popl     %edi
0x06fec810:  c3                       retl     

----------------
IN: 
0x06ff6e78:  8b 44 24 08              movl     8(%esp), %eax
0x06ff6e7c:  a3 d8 4c 0f 00           movl     %eax, 0xf4cd8
0x06ff6e81:  85 c0                    testl    %eax, %eax
0x06ff6e83:  0f 84 4b 01 00 00        je       0x6ff6fd4

----------------
IN: 
0x06ff6e89:  e8 9a ba ff ff           calll    0x6ff2928

----------------
IN: 
0x06ff2928:  56                       pushl    %esi
0x06ff2929:  53                       pushl    %ebx
0x06ff292a:  83 ec 2c                 subl     $0x2c, %esp
0x06ff292d:  b8 46 41 43 50           movl     $0x50434146, %eax
0x06ff2932:  e8 3f a9 0f f9           calll    0xed276

----------------
IN: 
0x000ed276:  56                       pushl    %esi
0x000ed277:  53                       pushl    %ebx
0x000ed278:  8b 1d d8 4c 0f 00        movl     0xf4cd8, %ebx
0x000ed27e:  85 db                    testl    %ebx, %ebx
0x000ed280:  0f 84 95 00 00 00        je       0xed31b

----------------
IN: 
0x000ed286:  81 7b 04 50 54 52 20     cmpl     $0x20525450, 4(%ebx)
0x000ed28d:  0f 85 86 00 00 00        jne      0xed319

----------------
IN: 
0x000ed293:  81 3b 52 53 44 20        cmpl     $0x20445352, (%ebx)
0x000ed299:  75 7e                    jne      0xed319

----------------
IN: 
0x000ed29b:  89 c2                    movl     %eax, %edx
0x000ed29d:  8b 4b 10                 movl     0x10(%ebx), %ecx
0x000ed2a0:  8b 43 18                 movl     0x18(%ebx), %eax
0x000ed2a3:  83 7b 1c 00              cmpl     $0, 0x1c(%ebx)
0x000ed2a7:  75 36                    jne      0xed2df

----------------
IN: 
0x000ed2a9:  85 c0                    testl    %eax, %eax
0x000ed2ab:  74 32                    je       0xed2df

----------------
IN: 
0x000ed2df:  31 db                    xorl     %ebx, %ebx
0x000ed2e1:  85 c9                    testl    %ecx, %ecx
0x000ed2e3:  74 36                    je       0xed31b

----------------
IN: 
0x000ed2e5:  81 39 52 53 44 54        cmpl     $0x54445352, (%ecx)
0x000ed2eb:  75 2e                    jne      0xed31b

----------------
IN: 
0x000ed2ed:  8b 71 04                 movl     4(%ecx), %esi
0x000ed2f0:  01 ce                    addl     %ecx, %esi
0x000ed2f2:  8d 41 24                 leal     0x24(%ecx), %eax
0x000ed2f5:  eb 03                    jmp      0xed2fa

----------------
IN: 
0x000ed2fa:  39 f0                    cmpl     %esi, %eax
0x000ed2fc:  73 1b                    jae      0xed319

----------------
IN: 
0x000ed2fe:  8b 18                    movl     (%eax), %ebx
0x000ed300:  85 db                    testl    %ebx, %ebx
0x000ed302:  74 f3                    je       0xed2f7

----------------
IN: 
0x000ed304:  39 13                    cmpl     %edx, (%ebx)
0x000ed306:  75 ef                    jne      0xed2f7

----------------
IN: 
0x000ed308:  53                       pushl    %ebx
0x000ed309:  52                       pushl    %edx
0x000ed30a:  68 ec ff 0e 00           pushl    $0xeffec
0x000ed30f:  e8 4b e9 ff ff           calll    0xebc5f

----------------
IN: 
0x000ed314:  83 c4 0c                 addl     $0xc, %esp
0x000ed317:  eb 02                    jmp      0xed31b

----------------
IN: 
0x000ed31b:  89 d8                    movl     %ebx, %eax
0x000ed31d:  5b                       popl     %ebx
0x000ed31e:  5e                       popl     %esi
0x000ed31f:  c3                       retl     

----------------
IN: 
0x06ff2937:  85 c0                    testl    %eax, %eax
0x06ff2939:  74 36                    je       0x6ff2971

----------------
IN: 
0x06ff293b:  8b 58 28                 movl     0x28(%eax), %ebx
0x06ff293e:  85 db                    testl    %ebx, %ebx
0x06ff2940:  74 2f                    je       0x6ff2971

----------------
IN: 
0x06ff2942:  8b 73 04                 movl     4(%ebx), %esi
0x06ff2945:  56                       pushl    %esi
0x06ff2946:  53                       pushl    %ebx
0x06ff2947:  68 a4 0e 0f 00           pushl    $0xf0ea4
0x06ff294c:  e8 0e 93 0f f9           calll    0xebc5f

----------------
IN: 
0x06ff2951:  b9 2c 00 00 00           movl     $0x2c, %ecx
0x06ff2956:  31 d2                    xorl     %edx, %edx
0x06ff2958:  8d 44 24 0c              leal     0xc(%esp), %eax
0x06ff295c:  e8 f9 76 0f f9           calll    0xea05a

----------------
IN: 
0x06ff2961:  56                       pushl    %esi
0x06ff2962:  b9 24 00 00 00           movl     $0x24, %ecx
0x06ff2967:  89 da                    movl     %ebx, %edx
0x06ff2969:  e8 5b ff ff ff           calll    0x6ff28c9

----------------
IN: 
0x06ff28c9:  55                       pushl    %ebp
0x06ff28ca:  57                       pushl    %edi
0x06ff28cb:  56                       pushl    %esi
0x06ff28cc:  53                       pushl    %ebx
0x06ff28cd:  89 c6                    movl     %eax, %esi
0x06ff28cf:  89 d5                    movl     %edx, %ebp
0x06ff28d1:  89 cb                    movl     %ecx, %ebx
0x06ff28d3:  8b 7c 24 14              movl     0x14(%esp), %edi
0x06ff28d7:  8d 54 1d 00              leal     (%ebp, %ebx), %edx
0x06ff28db:  89 f0                    movl     %esi, %eax
0x06ff28dd:  e8 fb fc ff ff           calll    0x6ff25dd

----------------
IN: 
0x06ff25dd:  55                       pushl    %ebp
0x06ff25de:  57                       pushl    %edi
0x06ff25df:  56                       pushl    %esi
0x06ff25e0:  53                       pushl    %ebx
0x06ff25e1:  83 ec 10                 subl     $0x10, %esp
0x06ff25e4:  89 c6                    movl     %eax, %esi
0x06ff25e6:  8b 40 28                 movl     0x28(%eax), %eax
0x06ff25e9:  83 f8 10                 cmpl     $0x10, %eax
0x06ff25ec:  75 22                    jne      0x6ff2610

----------------
IN: 
0x06ff2610:  89 d7                    movl     %edx, %edi
0x06ff2612:  40                       incl     %eax
0x06ff2613:  89 46 28                 movl     %eax, 0x28(%esi)
0x06ff2616:  0f b6 0a                 movzbl   (%edx), %ecx
0x06ff2619:  80 f9 14                 cmpb     $0x14, %cl
0x06ff261c:  77 11                    ja       0x6ff262f

----------------
IN: 
0x06ff261e:  ff 24 8d d4 ee ff 06     jmpl     *0x6ffeed4(, %ecx, 4)

----------------
IN: 
0x06ff26bc:  47                       incl     %edi
0x06ff26bd:  8d 54 24 08              leal     8(%esp), %edx
0x06ff26c1:  89 f8                    movl     %edi, %eax
0x06ff26c3:  e8 a1 96 ff ff           calll    0x6febd69

----------------
IN: 
0x06febd69:  56                       pushl    %esi
0x06febd6a:  53                       pushl    %ebx
0x06febd6b:  89 c1                    movl     %eax, %ecx
0x06febd6d:  89 d0                    movl     %edx, %eax
0x06febd6f:  31 db                    xorl     %ebx, %ebx
0x06febd71:  89 1a                    movl     %ebx, (%edx)
0x06febd73:  0f b6 11                 movzbl   (%ecx), %edx
0x06febd76:  88 d3                    movb     %dl, %bl
0x06febd78:  c0 eb 06                 shrb     $6, %bl
0x06febd7b:  80 fb 02                 cmpb     $2, %bl
0x06febd7e:  74 20                    je       0x6febda0

----------------
IN: 
0x06febd80:  80 fb 03                 cmpb     $3, %bl
0x06febd83:  74 0b                    je       0x6febd90

----------------
IN: 
0x06febd85:  fe cb                    decb     %bl
0x06febd87:  75 3a                    jne      0x6febdc3

----------------
IN: 
0x06febd89:  bb 02 00 00 00           movl     $2, %ebx
0x06febd8e:  eb 1f                    jmp      0x6febdaf

----------------
IN: 
0x06febdaf:  0f b6 71 01              movzbl   1(%ecx), %esi
0x06febdb3:  c1 e6 04                 shll     $4, %esi
0x06febdb6:  0b 30                    orl      (%eax), %esi
0x06febdb8:  89 30                    movl     %esi, (%eax)
0x06febdba:  8a 11                    movb     (%ecx), %dl
0x06febdbc:  83 e2 0f                 andl     $0xf, %edx
0x06febdbf:  09 f2                    orl      %esi, %edx
0x06febdc1:  eb 05                    jmp      0x6febdc8

----------------
IN: 
0x06febdc8:  89 10                    movl     %edx, (%eax)
0x06febdca:  89 d8                    movl     %ebx, %eax
0x06febdcc:  5b                       popl     %ebx
0x06febdcd:  5e                       popl     %esi
0x06febdce:  c3                       retl     

----------------
IN: 
0x06ff26c8:  89 c5                    movl     %eax, %ebp
0x06ff26ca:  8d 14 07                 leal     (%edi, %eax), %edx
0x06ff26cd:  89 f0                    movl     %esi, %eax
0x06ff26cf:  e8 97 a2 ff ff           calll    0x6fec96b

----------------
IN: 
0x06fec96b:  55                       pushl    %ebp
0x06fec96c:  57                       pushl    %edi
0x06fec96d:  56                       pushl    %esi
0x06fec96e:  53                       pushl    %ebx
0x06fec96f:  51                       pushl    %ecx
0x06fec970:  89 c1                    movl     %eax, %ecx
0x06fec972:  89 d6                    movl     %edx, %esi
0x06fec974:  89 04 24                 movl     %eax, (%esp)
0x06fec977:  bf 01 00 00 00           movl     $1, %edi
0x06fec97c:  8d 5f ff                 leal     -1(%edi), %ebx
0x06fec97f:  8a 44 3e ff              movb     -1(%esi, %edi), %al
0x06fec983:  3c 5a                    cmpb     $0x5a, %al
0x06fec985:  77 25                    ja       0x6fec9ac

----------------
IN: 
0x06fec9ac:  3c 5e                    cmpb     $0x5e, %al
0x06fec9ae:  74 63                    je       0x6feca13

----------------
IN: 
0x06fec9b0:  3c 5f                    cmpb     $0x5f, %al
0x06fec9b2:  74 6d                    je       0x6feca21

----------------
IN: 
0x06fec9b4:  3c 5c                    cmpb     $0x5c, %al
0x06fec9b6:  75 76                    jne      0x6feca2e

----------------
IN: 
0x06fec9b8:  8b 04 24                 movl     (%esp), %eax
0x06fec9bb:  8d 50 01                 leal     1(%eax), %edx
0x06fec9be:  89 14 24                 movl     %edx, (%esp)
0x06fec9c1:  c6 00 5c                 movb     $0x5c, (%eax)
0x06fec9c4:  47                       incl     %edi
0x06fec9c5:  eb b5                    jmp      0x6fec97c

----------------
IN: 
0x06fec97c:  8d 5f ff                 leal     -1(%edi), %ebx
0x06fec97f:  8a 44 3e ff              movb     -1(%esi, %edi), %al
0x06fec983:  3c 5a                    cmpb     $0x5a, %al
0x06fec985:  77 25                    ja       0x6fec9ac

----------------
IN: 
0x06fec987:  3c 40                    cmpb     $0x40, %al
0x06fec989:  0f 87 92 00 00 00        ja       0x6feca21

----------------
IN: 
0x06fec98f:  3c 2e                    cmpb     $0x2e, %al
0x06fec991:  74 34                    je       0x6fec9c7

----------------
IN: 
0x06fec993:  3c 2f                    cmpb     $0x2f, %al
0x06fec995:  74 50                    je       0x6fec9e7

----------------
IN: 
0x06fec997:  84 c0                    testb    %al, %al
0x06fec999:  0f 85 8f 00 00 00        jne      0x6feca2e

----------------
IN: 
0x06fec99f:  89 fb                    movl     %edi, %ebx
0x06fec9a1:  8b 04 24                 movl     (%esp), %eax
0x06fec9a4:  c6 00 00                 movb     $0, (%eax)
0x06fec9a7:  e9 89 00 00 00           jmp      0x6feca35

----------------
IN: 
0x06feca35:  89 d8                    movl     %ebx, %eax
0x06feca37:  5a                       popl     %edx
0x06feca38:  5b                       popl     %ebx
0x06feca39:  5e                       popl     %esi
0x06feca3a:  5f                       popl     %edi
0x06feca3b:  5d                       popl     %ebp
0x06feca3c:  c3                       retl     

----------------
IN: 
0x06ff26d4:  8b 5c 24 08              movl     8(%esp), %ebx
0x06ff26d8:  8d 4c 05 00              leal     (%ebp, %eax), %ecx
0x06ff26dc:  53                       pushl    %ebx
0x06ff26dd:  89 fa                    movl     %edi, %edx
0x06ff26df:  89 f0                    movl     %esi, %eax
0x06ff26e1:  e8 e3 01 00 00           calll    0x6ff28c9

----------------
IN: 
0x06ff262f:  80 f9 5b                 cmpb     $0x5b, %cl
0x06ff2632:  0f 84 52 01 00 00        je       0x6ff278a

----------------
IN: 
0x06ff278a:  0f b6 4a 01              movzbl   1(%edx), %ecx
0x06ff278e:  80 f9 81                 cmpb     $0x81, %cl
0x06ff2791:  74 66                    je       0x6ff27f9

----------------
IN: 
0x06ff2793:  77 3a                    ja       0x6ff27cf

----------------
IN: 
0x06ff2795:  80 f9 01                 cmpb     $1, %cl
0x06ff2798:  74 46                    je       0x6ff27e0

----------------
IN: 
0x06ff279a:  80 f9 80                 cmpb     $0x80, %cl
0x06ff279d:  0f 85 fa 00 00 00        jne      0x6ff289d

----------------
IN: 
0x06ff27a3:  8d 52 02                 leal     2(%edx), %edx
0x06ff27a6:  89 f0                    movl     %esi, %eax
0x06ff27a8:  e8 be a1 ff ff           calll    0x6fec96b

----------------
IN: 
0x06feca21:  89 e2                    movl     %esp, %edx
0x06feca23:  89 f0                    movl     %esi, %eax
0x06feca25:  e8 3b fb ff ff           calll    0x6fec565

----------------
IN: 
0x06fec565:  89 c1                    movl     %eax, %ecx
0x06fec567:  89 d0                    movl     %edx, %eax
0x06fec569:  8b 12                    movl     (%edx), %edx
0x06fec56b:  85 d2                    testl    %edx, %edx
0x06fec56d:  74 4b                    je       0x6fec5ba

----------------
IN: 
0x06fec56f:  56                       pushl    %esi
0x06fec570:  53                       pushl    %ebx
0x06fec571:  8a 19                    movb     (%ecx), %bl
0x06fec573:  8d 72 01                 leal     1(%edx), %esi
0x06fec576:  89 30                    movl     %esi, (%eax)
0x06fec578:  88 1a                    movb     %bl, (%edx)
0x06fec57a:  8a 59 01                 movb     1(%ecx), %bl
0x06fec57d:  80 fb 5f                 cmpb     $0x5f, %bl
0x06fec580:  74 09                    je       0x6fec58b

----------------
IN: 
0x06fec582:  8b 10                    movl     (%eax), %edx
0x06fec584:  8d 72 01                 leal     1(%edx), %esi
0x06fec587:  89 30                    movl     %esi, (%eax)
0x06fec589:  88 1a                    movb     %bl, (%edx)
0x06fec58b:  8a 59 02                 movb     2(%ecx), %bl
0x06fec58e:  80 fb 5f                 cmpb     $0x5f, %bl
0x06fec591:  74 09                    je       0x6fec59c

----------------
IN: 
0x06fec593:  8b 10                    movl     (%eax), %edx
0x06fec595:  8d 72 01                 leal     1(%edx), %esi
0x06fec598:  89 30                    movl     %esi, (%eax)
0x06fec59a:  88 1a                    movb     %bl, (%edx)
0x06fec59c:  8a 49 03                 movb     3(%ecx), %cl
0x06fec59f:  80 f9 5f                 cmpb     $0x5f, %cl
0x06fec5a2:  74 09                    je       0x6fec5ad

----------------
IN: 
0x06fec5ad:  8b 00                    movl     (%eax), %eax
0x06fec5af:  c6 00 00                 movb     $0, (%eax)
0x06fec5b2:  b8 04 00 00 00           movl     $4, %eax
0x06fec5b7:  5b                       popl     %ebx
0x06fec5b8:  5e                       popl     %esi
0x06fec5b9:  c3                       retl     

----------------
IN: 
0x06feca2a:  01 c3                    addl     %eax, %ebx
0x06feca2c:  eb 07                    jmp      0x6feca35

----------------
IN: 
0x06ff27ad:  8d 58 03                 leal     3(%eax), %ebx
0x06ff27b0:  8d 6e 24                 leal     0x24(%esi), %ebp
0x06ff27b3:  8d 04 1f                 leal     (%edi, %ebx), %eax
0x06ff27b6:  31 c9                    xorl     %ecx, %ecx
0x06ff27b8:  89 ea                    movl     %ebp, %edx
0x06ff27ba:  e8 20 9f ff ff           calll    0x6fec6df

----------------
IN: 
0x06fec6df:  53                       pushl    %ebx
0x06fec6e0:  89 cb                    movl     %ecx, %ebx
0x06fec6e2:  80 38 0c                 cmpb     $0xc, (%eax)
0x06fec6e5:  77 30                    ja       0x6fec717

----------------
IN: 
0x06fec6e7:  0f b6 08                 movzbl   (%eax), %ecx
0x06fec6ea:  ff 24 8d 78 ee ff 06     jmpl     *0x6ffee78(, %ecx, 4)

----------------
IN: 
0x06fec6fe:  0f b7 40 01              movzwl   1(%eax), %eax
0x06fec702:  31 d2                    xorl     %edx, %edx
0x06fec704:  b9 03 00 00 00           movl     $3, %ecx
0x06fec709:  eb 2b                    jmp      0x6fec736

----------------
IN: 
0x06fec736:  85 db                    testl    %ebx, %ebx
0x06fec738:  74 05                    je       0x6fec73f

----------------
IN: 
0x06fec73f:  89 c8                    movl     %ecx, %eax
0x06fec741:  5b                       popl     %ebx
0x06fec742:  c3                       retl     

----------------
IN: 
0x06ff27bf:  01 c3                    addl     %eax, %ebx
0x06ff27c1:  8d 04 1f                 leal     (%edi, %ebx), %eax
0x06ff27c4:  31 c9                    xorl     %ecx, %ecx
0x06ff27c6:  89 ea                    movl     %ebp, %edx
0x06ff27c8:  e8 12 9f ff ff           calll    0x6fec6df

----------------
IN: 
0x06fec72a:  b9 01 00 00 00           movl     $1, %ecx
0x06fec72f:  b8 01 00 00 00           movl     $1, %eax
0x06fec734:  31 d2                    xorl     %edx, %edx
0x06fec736:  85 db                    testl    %ebx, %ebx
0x06fec738:  74 05                    je       0x6fec73f

----------------
IN: 
0x06ff27cd:  eb 23                    jmp      0x6ff27f2

----------------
IN: 
0x06ff27f2:  01 d8                    addl     %ebx, %eax
0x06ff27f4:  e9 c5 00 00 00           jmp      0x6ff28be

----------------
IN: 
0x06ff28be:  ff 4e 28                 decl     0x28(%esi)
0x06ff28c1:  83 c4 10                 addl     $0x10, %esp
0x06ff28c4:  5b                       popl     %ebx
0x06ff28c5:  5e                       popl     %esi
0x06ff28c6:  5f                       popl     %edi
0x06ff28c7:  5d                       popl     %ebp
0x06ff28c8:  c3                       retl     

----------------
IN: 
0x06ff28e2:  01 c3                    addl     %eax, %ebx
0x06ff28e4:  39 fb                    cmpl     %edi, %ebx
0x06ff28e6:  74 3b                    je       0x6ff2923

----------------
IN: 
0x06ff28e8:  7e 1a                    jle      0x6ff2904

----------------
IN: 
0x06ff2904:  83 7e 24 00              cmpl     $0, 0x24(%esi)
0x06ff2908:  74 cd                    je       0x6ff28d7

----------------
IN: 
0x06ff28d7:  8d 54 1d 00              leal     (%ebp, %ebx), %edx
0x06ff28db:  89 f0                    movl     %esi, %eax
0x06ff28dd:  e8 fb fc ff ff           calll    0x6ff25dd

----------------
IN: 
0x06ff27f9:  80 cd 5b                 orb      $0x5b, %ch
0x06ff27fc:  8d 57 02                 leal     2(%edi), %edx
0x06ff27ff:  6a 01                    pushl    $1
0x06ff2801:  89 f0                    movl     %esi, %eax
0x06ff2803:  e8 92 fd ff ff           calll    0x6ff259a

----------------
IN: 
0x06ff259a:  56                       pushl    %esi
0x06ff259b:  53                       pushl    %ebx
0x06ff259c:  83 ec 0c                 subl     $0xc, %esp
0x06ff259f:  89 c6                    movl     %eax, %esi
0x06ff25a1:  89 d3                    movl     %edx, %ebx
0x06ff25a3:  51                       pushl    %ecx
0x06ff25a4:  68 45 0e 0f 00           pushl    $0xf0e45
0x06ff25a9:  6a 08                    pushl    $8
0x06ff25ab:  8d 44 24 10              leal     0x10(%esp), %eax
0x06ff25af:  50                       pushl    %eax
0x06ff25b0:  e8 ac fc ff ff           calll    0x6ff2261

----------------
IN: 
0x06ff2261:  53                       pushl    %ebx
0x06ff2262:  83 ec 0c                 subl     $0xc, %esp
0x06ff2265:  8b 5c 24 14              movl     0x14(%esp), %ebx
0x06ff2269:  8b 54 24 18              movl     0x18(%esp), %edx
0x06ff226d:  31 c0                    xorl     %eax, %eax
0x06ff226f:  85 d2                    testl    %edx, %edx
0x06ff2271:  74 34                    je       0x6ff22a7

----------------
IN: 
0x06ff2273:  c7 04 24 a0 b1 fe 06     movl     $0x6feb1a0, (%esp)
0x06ff227a:  89 5c 24 04              movl     %ebx, 4(%esp)
0x06ff227e:  01 da                    addl     %ebx, %edx
0x06ff2280:  89 54 24 08              movl     %edx, 8(%esp)
0x06ff2284:  8d 4c 24 20              leal     0x20(%esp), %ecx
0x06ff2288:  8b 54 24 1c              movl     0x1c(%esp), %edx
0x06ff228c:  89 e0                    movl     %esp, %eax
0x06ff228e:  e8 5d 91 0f f9           calll    0xeb3f0

----------------
IN: 
0x06feb1a0:  8b 48 04                 movl     4(%eax), %ecx
0x06feb1a3:  3b 48 08                 cmpl     8(%eax), %ecx
0x06feb1a6:  73 05                    jae      0x6feb1ad

----------------
IN: 
0x06feb1a8:  88 11                    movb     %dl, (%ecx)
0x06feb1aa:  ff 40 04                 incl     4(%eax)
0x06feb1ad:  c3                       retl     

----------------
IN: 
0x06ff2293:  8b 44 24 04              movl     4(%esp), %eax
0x06ff2297:  8b 54 24 08              movl     8(%esp), %edx
0x06ff229b:  39 d0                    cmpl     %edx, %eax
0x06ff229d:  72 03                    jb       0x6ff22a2

----------------
IN: 
0x06ff22a2:  c6 00 00                 movb     $0, (%eax)
0x06ff22a5:  29 d8                    subl     %ebx, %eax
0x06ff22a7:  83 c4 0c                 addl     $0xc, %esp
0x06ff22aa:  5b                       popl     %ebx
0x06ff22ab:  c3                       retl     

----------------
IN: 
0x06ff25b5:  8d 54 24 10              leal     0x10(%esp), %edx
0x06ff25b9:  89 d8                    movl     %ebx, %eax
0x06ff25bb:  e8 a9 97 ff ff           calll    0x6febd69

----------------
IN: 
0x06febdc3:  bb 01 00 00 00           movl     $1, %ebx
0x06febdc8:  89 10                    movl     %edx, (%eax)
0x06febdca:  89 d8                    movl     %ebx, %eax
0x06febdcc:  5b                       popl     %ebx
0x06febdcd:  5e                       popl     %esi
0x06febdce:  c3                       retl     

----------------
IN: 
0x06ff25c0:  83 c4 10                 addl     $0x10, %esp
0x06ff25c3:  83 7c 24 18 00           cmpl     $0, 0x18(%esp)
0x06ff25c8:  74 0a                    je       0x6ff25d4

----------------
IN: 
0x06ff25ca:  8d 14 03                 leal     (%ebx, %eax), %edx
0x06ff25cd:  89 f0                    movl     %esi, %eax
0x06ff25cf:  e8 97 a3 ff ff           calll    0x6fec96b

----------------
IN: 
0x06ff25d4:  8b 04 24                 movl     (%esp), %eax
0x06ff25d7:  83 c4 0c                 addl     $0xc, %esp
0x06ff25da:  5b                       popl     %ebx
0x06ff25db:  5e                       popl     %esi
0x06ff25dc:  c3                       retl     

----------------
IN: 
0x06ff2808:  83 c0 02                 addl     $2, %eax
0x06ff280b:  59                       popl     %ecx
0x06ff280c:  e9 ad 00 00 00           jmp      0x6ff28be

----------------
IN: 
0x06ff2752:  8d 52 01                 leal     1(%edx), %edx
0x06ff2755:  6a 01                    pushl    $1
0x06ff2757:  b9 14 00 00 00           movl     $0x14, %ecx
0x06ff275c:  89 f0                    movl     %esi, %eax
0x06ff275e:  e8 37 fe ff ff           calll    0x6ff259a

----------------
IN: 
0x06fec5a4:  8b 10                    movl     (%eax), %edx
0x06fec5a6:  8d 5a 01                 leal     1(%edx), %ebx
0x06fec5a9:  89 18                    movl     %ebx, (%eax)
0x06fec5ab:  88 0a                    movb     %cl, (%edx)
0x06fec5ad:  8b 00                    movl     (%eax), %eax
0x06fec5af:  c6 00 00                 movb     $0, (%eax)
0x06fec5b2:  b8 04 00 00 00           movl     $4, %eax
0x06fec5b7:  5b                       popl     %ebx
0x06fec5b8:  5e                       popl     %esi
0x06fec5b9:  c3                       retl     

----------------
IN: 
0x06ff2763:  89 c3                    movl     %eax, %ebx
0x06ff2765:  8b 6e 20                 movl     0x20(%esi), %ebp
0x06ff2768:  58                       popl     %eax
0x06ff2769:  85 ed                    testl    %ebp, %ebp
0x06ff276b:  75 08                    jne      0x6ff2775

----------------
IN: 
0x06ff276d:  8d 43 01                 leal     1(%ebx), %eax
0x06ff2770:  e9 49 01 00 00           jmp      0x6ff28be

----------------
IN: 
0x06ff2923:  5b                       popl     %ebx
0x06ff2924:  5e                       popl     %esi
0x06ff2925:  5f                       popl     %edi
0x06ff2926:  5d                       popl     %ebp
0x06ff2927:  c3                       retl     

----------------
IN: 
0x06ff26e6:  8d 43 01                 leal     1(%ebx), %eax
0x06ff26e9:  e9 1d 01 00 00           jmp      0x6ff280b

----------------
IN: 
0x06ff280b:  59                       popl     %ecx
0x06ff280c:  e9 ad 00 00 00           jmp      0x6ff28be

----------------
IN: 
0x06ff27cf:  80 f9 82                 cmpb     $0x82, %cl
0x06ff27d2:  74 3d                    je       0x6ff2811

----------------
IN: 
0x06ff2811:  83 c7 02                 addl     $2, %edi
0x06ff2814:  8d 54 24 08              leal     8(%esp), %edx
0x06ff2818:  89 f8                    movl     %edi, %eax
0x06ff281a:  e8 4a 95 ff ff           calll    0x6febd69

----------------
IN: 
0x06ff281f:  89 c5                    movl     %eax, %ebp
0x06ff2821:  8d 14 07                 leal     (%edi, %eax), %edx
0x06ff2824:  89 f0                    movl     %esi, %eax
0x06ff2826:  e8 40 a1 ff ff           calll    0x6fec96b

----------------
IN: 
0x06ff282b:  01 c5                    addl     %eax, %ebp
0x06ff282d:  b8 28 00 00 00           movl     $0x28, %eax
0x06ff2832:  e8 c8 b5 ff ff           calll    0x6feddff

----------------
IN: 
0x06ff2837:  89 46 20                 movl     %eax, 0x20(%esi)
0x06ff283a:  85 c0                    testl    %eax, %eax
0x06ff283c:  75 1c                    jne      0x6ff285a

----------------
IN: 
0x06ff285a:  b9 28 00 00 00           movl     $0x28, %ecx
0x06ff285f:  31 d2                    xorl     %edx, %edx
0x06ff2861:  e8 f4 77 0f f9           calll    0xea05a

----------------
IN: 
0x06ff2866:  8b 46 20                 movl     0x20(%esi), %eax
0x06ff2869:  ba 10 fc ff 06           movl     $0x6fffc10, %edx
0x06ff286e:  e8 1c 89 ff ff           calll    0x6feb18f

----------------
IN: 
0x06ff2873:  83 c0 08                 addl     $8, %eax
0x06ff2876:  b9 20 00 00 00           movl     $0x20, %ecx
0x06ff287b:  89 f2                    movl     %esi, %edx
0x06ff287d:  e8 2c 89 ff ff           calll    0x6feb1ae

----------------
IN: 
0x06ff2882:  8b 5c 24 08              movl     8(%esp), %ebx
0x06ff2886:  53                       pushl    %ebx
0x06ff2887:  89 e9                    movl     %ebp, %ecx
0x06ff2889:  89 fa                    movl     %edi, %edx
0x06ff288b:  89 f0                    movl     %esi, %eax
0x06ff288d:  e8 37 00 00 00           calll    0x6ff28c9

----------------
IN: 
0x06ff2659:  8d 52 01                 leal     1(%edx), %edx
0x06ff265c:  89 f0                    movl     %esi, %eax
0x06ff265e:  e8 08 a3 ff ff           calll    0x6fec96b

----------------
IN: 
0x06ff2663:  8d 58 01                 leal     1(%eax), %ebx
0x06ff2666:  8d 14 1f                 leal     (%edi, %ebx), %edx
0x06ff2669:  89 f0                    movl     %esi, %eax
0x06ff266b:  e8 6d ff ff ff           calll    0x6ff25dd

----------------
IN: 
0x06ff28b9:  b8 05 00 00 00           movl     $5, %eax
0x06ff28be:  ff 4e 28                 decl     0x28(%esi)
0x06ff28c1:  83 c4 10                 addl     $0x10, %esp
0x06ff28c4:  5b                       popl     %ebx
0x06ff28c5:  5e                       popl     %esi
0x06ff28c6:  5f                       popl     %edi
0x06ff28c7:  5d                       popl     %ebp
0x06ff28c8:  c3                       retl     

----------------
IN: 
0x06ff2670:  89 04 24                 movl     %eax, (%esp)
0x06ff2673:  8b 6e 20                 movl     0x20(%esi), %ebp
0x06ff2676:  85 ed                    testl    %ebp, %ebp
0x06ff2678:  75 08                    jne      0x6ff2682

----------------
IN: 
0x06ff2682:  ba 5f 0e 0f 00           movl     $0xf0e5f, %edx
0x06ff2687:  89 f0                    movl     %esi, %eax
0x06ff2689:  e8 60 6a 0f f9           calll    0xe90ee

----------------
IN: 
0x06ff268e:  85 c0                    testl    %eax, %eax
0x06ff2690:  75 03                    jne      0x6ff2695

----------------
IN: 
0x06ff2692:  89 7d 18                 movl     %edi, 0x18(%ebp)
0x06ff2695:  ba 64 0e 0f 00           movl     $0xf0e64, %edx
0x06ff269a:  89 f0                    movl     %esi, %eax
0x06ff269c:  e8 4d 6a 0f f9           calll    0xe90ee

----------------
IN: 
0x06ff26a1:  85 c0                    testl    %eax, %eax
0x06ff26a3:  75 d5                    jne      0x6ff267a

----------------
IN: 
0x06ff267a:  8b 04 24                 movl     (%esp), %eax
0x06ff267d:  e9 70 01 00 00           jmp      0x6ff27f2

----------------
IN: 
0x06ff28b2:  b8 01 00 00 00           movl     $1, %eax
0x06ff28b7:  eb 05                    jmp      0x6ff28be

----------------
IN: 
0x06ff2695:  ba 64 0e 0f 00           movl     $0xf0e64, %edx
0x06ff269a:  89 f0                    movl     %esi, %eax
0x06ff269c:  e8 4d 6a 0f f9           calll    0xe90ee

----------------
IN: 
0x06ff2775:  ba 64 0e 0f 00           movl     $0xf0e64, %edx
0x06ff277a:  89 f0                    movl     %esi, %eax
0x06ff277c:  e8 6d 69 0f f9           calll    0xe90ee

----------------
IN: 
0x06ff2781:  85 c0                    testl    %eax, %eax
0x06ff2783:  75 e8                    jne      0x6ff276d

----------------
IN: 
0x06ff2892:  31 c0                    xorl     %eax, %eax
0x06ff2894:  89 46 20                 movl     %eax, 0x20(%esi)
0x06ff2897:  5a                       popl     %edx
0x06ff2898:  8d 43 02                 leal     2(%ebx), %eax
0x06ff289b:  eb 21                    jmp      0x6ff28be

----------------
IN: 
0x06fec9c7:  8d 04 3e                 leal     (%esi, %edi), %eax
0x06fec9ca:  89 e2                    movl     %esp, %edx
0x06fec9cc:  e8 94 fb ff ff           calll    0x6fec565

----------------
IN: 
0x06fec9d1:  8d 1c 07                 leal     (%edi, %eax), %ebx
0x06fec9d4:  8b 04 24                 movl     (%esp), %eax
0x06fec9d7:  8d 50 01                 leal     1(%eax), %edx
0x06fec9da:  89 14 24                 movl     %edx, (%esp)
0x06fec9dd:  c6 00 2e                 movb     $0x2e, (%eax)
0x06fec9e0:  8d 04 1e                 leal     (%esi, %ebx), %eax
0x06fec9e3:  89 e2                    movl     %esp, %edx
0x06fec9e5:  eb 3e                    jmp      0x6feca25

----------------
IN: 
0x06feca25:  e8 3b fb ff ff           calll    0x6fec565

----------------
IN: 
0x06fec6f1:  0f b6 40 01              movzbl   1(%eax), %eax
0x06fec6f5:  31 d2                    xorl     %edx, %edx
0x06fec6f7:  b9 02 00 00 00           movl     $2, %ecx
0x06fec6fc:  eb 38                    jmp      0x6fec736

----------------
IN: 
0x06ff27e0:  8d 52 02                 leal     2(%edx), %edx
0x06ff27e3:  89 f0                    movl     %esi, %eax
0x06ff27e5:  e8 81 a1 ff ff           calll    0x6fec96b

----------------
IN: 
0x06ff27ea:  83 c0 03                 addl     $3, %eax
0x06ff27ed:  e9 cc 00 00 00           jmp      0x6ff28be

----------------
IN: 
0x06ff26ee:  47                       incl     %edi
0x06ff26ef:  8d 54 24 04              leal     4(%esp), %edx
0x06ff26f3:  89 f8                    movl     %edi, %eax
0x06ff26f5:  e8 6f 96 ff ff           calll    0x6febd69

----------------
IN: 
0x06ff26fa:  89 c3                    movl     %eax, %ebx
0x06ff26fc:  8d 56 24                 leal     0x24(%esi), %edx
0x06ff26ff:  8d 04 07                 leal     (%edi, %eax), %eax
0x06ff2702:  8d 4c 24 08              leal     8(%esp), %ecx
0x06ff2706:  e8 d4 9f ff ff           calll    0x6fec6df

----------------
IN: 
0x06fec73a:  89 03                    movl     %eax, (%ebx)
0x06fec73c:  89 53 04                 movl     %edx, 4(%ebx)
0x06fec73f:  89 c8                    movl     %ecx, %eax
0x06fec741:  5b                       popl     %ebx
0x06fec742:  c3                       retl     

----------------
IN: 
0x06ff270b:  89 04 24                 movl     %eax, (%esp)
0x06ff270e:  8b 6e 20                 movl     0x20(%esi), %ebp
0x06ff2711:  85 ed                    testl    %ebp, %ebp
0x06ff2713:  74 21                    je       0x6ff2736

----------------
IN: 
0x06ff2715:  ba 69 0e 0f 00           movl     $0xf0e69, %edx
0x06ff271a:  89 f0                    movl     %esi, %eax
0x06ff271c:  e8 cd 69 0f f9           calll    0xe90ee

----------------
IN: 
0x06ff2721:  85 c0                    testl    %eax, %eax
0x06ff2723:  75 11                    jne      0x6ff2736

----------------
IN: 
0x06ff2736:  8b 44 24 04              movl     4(%esp), %eax
0x06ff273a:  40                       incl     %eax
0x06ff273b:  e9 7e 01 00 00           jmp      0x6ff28be

----------------
IN: 
0x06ff2785:  89 7d 1c                 movl     %edi, 0x1c(%ebp)
0x06ff2788:  eb e3                    jmp      0x6ff276d

----------------
IN: 
0x06ff28a4:  b8 02 00 00 00           movl     $2, %eax
0x06ff28a9:  eb 13                    jmp      0x6ff28be

----------------
IN: 
0x06fec70b:  8b 40 01                 movl     1(%eax), %eax
0x06fec70e:  31 d2                    xorl     %edx, %edx
0x06fec710:  b9 05 00 00 00           movl     $5, %ecx
0x06fec715:  eb 1f                    jmp      0x6fec736

----------------
IN: 
0x06ff2725:  8b 04 24                 movl     (%esp), %eax
0x06ff2728:  01 c3                    addl     %eax, %ebx
0x06ff272a:  01 df                    addl     %ebx, %edi
0x06ff272c:  89 7d 20                 movl     %edi, 0x20(%ebp)
0x06ff272f:  8b 44 24 08              movl     8(%esp), %eax
0x06ff2733:  89 45 24                 movl     %eax, 0x24(%ebp)
0x06ff2736:  8b 44 24 04              movl     4(%esp), %eax
0x06ff273a:  40                       incl     %eax
0x06ff273b:  e9 7e 01 00 00           jmp      0x6ff28be

----------------
IN: 
0x06ff26aa:  b8 01 00 00 00           movl     $1, %eax
0x06ff26af:  8a 14 07                 movb     (%edi, %eax), %dl
0x06ff26b2:  40                       incl     %eax
0x06ff26b3:  84 d2                    testb    %dl, %dl
0x06ff26b5:  75 f8                    jne      0x6ff26af

----------------
IN: 
0x06ff26af:  8a 14 07                 movb     (%edi, %eax), %dl
0x06ff26b2:  40                       incl     %eax
0x06ff26b3:  84 d2                    testb    %dl, %dl
0x06ff26b5:  75 f8                    jne      0x6ff26af

----------------
IN: 
0x06ff26b7:  e9 02 02 00 00           jmp      0x6ff28be

----------------
IN: 
0x06fec9e7:  0f b6 2c 3e              movzbl   (%esi, %edi), %ebp
0x06fec9eb:  8d 5f 01                 leal     1(%edi), %ebx
0x06fec9ee:  31 ff                    xorl     %edi, %edi
0x06fec9f0:  39 fd                    cmpl     %edi, %ebp
0x06fec9f2:  7e 41                    jle      0x6feca35

----------------
IN: 
0x06fec9f4:  85 ff                    testl    %edi, %edi
0x06fec9f6:  74 0c                    je       0x6feca04

----------------
IN: 
0x06feca04:  8d 04 1e                 leal     (%esi, %ebx), %eax
0x06feca07:  89 e2                    movl     %esp, %edx
0x06feca09:  e8 57 fb ff ff           calll    0x6fec565

----------------
IN: 
0x06feca0e:  01 c3                    addl     %eax, %ebx
0x06feca10:  47                       incl     %edi
0x06feca11:  eb dd                    jmp      0x6fec9f0

----------------
IN: 
0x06fec9f0:  39 fd                    cmpl     %edi, %ebp
0x06fec9f2:  7e 41                    jle      0x6feca35

----------------
IN: 
0x06fec9f8:  8b 04 24                 movl     (%esp), %eax
0x06fec9fb:  8d 50 01                 leal     1(%eax), %edx
0x06fec9fe:  89 14 24                 movl     %edx, (%esp)
0x06feca01:  c6 00 2e                 movb     $0x2e, (%eax)
0x06feca04:  8d 04 1e                 leal     (%esi, %ebx), %eax
0x06feca07:  89 e2                    movl     %esp, %edx
0x06feca09:  e8 57 fb ff ff           calll    0x6fec565

----------------
IN: 
0x06ff27d4:  8d 41 7d                 leal     0x7d(%ecx), %eax
0x06ff27d7:  3c 02                    cmpb     $2, %al
0x06ff27d9:  76 1e                    jbe      0x6ff27f9

----------------
IN: 
0x06ff26a5:  89 7d 1c                 movl     %edi, 0x1c(%ebp)
0x06ff26a8:  eb d0                    jmp      0x6ff267a

----------------
IN: 
0x06ff2740:  8d 52 01                 leal     1(%edx), %edx
0x06ff2743:  6a 00                    pushl    $0
0x06ff2745:  89 f0                    movl     %esi, %eax
0x06ff2747:  e8 4e fe ff ff           calll    0x6ff259a

----------------
IN: 
0x06ff274c:  40                       incl     %eax
0x06ff274d:  e9 b9 00 00 00           jmp      0x6ff280b

----------------
IN: 
0x06fec58b:  8a 59 02                 movb     2(%ecx), %bl
0x06fec58e:  80 fb 5f                 cmpb     $0x5f, %bl
0x06fec591:  74 09                    je       0x6fec59c

----------------
IN: 
0x06ff296e:  83 c4 10                 addl     $0x10, %esp
0x06ff2971:  83 c4 2c                 addl     $0x2c, %esp
0x06ff2974:  5b                       popl     %ebx
0x06ff2975:  5e                       popl     %esi
0x06ff2976:  c3                       retl     

----------------
IN: 
0x06ff6e8e:  ba 79 18 0f 00           movl     $0xf1879, %edx
0x06ff6e93:  31 c0                    xorl     %eax, %eax
0x06ff6e95:  e8 2e b6 ff ff           calll    0x6ff24c8

----------------
IN: 
0x06ff24c8:  57                       pushl    %edi
0x06ff24c9:  56                       pushl    %esi
0x06ff24ca:  53                       pushl    %ebx
0x06ff24cb:  83 ec 0c                 subl     $0xc, %esp
0x06ff24ce:  89 c3                    movl     %eax, %ebx
0x06ff24d0:  52                       pushl    %edx
0x06ff24d1:  68 38 0e 0f 00           pushl    $0xf0e38
0x06ff24d6:  6a 0a                    pushl    $0xa
0x06ff24d8:  8d 7c 24 0e              leal     0xe(%esp), %edi
0x06ff24dc:  57                       pushl    %edi
0x06ff24dd:  e8 7f fd ff ff           calll    0x6ff2261

----------------
IN: 
0x06ff24e2:  89 c6                    movl     %eax, %esi
0x06ff24e4:  83 c4 10                 addl     $0x10, %esp
0x06ff24e7:  85 db                    testl    %ebx, %ebx
0x06ff24e9:  75 11                    jne      0x6ff24fc

----------------
IN: 
0x06ff24eb:  8b 1d 10 fc ff 06        movl     0x6fffc10, %ebx
0x06ff24f1:  85 db                    testl    %ebx, %ebx
0x06ff24f3:  74 1b                    je       0x6ff2510

----------------
IN: 
0x06ff24f5:  8b 43 18                 movl     0x18(%ebx), %eax
0x06ff24f8:  85 c0                    testl    %eax, %eax
0x06ff24fa:  75 04                    jne      0x6ff2500

----------------
IN: 
0x06ff24fc:  8b 1b                    movl     (%ebx), %ebx
0x06ff24fe:  eb f1                    jmp      0x6ff24f1

----------------
IN: 
0x06ff24f1:  85 db                    testl    %ebx, %ebx
0x06ff24f3:  74 1b                    je       0x6ff2510

----------------
IN: 
0x06ff2500:  83 c0 05                 addl     $5, %eax
0x06ff2503:  89 f1                    movl     %esi, %ecx
0x06ff2505:  89 fa                    movl     %edi, %edx
0x06ff2507:  e8 c1 6b 0f f9           calll    0xe90cd

----------------
IN: 
0x06ff250c:  85 c0                    testl    %eax, %eax
0x06ff250e:  75 ec                    jne      0x6ff24fc

----------------
IN: 
0x06ff2510:  89 d8                    movl     %ebx, %eax
0x06ff2512:  83 c4 0c                 addl     $0xc, %esp
0x06ff2515:  5b                       popl     %ebx
0x06ff2516:  5e                       popl     %esi
0x06ff2517:  5f                       popl     %edi
0x06ff2518:  c3                       retl     

----------------
IN: 
0x06ff6e9a:  89 c3                    movl     %eax, %ebx
0x06ff6e9c:  85 c0                    testl    %eax, %eax
0x06ff6e9e:  0f 84 50 0c 00 00        je       0x6ff7af4

----------------
IN: 
0x06ff7af4:  81 c4 d0 00 00 00        addl     $0xd0, %esp
0x06ff7afa:  5b                       popl     %ebx
0x06ff7afb:  5e                       popl     %esi
0x06ff7afc:  5f                       popl     %edi
0x06ff7afd:  5d                       popl     %ebp
0x06ff7afe:  c3                       retl     

----------------
IN: 
0x06ff9212:  66 83 3d 98 60 0f 00 40  cmpw     $0x40, 0xf6098
0x06ff921a:  74 4d                    je       0x6ff9269

----------------
IN: 
0x06ff921c:  b0 34                    movb     $0x34, %al
0x06ff921e:  e6 43                    outb     %al, $0x43

----------------
IN: 
0x06ff9220:  31 c0                    xorl     %eax, %eax
0x06ff9222:  e6 40                    outb     %al, $0x40

----------------
IN: 
0x06ff9224:  e6 40                    outb     %al, $0x40

----------------
IN: 
0x06ff9226:  b2 8a                    movb     $0x8a, %dl
0x06ff9228:  88 d0                    movb     %dl, %al
0x06ff922a:  e6 70                    outb     %al, $0x70

----------------
IN: 
0x06ff922c:  b0 26                    movb     $0x26, %al
0x06ff922e:  e6 71                    outb     %al, $0x71

----------------
IN: 
0x06ff9230:  b0 8b                    movb     $0x8b, %al
0x06ff9232:  e6 70                    outb     %al, $0x70

----------------
IN: 
0x06ff9234:  e4 71                    inb      $0x71, %al

----------------
IN: 
0x06ff9236:  83 e0 01                 andl     $1, %eax
0x06ff9239:  83 c8 02                 orl      $2, %eax
0x06ff923c:  e6 71                    outb     %al, $0x71

----------------
IN: 
0x06ff923e:  b0 8c                    movb     $0x8c, %al
0x06ff9240:  e6 70                    outb     %al, $0x70

----------------
IN: 
0x06ff9242:  e4 71                    inb      $0x71, %al

----------------
IN: 
0x06ff9244:  b0 8d                    movb     $0x8d, %al
0x06ff9246:  e6 70                    outb     %al, $0x70

----------------
IN: 
0x06ff9248:  e4 71                    inb      $0x71, %al

----------------
IN: 
0x06ff924a:  88 d0                    movb     %dl, %al
0x06ff924c:  e6 70                    outb     %al, $0x70

----------------
IN: 
0x06ff924e:  e4 71                    inb      $0x71, %al

----------------
IN: 
0x06ff9250:  84 c0                    testb    %al, %al
0x06ff9252:  0f 89 3d 01 00 00        jns      0x6ff9395

----------------
IN: 
0x06ff9395:  b0 80                    movb     $0x80, %al
0x06ff9397:  e6 70                    outb     %al, $0x70

----------------
IN: 
0x06ff9399:  e4 71                    inb      $0x71, %al

----------------
IN: 
0x06ff939b:  88 c1                    movb     %al, %cl
0x06ff939d:  b0 82                    movb     $0x82, %al
0x06ff939f:  e6 70                    outb     %al, $0x70

----------------
IN: 
0x06ff93a1:  e4 71                    inb      $0x71, %al

----------------
IN: 
0x06ff93a3:  88 c3                    movb     %al, %bl
0x06ff93a5:  b0 84                    movb     $0x84, %al
0x06ff93a7:  e6 70                    outb     %al, $0x70

----------------
IN: 
0x06ff93a9:  e4 71                    inb      $0x71, %al

----------------
IN: 
0x06ff93ab:  88 c2                    movb     %al, %dl
0x06ff93ad:  c0 ea 04                 shrb     $4, %dl
0x06ff93b0:  0f b6 d2                 movzbl   %dl, %edx
0x06ff93b3:  6b d2 0a                 imull    $0xa, %edx, %edx
0x06ff93b6:  83 e0 0f                 andl     $0xf, %eax
0x06ff93b9:  01 d0                    addl     %edx, %eax
0x06ff93bb:  6b c0 3c                 imull    $0x3c, %eax, %eax
0x06ff93be:  88 da                    movb     %bl, %dl
0x06ff93c0:  c0 ea 04                 shrb     $4, %dl
0x06ff93c3:  0f b6 d2                 movzbl   %dl, %edx
0x06ff93c6:  6b d2 0a                 imull    $0xa, %edx, %edx
0x06ff93c9:  83 e3 0f                 andl     $0xf, %ebx
0x06ff93cc:  01 da                    addl     %ebx, %edx
0x06ff93ce:  01 d0                    addl     %edx, %eax
0x06ff93d0:  6b c0 3c                 imull    $0x3c, %eax, %eax
0x06ff93d3:  88 ca                    movb     %cl, %dl
0x06ff93d5:  c0 ea 04                 shrb     $4, %dl
0x06ff93d8:  0f b6 d2                 movzbl   %dl, %edx
0x06ff93db:  6b d2 0a                 imull    $0xa, %edx, %edx
0x06ff93de:  83 e1 0f                 andl     $0xf, %ecx
0x06ff93e1:  01 ca                    addl     %ecx, %edx
0x06ff93e3:  01 d0                    addl     %edx, %eax
0x06ff93e5:  69 c0 e8 03 00 00        imull    $0x3e8, %eax, %eax
0x06ff93eb:  ba 99 9e 36 00           movl     $0x369e99, %edx
0x06ff93f0:  f7 e2                    mull     %edx
0x06ff93f2:  05 ff ff 00 00           addl     $0xffff, %eax
0x06ff93f7:  83 d2 00                 adcl     $0, %edx
0x06ff93fa:  0f ac d0 10              shrdl    $0x10, %edx, %eax
0x06ff93fe:  c1 ea 10                 shrl     $0x10, %edx
0x06ff9401:  05 b7 0b 00 00           addl     $0xbb7, %eax
0x06ff9406:  b9 b8 0b 00 00           movl     $0xbb8, %ecx
0x06ff940b:  31 d2                    xorl     %edx, %edx
0x06ff940d:  f7 f1                    divl     %ecx
0x06ff940f:  a3 6c 04 00 00           movl     %eax, 0x46c
0x06ff9414:  b0 b2                    movb     $0xb2, %al
0x06ff9416:  e6 70                    outb     %al, $0x70

----------------
IN: 
0x06ff9418:  e4 71                    inb      $0x71, %al

----------------
IN: 
0x06ff941a:  a2 78 86 0e 00           movb     %al, 0xe8678
0x06ff941f:  ba a5 fe 0f 00           movl     $0xffea5, %edx
0x06ff9424:  0f b7 d2                 movzwl   %dx, %edx
0x06ff9427:  81 ca 00 00 00 f0        orl      $0xf0000000, %edx
0x06ff942d:  31 c0                    xorl     %eax, %eax
0x06ff942f:  e8 25 34 ff ff           calll    0x6fec859

----------------
IN: 
0x06fec887:  89 1c 85 00 00 00 00     movl     %ebx, (, %eax, 4)
0x06fec88e:  5b                       popl     %ebx
0x06fec88f:  5e                       popl     %esi
0x06fec890:  c3                       retl     

----------------
IN: 
0x06ff9434:  ba 22 d4 0f 00           movl     $0xfd422, %edx
0x06ff9439:  0f b7 d2                 movzwl   %dx, %edx
0x06ff943c:  81 ca 00 00 00 f0        orl      $0xf0000000, %edx
0x06ff9442:  b8 08 00 00 00           movl     $8, %eax
0x06ff9447:  e8 0d 34 ff ff           calll    0x6fec859

----------------
IN: 
0x06ff944c:  b8 54 50 4d 32           movl     $0x324d5054, %eax
0x06ff9451:  e8 20 3e 0f f9           calll    0xed276

----------------
IN: 
0x000ed2f7:  83 c0 04                 addl     $4, %eax
0x000ed2fa:  39 f0                    cmpl     %esi, %eax
0x000ed2fc:  73 1b                    jae      0xed319

----------------
IN: 
0x000ed319:  31 db                    xorl     %ebx, %ebx
0x000ed31b:  89 d8                    movl     %ebx, %eax
0x000ed31d:  5b                       popl     %ebx
0x000ed31e:  5e                       popl     %esi
0x000ed31f:  c3                       retl     

----------------
IN: 
0x06ff9456:  85 c0                    testl    %eax, %eax
0x06ff9458:  75 13                    jne      0x6ff946d

----------------
IN: 
0x06ff945a:  b8 54 43 50 41           movl     $0x41504354, %eax
0x06ff945f:  e8 12 3e 0f f9           calll    0xed276

----------------
IN: 
0x06ff9464:  85 c0                    testl    %eax, %eax
0x06ff9466:  75 26                    jne      0x6ff948e

----------------
IN: 
0x06ff9468:  e9 c0 03 00 00           jmp      0x6ff982d

----------------
IN: 
0x06ff982d:  81 c4 a8 00 00 00        addl     $0xa8, %esp
0x06ff9833:  5b                       popl     %ebx
0x06ff9834:  5e                       popl     %esi
0x06ff9835:  5f                       popl     %edi
0x06ff9836:  5d                       popl     %ebp
0x06ff9837:  c3                       retl     

----------------
IN: 
0x06ffb8e2:  e8 3e d6 0e f9           calll    0xe8f25

----------------
IN: 
0x000e8f25:  31 c0                    xorl     %eax, %eax
0x000e8f27:  80 3d c0 4d 0f 00 02     cmpb     $2, 0xf4dc0
0x000e8f2e:  75 0c                    jne      0xe8f3c

----------------
IN: 
0x000e8f3c:  c3                       retl     

----------------
IN: 
0x06ffb8e7:  85 c0                    testl    %eax, %eax
0x06ffb8e9:  74 05                    je       0x6ffb8f0

----------------
IN: 
0x06ffb8f0:  68 e5 36 0f 00           pushl    $0xf36e5
0x06ffb8f5:  e8 65 03 0f f9           calll    0xebc5f

----------------
IN: 
0x06ffb8fa:  ba 01 00 00 00           movl     $1, %edx
0x06ffb8ff:  31 c9                    xorl     %ecx, %ecx
0x06ffb901:  b8 fe 36 0f 00           movl     $0xf36fe, %eax
0x06ffb906:  e8 54 1a ff ff           calll    0x6fed35f

----------------
IN: 
0x06ffb90b:  a3 b0 4d 0f 00           movl     %eax, 0xf4db0
0x06ffb910:  ba 01 00 00 00           movl     $1, %edx
0x06ffb915:  31 c9                    xorl     %ecx, %ecx
0x06ffb917:  b8 16 37 0f 00           movl     $0xf3716, %eax
0x06ffb91c:  e8 3e 1a ff ff           calll    0x6fed35f

----------------
IN: 
0x06ffb921:  a3 ac 4d 0f 00           movl     %eax, 0xf4dac
0x06ffb926:  ba 02 00 00 00           movl     $2, %edx
0x06ffb92b:  31 c9                    xorl     %ecx, %ecx
0x06ffb92d:  b8 2d 37 0f 00           movl     $0xf372d, %eax
0x06ffb932:  e8 28 1a ff ff           calll    0x6fed35f

----------------
IN: 
0x06ffb937:  a3 34 ff ff 06           movl     %eax, 0x6ffff34
0x06ffb93c:  ba 01 00 00 00           movl     $1, %edx
0x06ffb941:  31 c9                    xorl     %ecx, %ecx
0x06ffb943:  b8 44 37 0f 00           movl     $0xf3744, %eax
0x06ffb948:  e8 12 1a ff ff           calll    0x6fed35f

----------------
IN: 
0x06ffb94d:  a3 a8 4d 0f 00           movl     %eax, 0xf4da8
0x06ffb952:  e8 4d d9 0e f9           calll    0xe92a4

----------------
IN: 
0x000e92a4:  a1 b4 4d 0f 00           movl     0xf4db4, %eax
0x000e92a9:  8b 40 0c                 movl     0xc(%eax), %eax
0x000e92ac:  83 e8 10                 subl     $0x10, %eax
0x000e92af:  25 00 f8 ff ff           andl     $0xfffff800, %eax
0x000e92b4:  c3                       retl     

----------------
IN: 
0x06ffb957:  8d 88 00 00 f4 ff        leal     -0xc0000(%eax), %ecx
0x06ffb95d:  31 d2                    xorl     %edx, %edx
0x06ffb95f:  b8 00 00 0c 00           movl     $0xc0000, %eax
0x06ffb964:  e8 f1 e6 0e f9           calll    0xea05a

----------------
IN: 
0x06ffb969:  a1 c0 fd ff 06           movl     0x6fffdc0, %eax
0x06ffb96e:  8d 58 fc                 leal     -4(%eax), %ebx
0x06ffb971:  5f                       popl     %edi
0x06ffb972:  83 fb fc                 cmpl     $-4, %ebx
0x06ffb975:  0f 84 e4 01 00 00        je       0x6ffbb5f

----------------
IN: 
0x06ffb97b:  89 d8                    movl     %ebx, %eax
0x06ffb97d:  e8 cb fc fe ff           calll    0x6feb64d

----------------
IN: 
0x06ffb982:  85 c0                    testl    %eax, %eax
0x06ffb984:  75 08                    jne      0x6ffb98e

----------------
IN: 
0x06ffb986:  8b 5b 04                 movl     4(%ebx), %ebx
0x06ffb989:  83 eb 04                 subl     $4, %ebx
0x06ffb98c:  eb e4                    jmp      0x6ffb972

----------------
IN: 
0x06ffb972:  83 fb fc                 cmpl     $-4, %ebx
0x06ffb975:  0f 84 e4 01 00 00        je       0x6ffbb5f

----------------
IN: 
0x06ffb98e:  ba 59 37 0f 00           movl     $0xf3759, %edx
0x06ffb993:  b8 23 0b 0f 00           movl     $0xf0b23, %eax
0x06ffb998:  e8 51 d7 0e f9           calll    0xe90ee

----------------
IN: 
0x06ffb99d:  85 c0                    testl    %eax, %eax
0x06ffb99f:  75 29                    jne      0x6ffb9ca

----------------
IN: 
0x06ffb9ca:  ba 6a 37 0f 00           movl     $0xf376a, %edx
0x06ffb9cf:  b8 23 0b 0f 00           movl     $0xf0b23, %eax
0x06ffb9d4:  e8 15 d7 0e f9           calll    0xe90ee

----------------
IN: 
0x06ffb9d9:  85 c0                    testl    %eax, %eax
0x06ffb9db:  75 17                    jne      0x6ffb9f4

----------------
IN: 
0x06ffb9f4:  ba 75 37 0f 00           movl     $0xf3775, %edx
0x06ffb9f9:  b8 23 0b 0f 00           movl     $0xf0b23, %eax
0x06ffb9fe:  e8 eb d6 0e f9           calll    0xe90ee

----------------
IN: 
0x06ffba03:  85 c0                    testl    %eax, %eax
0x06ffba05:  75 29                    jne      0x6ffba30

----------------
IN: 
0x06ffba30:  ba 82 37 0f 00           movl     $0xf3782, %edx
0x06ffba35:  b8 23 0b 0f 00           movl     $0xf0b23, %eax
0x06ffba3a:  e8 af d6 0e f9           calll    0xe90ee

----------------
IN: 
0x06ffba3f:  85 c0                    testl    %eax, %eax
0x06ffba41:  75 29                    jne      0x6ffba6c

----------------
IN: 
0x06ffba6c:  8b 43 10                 movl     0x10(%ebx), %eax
0x06ffba6f:  66 3d 06 11              cmpw     $0x1106, %ax
0x06ffba73:  0f 85 b8 00 00 00        jne      0x6ffbb31

----------------
IN: 
0x06ffbb31:  66 3d 86 80              cmpw     $0x8086, %ax
0x06ffbb35:  75 18                    jne      0x6ffbb4f

----------------
IN: 
0x06ffbb4f:  31 c9                    xorl     %ecx, %ecx
0x06ffbb51:  ba 01 00 00 00           movl     $1, %edx
0x06ffbb56:  89 d8                    movl     %ebx, %eax
0x06ffbb58:  e8 04 95 ff ff           calll    0x6ff5061

----------------
IN: 
0x06ff5061:  55                       pushl    %ebp
0x06ff5062:  57                       pushl    %edi
0x06ff5063:  56                       pushl    %esi
0x06ff5064:  53                       pushl    %ebx
0x06ff5065:  83 ec 2c                 subl     $0x2c, %esp
0x06ff5068:  89 c3                    movl     %eax, %ebx
0x06ff506a:  89 54 24 04              movl     %edx, 4(%esp)
0x06ff506e:  89 cf                    movl     %ecx, %edi
0x06ff5070:  0f b7 40 12              movzwl   0x12(%eax), %eax
0x06ff5074:  50                       pushl    %eax
0x06ff5075:  0f b7 43 10              movzwl   0x10(%ebx), %eax
0x06ff5079:  50                       pushl    %eax
0x06ff507a:  68 27 15 0f 00           pushl    $0xf1527
0x06ff507f:  6a 11                    pushl    $0x11
0x06ff5081:  8d 74 24 2b              leal     0x2b(%esp), %esi
0x06ff5085:  56                       pushl    %esi
0x06ff5086:  e8 d6 d1 ff ff           calll    0x6ff2261

----------------
IN: 
0x06ff508b:  89 f0                    movl     %esi, %eax
0x06ff508d:  e8 9c 82 ff ff           calll    0x6fed32e

----------------
IN: 
0x06ff5092:  89 44 24 14              movl     %eax, 0x14(%esp)
0x06ff5096:  83 c4 14                 addl     $0x14, %esp
0x06ff5099:  85 c0                    testl    %eax, %eax
0x06ff509b:  74 07                    je       0x6ff50a4

----------------
IN: 
0x06ff50a4:  83 3d 34 ff ff 06 01     cmpl     $1, 0x6ffff34
0x06ff50ab:  7f 11                    jg       0x6ff50be

----------------
IN: 
0x06ff50be:  89 d8                    movl     %ebx, %eax
0x06ff50c0:  e8 b8 9e ff ff           calll    0x6feef7d

----------------
IN: 
0x06feef7d:  55                       pushl    %ebp
0x06feef7e:  57                       pushl    %edi
0x06feef7f:  56                       pushl    %esi
0x06feef80:  53                       pushl    %ebx
0x06feef81:  51                       pushl    %ecx
0x06feef82:  f6 40 18 7f              testb    $0x7f, 0x18(%eax)
0x06feef86:  0f 85 25 01 00 00        jne      0x6fef0b1

----------------
IN: 
0x06feef8c:  89 c5                    movl     %eax, %ebp
0x06feef8e:  0f b7 00                 movzwl   (%eax), %eax
0x06feef91:  89 04 24                 movl     %eax, (%esp)
0x06feef94:  ba 30 00 00 00           movl     $0x30, %edx
0x06feef99:  e8 37 a2 0f f9           calll    0xe91d5

----------------
IN: 
0x06feef9e:  89 c6                    movl     %eax, %esi
0x06feefa0:  b9 fe ff ff ff           movl     $0xfffffffe, %ecx
0x06feefa5:  ba 30 00 00 00           movl     $0x30, %edx
0x06feefaa:  8b 04 24                 movl     (%esp), %eax
0x06feefad:  e8 5c a1 0f f9           calll    0xe910e

----------------
IN: 
0x06feefb2:  ba 30 00 00 00           movl     $0x30, %edx
0x06feefb7:  8b 04 24                 movl     (%esp), %eax
0x06feefba:  e8 16 a2 0f f9           calll    0xe91d5

----------------
IN: 
0x06feefbf:  83 e6 fe                 andl     $0xfffffffe, %esi
0x06feefc2:  8d 50 ff                 leal     -1(%eax), %edx
0x06feefc5:  83 fa fd                 cmpl     $-3, %edx
0x06feefc8:  0f 87 d4 00 00 00        ja       0x6fef0a2

----------------
IN: 
0x06feefce:  39 f0                    cmpl     %esi, %eax
0x06feefd0:  0f 84 cc 00 00 00        je       0x6fef0a2

----------------
IN: 
0x06feefd6:  8d 86 00 00 40 00        leal     0x400000(%esi), %eax
0x06feefdc:  3d ff ff 3f 01           cmpl     $0x13fffff, %eax
0x06feefe1:  0f 86 bb 00 00 00        jbe      0x6fef0a2

----------------
IN: 
0x06feefe7:  89 f1                    movl     %esi, %ecx
0x06feefe9:  83 c9 01                 orl      $1, %ecx
0x06feefec:  ba 30 00 00 00           movl     $0x30, %edx
0x06feeff1:  8b 04 24                 movl     (%esp), %eax
0x06feeff4:  e8 15 a1 0f f9           calll    0xe910e

----------------
IN: 
0x06feeff9:  89 f7                    movl     %esi, %edi
0x06feeffb:  66 81 3f 55 aa           cmpw     $0xaa55, (%edi)

----------------
IN: 
0x06fef000:  0f 85 9c 00 00 00        jne      0x6fef0a2

----------------
IN: 
0x06fef006:  0f b7 5f 18              movzwl   0x18(%edi), %ebx
0x06fef00a:  89 d8                    movl     %ebx, %eax
0x06fef00c:  01 fb                    addl     %edi, %ebx
0x06fef00e:  81 3b 50 43 49 52        cmpl     $0x52494350, (%ebx)
0x06fef014:  0f 85 88 00 00 00        jne      0x6fef0a2

----------------
IN: 
0x06fef01a:  a8 03                    testb    $3, %al
0x06fef01c:  74 17                    je       0x6fef035

----------------
IN: 
0x06fef035:  85 db                    testl    %ebx, %ebx
0x06fef037:  74 69                    je       0x6fef0a2

----------------
IN: 
0x06fef039:  8b 45 10                 movl     0x10(%ebp), %eax
0x06fef03c:  66 39 43 04              cmpw     %ax, 4(%ebx)
0x06fef040:  75 10                    jne      0x6fef052

----------------
IN: 
0x06fef042:  66 8b 45 12              movw     0x12(%ebp), %ax
0x06fef046:  66 39 43 06              cmpw     %ax, 6(%ebx)
0x06fef04a:  75 06                    jne      0x6fef052

----------------
IN: 
0x06fef04c:  80 7b 14 00              cmpb     $0, 0x14(%ebx)
0x06fef050:  74 11                    je       0x6fef063

----------------
IN: 
0x06fef063:  0f b6 6f 02              movzbl   2(%edi), %ebp
0x06fef067:  c1 e5 09                 shll     $9, %ebp
0x06fef06a:  89 e8                    movl     %ebp, %eax
0x06fef06c:  e8 1c c5 ff ff           calll    0x6feb58d

----------------
IN: 
0x06feb58d:  53                       pushl    %ebx
0x06feb58e:  8b 15 40 fe ff 06        movl     0x6fffe40, %edx
0x06feb594:  8d 8c 02 ff 07 00 00     leal     0x7ff(%edx, %eax), %ecx
0x06feb59b:  81 e1 00 f8 ff ff        andl     $0xfffff800, %ecx
0x06feb5a1:  e8 fe dc 0f f9           calll    0xe92a4

----------------
IN: 
0x06feb5a6:  39 c8                    cmpl     %ecx, %eax
0x06feb5a8:  72 1b                    jb       0x6feb5c5

----------------
IN: 
0x06feb5aa:  8b 1d b4 4d 0f 00        movl     0xf4db4, %ebx
0x06feb5b0:  b8 00 90 0d 00           movl     $0xd9000, %eax
0x06feb5b5:  39 c8                    cmpl     %ecx, %eax
0x06feb5b7:  73 02                    jae      0x6feb5bb

----------------
IN: 
0x06feb5bb:  83 c0 10                 addl     $0x10, %eax
0x06feb5be:  89 43 08                 movl     %eax, 8(%ebx)
0x06feb5c1:  89 d0                    movl     %edx, %eax
0x06feb5c3:  eb 02                    jmp      0x6feb5c7

----------------
IN: 
0x06feb5c7:  5b                       popl     %ebx
0x06feb5c8:  c3                       retl     

----------------
IN: 
0x06fef071:  89 c3                    movl     %eax, %ebx
0x06fef073:  85 c0                    testl    %eax, %eax
0x06fef075:  75 11                    jne      0x6fef088

----------------
IN: 
0x06fef088:  89 e9                    movl     %ebp, %ecx
0x06fef08a:  89 fa                    movl     %edi, %edx
0x06fef08c:  e8 88 e3 ff ff           calll    0x6fed419

----------------
IN: 
0x06fed419:  55                       pushl    %ebp
0x06fed41a:  57                       pushl    %edi
0x06fed41b:  56                       pushl    %esi
0x06fed41c:  53                       pushl    %ebx
0x06fed41d:  89 c3                    movl     %eax, %ebx
0x06fed41f:  89 d6                    movl     %edx, %esi
0x06fed421:  89 cd                    movl     %ecx, %ebp
0x06fed423:  e8 46 e4 0f f9           calll    0xeb86e

Servicing hardware INT=0x08
----------------
IN: 
0x000ffea5:  66 68 fc f0 00 00        pushl    $0xf0fc
0x000ffeab:  e9 33 d4                 jmp      0xfd2e1

----------------
IN: 
0x000fd2e1:  fa                       cli      
0x000fd2e2:  fc                       cld      
0x000fd2e3:  1e                       pushw    %ds
0x000fd2e4:  66 50                    pushl    %eax
0x000fd2e6:  66 b8 00 d9 00 00        movl     $0xd900, %eax
0x000fd2ec:  8e d8                    movw     %ax, %ds
0x000fd2ee:  66 a1 d0 f6              movl     0xf6d0, %eax
0x000fd2f2:  66 83 e8 28              subl     $0x28, %eax
0x000fd2f6:  67 66 8f 40 1c           popl     0x1c(%eax)
0x000fd2fb:  67 8f 00                 popw     (%eax)
0x000fd2fe:  67 66 89 78 04           movl     %edi, 4(%eax)
0x000fd303:  67 66 89 70 08           movl     %esi, 8(%eax)
0x000fd308:  67 66 89 68 0c           movl     %ebp, 0xc(%eax)
0x000fd30d:  67 66 89 58 10           movl     %ebx, 0x10(%eax)
0x000fd312:  67 66 89 50 14           movl     %edx, 0x14(%eax)
0x000fd317:  67 66 89 48 18           movl     %ecx, 0x18(%eax)
0x000fd31c:  67 8c 40 02              movw     %es, 2(%eax)
0x000fd320:  66 59                    popl     %ecx
0x000fd322:  67 66 89 60 20           movl     %esp, 0x20(%eax)
0x000fd327:  67 8c 50 24              movw     %ss, 0x24(%eax)
0x000fd32b:  8c da                    movw     %ds, %dx
0x000fd32d:  8e d2                    movw     %dx, %ss

----------------
IN: 
0x000fd32f:  66 89 c4                 movl     %eax, %esp

----------------
IN: 
0x000fd332:  66 ff d1                 calll    *%ecx

----------------
IN: 
0x000ff0fc:  66 55                    pushl    %ebp
0x000ff0fe:  66 57                    pushl    %edi
0x000ff100:  66 56                    pushl    %esi
0x000ff102:  66 53                    pushl    %ebx
0x000ff104:  66 83 ec 38              subl     $0x38, %esp
0x000ff108:  66 b8 40 00 00 00        movl     $0x40, %eax
0x000ff10e:  8e c0                    movw     %ax, %es
0x000ff110:  26 66 a1 6c 00           movl     %es:0x6c, %eax
0x000ff115:  66 40                    incl     %eax
0x000ff117:  66 3d af 00 18 00        cmpl     $0x1800af, %eax
0x000ff11d:  76 0d                    jbe      0xff12c

----------------
IN: 
0x000ff12c:  66 ba 40 00 00 00        movl     $0x40, %edx
0x000ff132:  8e c2                    movw     %dx, %es
0x000ff134:  26 66 a3 6c 00           movl     %eax, %es:0x6c
0x000ff139:  8e c2                    movw     %dx, %es
0x000ff13b:  26 a0 40 00              movb     %es:0x40, %al
0x000ff13f:  84 c0                    testb    %al, %al
0x000ff141:  74 19                    je       0xff15c

----------------
IN: 
0x000ff15c:  2e 66 a1 90 60           movl     %cs:0x6090, %eax
0x000ff161:  67 66 89 04 24           movl     %eax, (%esp)
0x000ff166:  66 85 c0                 testl    %eax, %eax
0x000ff169:  0f 84 79 01              je       0xff2e6

----------------
IN: 
0x000ff2e6:  2e 66 8b 36 8c 60        movl     %cs:0x608c, %esi
0x000ff2ec:  66 85 f6                 testl    %esi, %esi
0x000ff2ef:  74 6e                    je       0xff35f

----------------
IN: 
0x000ff35f:  66 b8 00 d9 00 00        movl     $0xd900, %eax
0x000ff365:  66 89 c7                 movl     %eax, %edi
0x000ff368:  8e c0                    movw     %ax, %es
0x000ff36a:  26 8b 2e 94 f6           movw     %es:0xf694, %bp
0x000ff36f:  85 ed                    testw    %bp, %bp
0x000ff371:  0f 84 3f 01              je       0xff4b4

----------------
IN: 
0x000ff4b4:  66 b9 26 00 00 00        movl     $0x26, %ecx
0x000ff4ba:  66 31 d2                 xorl     %edx, %edx
0x000ff4bd:  67 66 8d 44 24 12        leal     0x12(%esp), %eax
0x000ff4c3:  66 e8 be 7b ff ff        calll    0xf7087

----------------
IN: 
0x000f7087:  66 85 c9                 testl    %ecx, %ecx
0x000f708a:  74 08                    je       0xf7094

----------------
IN: 
0x000f708c:  66 49                    decl     %ecx
0x000f708e:  67 88 14 08              movb     %dl, (%eax, %ecx)
0x000f7092:  eb f3                    jmp      0xf7087

----------------
IN: 
0x000f7094:  66 c3                    retl     

----------------
IN: 
0x000ff4c9:  67 c7 44 24 36 00 02     movw     $0x200, 0x36(%esp)
0x000ff4d0:  66 ba 80 e9 00 00        movl     $0xe980, %edx
0x000ff4d6:  66 0f b7 d2              movzwl   %dx, %edx
0x000ff4da:  66 e8 9c 8d ff ff        calll    0xf827c

----------------
IN: 
0x000f827c:  67 89 50 20              movw     %dx, 0x20(%eax)
0x000f8280:  8c ca                    movw     %cs, %dx
0x000f8282:  67 89 50 22              movw     %dx, 0x22(%eax)
0x000f8286:  8c d2                    movw     %ss, %dx
0x000f8288:  66 0f b7 d2              movzwl   %dx, %edx
0x000f828c:  e9 a2 ff                 jmp      0xf8231

----------------
IN: 
0x000f8231:  66 57                    pushl    %edi
0x000f8233:  66 56                    pushl    %esi
0x000f8235:  66 53                    pushl    %ebx
0x000f8237:  66 56                    pushl    %esi
0x000f8239:  66 89 c3                 movl     %eax, %ebx
0x000f823c:  67 66 89 14 24           movl     %edx, (%esp)
0x000f8241:  66 e8 e6 e9 ff ff        calll    0xf6c2d

----------------
IN: 
0x000f6c3e:  66 89 e0                 movl     %esp, %eax
0x000f6c41:  66 31 d2                 xorl     %edx, %edx
0x000f6c44:  66 3d d8 f6 00 00        cmpl     $0xf6d8, %eax
0x000f6c4a:  0f 97 c2                 seta     %dl
0x000f6c4d:  66 89 d0                 movl     %edx, %eax
0x000f6c50:  66 c3                    retl     

----------------
IN: 
0x000f8247:  66 85 c0                 testl    %eax, %eax
0x000f824a:  67 66 8b 14 24           movl     (%esp), %edx
0x000f824f:  74 18                    je       0xf8269

----------------
IN: 
0x000f8251:  66 0f b7 d2              movzwl   %dx, %edx
0x000f8255:  66 b9 31 82 00 00        movl     $0x8231, %ecx
0x000f825b:  66 89 d8                 movl     %ebx, %eax
0x000f825e:  66 5b                    popl     %ebx
0x000f8260:  66 5b                    popl     %ebx
0x000f8262:  66 5e                    popl     %esi
0x000f8264:  66 5f                    popl     %edi
0x000f8266:  e9 4d fa                 jmp      0xf7cb6

----------------
IN: 
0x000f7cb6:  66 57                    pushl    %edi
0x000f7cb8:  66 56                    pushl    %esi
0x000f7cba:  66 53                    pushl    %ebx
0x000f7cbc:  8c d3                    movw     %ss, %bx
0x000f7cbe:  66 0f b7 db              movzwl   %bx, %ebx
0x000f7cc2:  66 81 fb 00 d9 00 00     cmpl     $0xd900, %ebx
0x000f7cc9:  75 3e                    jne      0xf7d09

----------------
IN: 
0x000f7ccb:  66 89 e3                 movl     %esp, %ebx
0x000f7cce:  66 81 fb d8 f6 00 00     cmpl     $0xf6d8, %ebx
0x000f7cd5:  76 32                    jbe      0xf7d09

----------------
IN: 
0x000f7cd7:  66 8b 36 d0 f6           movl     0xf6d0, %esi
0x000f7cdc:  8c d3                    movw     %ss, %bx
0x000f7cde:  66 89 26 d0 f6           movl     %esp, 0xf6d0
0x000f7ce3:  67 66 8b 7e fc           movl     -4(%esi), %edi
0x000f7ce8:  8e d7                    movw     %di, %ss

----------------
IN: 
0x000f7cea:  67 8b 66 f8              movw     -8(%esi), %sp

----------------
IN: 
0x000f7cee:  8e df                    movw     %di, %ds
0x000f7cf0:  66 ff d1                 calll    *%ecx

----------------
IN: 
0x000f8269:  66 89 d8                 movl     %ebx, %eax
0x000f826c:  66 e8 5b 4d 00 00        calll    0xfcfcd

----------------
IN: 
0x000fcfcd:  66 55                    pushl    %ebp
0x000fcfcf:  66 50                    pushl    %eax
0x000fcfd1:  66 52                    pushl    %edx
0x000fcfd3:  8e da                    movw     %dx, %ds
0x000fcfd5:  0e                       pushw    %cs
0x000fcfd6:  68 0f d0                 pushw    $0xd00f
0x000fcfd9:  67 ff 70 24              pushw    0x24(%eax)
0x000fcfdd:  67 66 ff 70 20           pushl    0x20(%eax)
0x000fcfe2:  67 66 8b 78 04           movl     4(%eax), %edi
0x000fcfe7:  67 66 8b 70 08           movl     8(%eax), %esi
0x000fcfec:  67 66 8b 68 0c           movl     0xc(%eax), %ebp
0x000fcff1:  67 66 8b 58 10           movl     0x10(%eax), %ebx
0x000fcff6:  67 66 8b 50 14           movl     0x14(%eax), %edx
0x000fcffb:  67 66 8b 48 18           movl     0x18(%eax), %ecx

----------------
IN: 
0x000fd000:  67 8e 40 02              movw     2(%eax), %es
0x000fd004:  67 66 ff 70 1c           pushl    0x1c(%eax)
0x000fd009:  67 8e 18                 movw     (%eax), %ds
0x000fd00c:  66 58                    popl     %eax
0x000fd00e:  cf                       iretw    

----------------
IN: 
0x000fe980:  cd 1c                    int      $0x1c

----------------
IN: 
0x000fff53:  cf                       iretw    

----------------
IN: 
0x000fe982:  cb                       lretw    

----------------
IN: 
0x000fd00f:  9c                       pushfw   
0x000fd010:  fa                       cli      
0x000fd011:  fc                       cld      
0x000fd012:  1e                       pushw    %ds
0x000fd013:  66 50                    pushl    %eax
0x000fd015:  67 8e 5c 24 08           movw     8(%esp), %ds
0x000fd01a:  67 66 8b 44 24 0c        movl     0xc(%esp), %eax
0x000fd020:  67 66 8f 40 1c           popl     0x1c(%eax)
0x000fd025:  67 8f 00                 popw     (%eax)
0x000fd028:  67 66 89 78 04           movl     %edi, 4(%eax)
0x000fd02d:  67 66 89 70 08           movl     %esi, 8(%eax)
0x000fd032:  67 66 89 68 0c           movl     %ebp, 0xc(%eax)
0x000fd037:  67 66 89 58 10           movl     %ebx, 0x10(%eax)
0x000fd03c:  67 66 89 50 14           movl     %edx, 0x14(%eax)
0x000fd041:  67 66 89 48 18           movl     %ecx, 0x18(%eax)
0x000fd046:  67 8c 40 02              movw     %es, 2(%eax)
0x000fd04a:  67 8f 40 24              popw     0x24(%eax)
0x000fd04e:  8c d1                    movw     %ss, %cx
0x000fd050:  8e d9                    movw     %cx, %ds
0x000fd052:  66 5a                    popl     %edx
0x000fd054:  66 58                    popl     %eax
0x000fd056:  66 5d                    popl     %ebp
0x000fd058:  66 c3                    retl     

----------------
IN: 
0x000f8272:  66 58                    popl     %eax
0x000f8274:  66 5b                    popl     %ebx
0x000f8276:  66 5e                    popl     %esi
0x000f8278:  66 5f                    popl     %edi
0x000f827a:  66 c3                    retl     

----------------
IN: 
0x000f7cf3:  8e db                    movw     %bx, %ds
0x000f7cf5:  8e d3                    movw     %bx, %ss

----------------
IN: 
0x000f7cf7:  66 8b 26 d0 f6           movl     0xf6d0, %esp

----------------
IN: 
0x000f7cfc:  66 89 36 d0 f6           movl     %esi, 0xf6d0
0x000f7d01:  66 5b                    popl     %ebx
0x000f7d03:  66 5e                    popl     %esi
0x000f7d05:  66 5f                    popl     %edi
0x000f7d07:  66 c3                    retl     

----------------
IN: 
0x000ff4e0:  b0 20                    movb     $0x20, %al
0x000ff4e2:  e6 20                    outb     %al, $0x20

----------------
IN: 
0x000ff4e4:  66 83 c4 38              addl     $0x38, %esp
0x000ff4e8:  66 5b                    popl     %ebx
0x000ff4ea:  66 5e                    popl     %esi
0x000ff4ec:  66 5f                    popl     %edi
0x000ff4ee:  66 5d                    popl     %ebp
0x000ff4f0:  66 c3                    retl     

----------------
IN: 
0x000fd335:  66 89 e0                 movl     %esp, %eax
0x000fd338:  67 8e 50 24              movw     0x24(%eax), %ss

----------------
IN: 
0x000fd33c:  67 66 8b 60 20           movl     0x20(%eax), %esp

----------------
IN: 
0x000fd341:  67 66 8b 78 04           movl     4(%eax), %edi
0x000fd346:  67 66 8b 70 08           movl     8(%eax), %esi
0x000fd34b:  67 66 8b 68 0c           movl     0xc(%eax), %ebp
0x000fd350:  67 66 8b 58 10           movl     0x10(%eax), %ebx
0x000fd355:  67 66 8b 50 14           movl     0x14(%eax), %edx
0x000fd35a:  67 66 8b 48 18           movl     0x18(%eax), %ecx
0x000fd35f:  67 8e 40 02              movw     2(%eax), %es
0x000fd363:  67 66 ff 70 1c           pushl    0x1c(%eax)
0x000fd368:  67 8e 18                 movw     (%eax), %ds
0x000fd36b:  66 58                    popl     %eax
0x000fd36d:  cf                       iretw    

----------------
IN: 
0x06fed428:  83 fd 03                 cmpl     $3, %ebp
0x06fed42b:  76 21                    jbe      0x6fed44e

----------------
IN: 
0x06fed42d:  89 e8                    movl     %ebp, %eax
0x06fed42f:  81 fd 00 08 00 00        cmpl     $0x800, %ebp
0x06fed435:  76 05                    jbe      0x6fed43c

----------------
IN: 
0x06fed437:  b8 00 08 00 00           movl     $0x800, %eax
0x06fed43c:  89 c1                    movl     %eax, %ecx
0x06fed43e:  c1 e9 02                 shrl     $2, %ecx
0x06fed441:  83 e0 fc                 andl     $0xfffffffc, %eax
0x06fed444:  29 c5                    subl     %eax, %ebp
0x06fed446:  89 df                    movl     %ebx, %edi
0x06fed448:  f3 a5                    rep movsl (%esi), %es:(%edi)

----------------
IN: 
0x06fed448:  f3 a5                    rep movsl (%esi), %es:(%edi)

----------------
IN: 
0x06fed44a:  89 fb                    movl     %edi, %ebx
0x06fed44c:  eb d5                    jmp      0x6fed423

----------------
IN: 
0x06fed423:  e8 46 e4 0f f9           calll    0xeb86e

----------------
IN: 
0x06fed43c:  89 c1                    movl     %eax, %ecx
0x06fed43e:  c1 e9 02                 shrl     $2, %ecx
0x06fed441:  83 e0 fc                 andl     $0xfffffffc, %eax
0x06fed444:  29 c5                    subl     %eax, %ebp
0x06fed446:  89 df                    movl     %ebx, %edi
0x06fed448:  f3 a5                    rep movsl (%esi), %es:(%edi)

----------------
IN: 
0x06fed44e:  85 ed                    testl    %ebp, %ebp
0x06fed450:  74 06                    je       0x6fed458

----------------
IN: 
0x06fed458:  5b                       popl     %ebx
0x06fed459:  5e                       popl     %esi
0x06fed45a:  5f                       popl     %edi
0x06fed45b:  5d                       popl     %ebp
0x06fed45c:  c3                       retl     

----------------
IN: 
0x06fef091:  89 f1                    movl     %esi, %ecx
0x06fef093:  ba 30 00 00 00           movl     $0x30, %edx
0x06fef098:  8b 04 24                 movl     (%esp), %eax
0x06fef09b:  e8 6e a0 0f f9           calll    0xe910e

----------------
IN: 
0x06fef0a0:  eb 11                    jmp      0x6fef0b3

----------------
IN: 
0x06fef0b3:  89 d8                    movl     %ebx, %eax
0x06fef0b5:  5a                       popl     %edx
0x06fef0b6:  5b                       popl     %ebx
0x06fef0b7:  5e                       popl     %esi
0x06fef0b8:  5f                       popl     %edi
0x06fef0b9:  5d                       popl     %ebp
0x06fef0ba:  c3                       retl     

----------------
IN: 
0x06ff50c5:  85 c0                    testl    %eax, %eax
0x06ff50c7:  0f 84 b8 00 00 00        je       0x6ff5185

----------------
IN: 
0x06ff50cd:  8b 0d 64 00 00 00        movl     0x64, %ecx
0x06ff50d3:  89 4c 24 0c              movl     %ecx, 0xc(%esp)
0x06ff50d7:  bd f2 e6 0f 00           movl     $0xfe6f2, %ebp
0x06ff50dc:  66 89 6c 24 0a           movw     %bp, 0xa(%esp)
0x06ff50e1:  0f b7 d5                 movzwl   %bp, %edx
0x06ff50e4:  81 ca 00 00 00 f0        orl      $0xf0000000, %edx
0x06ff50ea:  89 54 24 10              movl     %edx, 0x10(%esp)
0x06ff50ee:  0f b7 70 1a              movzwl   0x1a(%eax), %esi
0x06ff50f2:  01 c6                    addl     %eax, %esi
0x06ff50f4:  81 3e 24 50 6e 50        cmpl     $0x506e5024, (%esi)
0x06ff50fa:  74 02                    je       0x6ff50fe

----------------
IN: 
0x06ff50fc:  31 f6                    xorl     %esi, %esi
0x06ff50fe:  85 ff                    testl    %edi, %edi
0x06ff5100:  74 14                    je       0x6ff5116

----------------
IN: 
0x06ff5116:  0f b7 13                 movzwl   (%ebx), %edx
0x06ff5119:  8b 4c 24 04              movl     4(%esp), %ecx
0x06ff511d:  89 44 24 14              movl     %eax, 0x14(%esp)
0x06ff5121:  e8 ea fd ff ff           calll    0x6ff4f10

----------------
IN: 
0x06ff4f10:  55                       pushl    %ebp
0x06ff4f11:  57                       pushl    %edi
0x06ff4f12:  56                       pushl    %esi
0x06ff4f13:  53                       pushl    %ebx
0x06ff4f14:  83 ec 24                 subl     $0x24, %esp
0x06ff4f17:  89 c6                    movl     %eax, %esi
0x06ff4f19:  89 14 24                 movl     %edx, (%esp)
0x06ff4f1c:  89 cd                    movl     %ecx, %ebp
0x06ff4f1e:  e8 9a 82 0f f9           calll    0xed1bd

----------------
IN: 
0x000ed1bd:  66 81 38 55 aa           cmpw     $0xaa55, (%eax)
0x000ed1c2:  75 42                    jne      0xed206

----------------
IN: 
0x000ed1c4:  56                       pushl    %esi
0x000ed1c5:  53                       pushl    %ebx
0x000ed1c6:  89 c6                    movl     %eax, %esi
0x000ed1c8:  0f b6 58 02              movzbl   2(%eax), %ebx
0x000ed1cc:  31 d2                    xorl     %edx, %edx
0x000ed1ce:  84 db                    testb    %bl, %bl
0x000ed1d0:  74 37                    je       0xed209

----------------
IN: 
0x000ed1d2:  c1 e3 09                 shll     $9, %ebx
0x000ed1d5:  89 da                    movl     %ebx, %edx
0x000ed1d7:  e8 a8 cd ff ff           calll    0xe9f84

----------------
IN: 
0x000ed1dc:  ba 01 00 00 00           movl     $1, %edx
0x000ed1e1:  84 c0                    testb    %al, %al
0x000ed1e3:  74 24                    je       0xed209

----------------
IN: 
0x000ed209:  89 d0                    movl     %edx, %eax
0x000ed20b:  5b                       popl     %ebx
0x000ed20c:  5e                       popl     %esi
0x000ed20d:  c3                       retl     

----------------
IN: 
0x06ff4f23:  85 c0                    testl    %eax, %eax
0x06ff4f25:  0f 84 e4 00 00 00        je       0x6ff500f

----------------
IN: 
0x06ff4f2b:  0f b6 7e 02              movzbl   2(%esi), %edi
0x06ff4f2f:  c1 e7 09                 shll     $9, %edi
0x06ff4f32:  89 f8                    movl     %edi, %eax
0x06ff4f34:  e8 54 66 ff ff           calll    0x6feb58d

----------------
IN: 
0x06ff4f39:  89 c3                    movl     %eax, %ebx
0x06ff4f3b:  85 c0                    testl    %eax, %eax
0x06ff4f3d:  75 0f                    jne      0x6ff4f4e

----------------
IN: 
0x06ff4f4e:  39 c6                    cmpl     %eax, %esi
0x06ff4f50:  74 09                    je       0x6ff4f5b

----------------
IN: 
0x06ff4f5b:  80 3d 41 86 0e 00 00     cmpb     $0, 0xe8641
0x06ff4f62:  74 4c                    je       0x6ff4fb0

----------------
IN: 
0x06ff4fb0:  85 ed                    testl    %ebp, %ebp
0x06ff4fb2:  75 0d                    jne      0x6ff4fc1

----------------
IN: 
0x06ff4fc1:  0f b7 0c 24              movzwl   (%esp), %ecx
0x06ff4fc5:  ba 03 00 00 00           movl     $3, %edx
0x06ff4fca:  89 d8                    movl     %ebx, %eax
0x06ff4fcc:  e8 28 8d 0f f9           calll    0xedcf9

----------------
IN: 
0x000edcf9:  57                       pushl    %edi
0x000edcfa:  56                       pushl    %esi
0x000edcfb:  53                       pushl    %ebx
0x000edcfc:  83 ec 28                 subl     $0x28, %esp
0x000edcff:  89 d6                    movl     %edx, %esi
0x000edd01:  89 cf                    movl     %ecx, %edi
0x000edd03:  c1 e8 04                 shrl     $4, %eax
0x000edd06:  89 c3                    movl     %eax, %ebx
0x000edd08:  0f b7 c2                 movzwl   %dx, %eax
0x000edd0b:  50                       pushl    %eax
0x000edd0c:  0f b7 c3                 movzwl   %bx, %eax
0x000edd0f:  50                       pushl    %eax
0x000edd10:  68 06 15 0f 00           pushl    $0xf1506
0x000edd15:  e8 45 df ff ff           calll    0xebc5f

----------------
IN: 
0x000edd1a:  b9 26 00 00 00           movl     $0x26, %ecx
0x000edd1f:  31 d2                    xorl     %edx, %edx
0x000edd21:  8d 44 24 0e              leal     0xe(%esp), %eax
0x000edd25:  e8 30 c3 ff ff           calll    0xea05a

----------------
IN: 
0x000edd2a:  66 c7 44 24 32 00 02     movw     $0x200, 0x32(%esp)
0x000edd31:  66 89 7c 24 2a           movw     %di, 0x2a(%esp)
0x000edd36:  66 c7 44 24 1e ff ff     movw     $0xffff, 0x1e(%esp)
0x000edd3d:  66 c7 44 24 22 ff ff     movw     $0xffff, 0x22(%esp)
0x000edd44:  66 c7 44 24 10 00 f0     movw     $0xf000, 0x10(%esp)
0x000edd4b:  b8 c0 60 0f 00           movl     $0xf60c0, %eax
0x000edd50:  66 89 44 24 12           movw     %ax, 0x12(%esp)
0x000edd55:  66 89 74 24 2e           movw     %si, 0x2e(%esp)
0x000edd5a:  66 89 5c 24 30           movw     %bx, 0x30(%esp)
0x000edd5f:  e8 37 c9 ff ff           calll    0xea69b

----------------
IN: 
0x000ea69b:  e8 85 e8 ff ff           calll    0xe8f25

----------------
IN: 
0x000ea6a0:  85 c0                    testl    %eax, %eax
0x000ea6a2:  74 2e                    je       0xea6d2

----------------
IN: 
0x000ea6d2:  c3                       retl     

----------------
IN: 
0x000edd64:  b8 01 00 00 00           movl     $1, %eax
0x000edd69:  e8 13 d9 ff ff           calll    0xeb681

----------------
IN: 
0x000edd6e:  b9 31 82 0f 00           movl     $0xf8231, %ecx
0x000edd73:  31 d2                    xorl     %edx, %edx
0x000edd75:  8d 44 24 0e              leal     0xe(%esp), %eax
0x000edd79:  e8 4e da ff ff           calll    0xeb7cc

----------------
IN: 
0x000c0003:  e9 90 55                 jmp      0xc5596

----------------
IN: 
0x000c5596:  fa                       cli      
0x000c5597:  fc                       cld      
0x000c5598:  66 50                    pushl    %eax
0x000c559a:  66 51                    pushl    %ecx
0x000c559c:  66 52                    pushl    %edx
0x000c559e:  66 53                    pushl    %ebx
0x000c55a0:  66 55                    pushl    %ebp
0x000c55a2:  66 56                    pushl    %esi
0x000c55a4:  66 57                    pushl    %edi
0x000c55a6:  06                       pushw    %es
0x000c55a7:  1e                       pushw    %ds
0x000c55a8:  8c d0                    movw     %ss, %ax
0x000c55aa:  8e d8                    movw     %ax, %ds
0x000c55ac:  66 89 e3                 movl     %esp, %ebx
0x000c55af:  66 0f b7 e4              movzwl   %sp, %esp
0x000c55b3:  66 89 e0                 movl     %esp, %eax
0x000c55b6:  50                       pushw    %ax
0x000c55b7:  e8 6e e0                 callw    0xc3628

----------------
IN: 
0x000c3628:  66 55                    pushl    %ebp
0x000c362a:  66 89 e5                 movl     %esp, %ebp
0x000c362d:  66 57                    pushl    %edi
0x000c362f:  66 56                    pushl    %esi
0x000c3631:  66 53                    pushl    %ebx
0x000c3633:  66 83 ec 18              subl     $0x18, %esp
0x000c3637:  66 89 c3                 movl     %eax, %ebx
0x000c363a:  66 68 e0 98 00 00        pushl    $0x98e0
0x000c3640:  66 68 7f 57 00 00        pushl    $0x577f
0x000c3646:  50                       pushw    %ax
0x000c3647:  e8 ed ee                 callw    0xc2537

----------------
IN: 
0x000c2537:  66 55                    pushl    %ebp
0x000c2539:  66 89 e5                 movl     %esp, %ebp
0x000c253c:  66 57                    pushl    %edi
0x000c253e:  66 56                    pushl    %esi
0x000c2540:  66 53                    pushl    %ebx
0x000c2542:  66 83 ec 0c              subl     $0xc, %esp
0x000c2546:  66 89 eb                 movl     %ebp, %ebx
0x000c2549:  9c                       pushfw   
0x000c254a:  66 83 c3 0c              addl     $0xc, %ebx
0x000c254e:  9d                       popfw    

----------------
IN: 
0x000c254f:  67 66 8b 45 08           movl     8(%ebp), %eax
0x000c2554:  2e 67 8a 00              movb     %cs:(%eax), %al
0x000c2558:  84 c0                    testb    %al, %al
0x000c255a:  0f 84 b8 02              je       0xc2816

----------------
IN: 
0x000c255e:  3c 25                    cmpb     $0x25, %al
0x000c2560:  75 18                    jne      0xc257a

----------------
IN: 
0x000c257a:  66 0f be c0              movsbl   %al, %eax
0x000c257e:  e9 76 02                 jmp      0xc27f7

----------------
IN: 
0x000c27f7:  50                       pushw    %ax
0x000c27f8:  e8 27 d8                 callw    0xc0022

----------------
IN: 
0x000c0022:  2e 8b 16 0e 99           movw     %cs:0x990e, %dx
0x000c0027:  85 d2                    testw    %dx, %dx
0x000c0029:  74 01                    je       0xc002c

----------------
IN: 
0x000c002b:  ee                       outb     %al, %dx

----------------
IN: 
0x000c002c:  c2 02 00                 retw     $2

----------------
IN: 
0x000c27fb:  67 66 8b 75 08           movl     8(%ebp), %esi
0x000c2800:  eb 03                    jmp      0xc2805

----------------
IN: 
0x000c2805:  66 89 f0                 movl     %esi, %eax
0x000c2808:  9c                       pushfw   
0x000c2809:  66 83 c0 01              addl     $1, %eax
0x000c280d:  9d                       popfw    

----------------
IN: 
0x000c280e:  67 66 89 45 08           movl     %eax, 8(%ebp)
0x000c2813:  e9 39 fd                 jmp      0xc254f

----------------
IN: 
0x000c2562:  67 66 8b 45 08           movl     8(%ebp), %eax
0x000c2567:  66 89 c6                 movl     %eax, %esi
0x000c256a:  9c                       pushfw   
0x000c256b:  66 83 c6 01              addl     $1, %esi
0x000c256f:  9d                       popfw    

----------------
IN: 
0x000c2570:  67 c6 45 e8 20           movb     $0x20, -0x18(%ebp)
0x000c2575:  66 31 c0                 xorl     %eax, %eax
0x000c2578:  eb 21                    jmp      0xc259b

----------------
IN: 
0x000c259b:  2e 67 8a 0e              movb     %cs:(%esi), %cl
0x000c259f:  67 88 4d f0              movb     %cl, -0x10(%ebp)
0x000c25a3:  88 ca                    movb     %cl, %dl
0x000c25a5:  66 89 cf                 movl     %ecx, %edi
0x000c25a8:  66 83 ef 30              subl     $0x30, %edi
0x000c25ac:  66 89 f9                 movl     %edi, %ecx
0x000c25af:  80 f9 09                 cmpb     $9, %cl
0x000c25b2:  76 cd                    jbe      0xc2581

----------------
IN: 
0x000c25b4:  eb 0f                    jmp      0xc25c5

----------------
IN: 
0x000c25c5:  66 31 c9                 xorl     %ecx, %ecx
0x000c25c8:  80 fa 6c                 cmpb     $0x6c, %dl
0x000c25cb:  75 22                    jne      0xc25ef

----------------
IN: 
0x000c25ef:  80 fa 64                 cmpb     $0x64, %dl
0x000c25f2:  0f 84 8f 00              je       0xc2685

----------------
IN: 
0x000c25f6:  7f 40                    jg       0xc2638

----------------
IN: 
0x000c2638:  80 fa 73                 cmpb     $0x73, %dl
0x000c263b:  0f 84 91 01              je       0xc27d0

----------------
IN: 
0x000c27d0:  66 89 d9                 movl     %ebx, %ecx
0x000c27d3:  9c                       pushfw   
0x000c27d4:  66 83 c1 04              addl     $4, %ecx
0x000c27d8:  9d                       popfw    

----------------
IN: 
0x000c27d9:  67 66 8b 1b              movl     (%ebx), %ebx
0x000c27dd:  2e 67 8a 03              movb     %cs:(%ebx), %al
0x000c27e1:  84 c0                    testb    %al, %al
0x000c27e3:  74 1d                    je       0xc2802

----------------
IN: 
0x000c27e5:  66 0f be c0              movsbl   %al, %eax
0x000c27e9:  50                       pushw    %ax
0x000c27ea:  e8 35 d8                 callw    0xc0022

----------------
IN: 
0x000c27ed:  66 43                    incl     %ebx
0x000c27ef:  eb ec                    jmp      0xc27dd

----------------
IN: 
0x000c27dd:  2e 67 8a 03              movb     %cs:(%ebx), %al
0x000c27e1:  84 c0                    testb    %al, %al
0x000c27e3:  74 1d                    je       0xc2802

----------------
IN: 
0x000c2802:  66 89 cb                 movl     %ecx, %ebx
0x000c2805:  66 89 f0                 movl     %esi, %eax
0x000c2808:  9c                       pushfw   
0x000c2809:  66 83 c0 01              addl     $1, %eax
0x000c280d:  9d                       popfw    

----------------
IN: 
0x000c2816:  66 83 c4 0c              addl     $0xc, %esp
0x000c281a:  66 5b                    popl     %ebx
0x000c281c:  66 5e                    popl     %esi
0x000c281e:  66 5f                    popl     %edi
0x000c2820:  66 5d                    popl     %ebp
0x000c2822:  c2 02 00                 retw     $2

----------------
IN: 
0x000c364a:  66 58                    popl     %eax
0x000c364c:  66 5a                    popl     %edx
0x000c364e:  66 68 80 98 00 00        pushl    $0x9880
0x000c3654:  66 68 9e 57 00 00        pushl    $0x579e
0x000c365a:  50                       pushw    %ax
0x000c365b:  e8 d9 ee                 callw    0xc2537

----------------
IN: 
0x000c365e:  66 59                    popl     %ecx
0x000c3660:  66 5e                    popl     %esi
0x000c3662:  66 68 94 5a 00 00        pushl    $0x5a94
0x000c3668:  66 68 ac 57 00 00        pushl    $0x57ac
0x000c366e:  50                       pushw    %ax
0x000c366f:  e8 c5 ee                 callw    0xc2537

----------------
IN: 
0x000c3672:  66 5f                    popl     %edi
0x000c3674:  66 58                    popl     %eax
0x000c3676:  66 89 d8                 movl     %ebx, %eax
0x000c3679:  50                       pushw    %ax
0x000c367a:  e8 a8 f1                 callw    0xc2825

----------------
IN: 
0x000c2825:  66 55                    pushl    %ebp
0x000c2827:  66 89 e5                 movl     %esp, %ebp
0x000c282a:  66 53                    pushl    %ebx
0x000c282c:  66 85 c0                 testl    %eax, %eax
0x000c282f:  75 0e                    jne      0xc283f

----------------
IN: 
0x000c283f:  66 89 c3                 movl     %eax, %ebx
0x000c2842:  8c d0                    movw     %ss, %ax
0x000c2844:  66 0f b7 c0              movzwl   %ax, %eax
0x000c2848:  66 50                    pushl    %eax
0x000c284a:  67 66 0f b7 43 02        movzwl   2(%ebx), %eax
0x000c2850:  66 50                    pushl    %eax
0x000c2852:  67 66 0f b7 03           movzwl   (%ebx), %eax
0x000c2857:  66 50                    pushl    %eax
0x000c2859:  67 66 ff 73 14           pushl    0x14(%ebx)
0x000c285e:  67 66 ff 73 18           pushl    0x18(%ebx)
0x000c2863:  67 66 ff 73 10           pushl    0x10(%ebx)
0x000c2868:  67 66 ff 73 1c           pushl    0x1c(%ebx)
0x000c286d:  66 68 be 56 00 00        pushl    $0x56be
0x000c2873:  50                       pushw    %ax
0x000c2874:  e8 c0 fc                 callw    0xc2537

----------------
IN: 
0x000c2581:  66 85 c0                 testl    %eax, %eax
0x000c2584:  74 30                    je       0xc25b6

----------------
IN: 
0x000c25b6:  80 fa 30                 cmpb     $0x30, %dl
0x000c25b9:  75 cb                    jne      0xc2586

----------------
IN: 
0x000c25bb:  67 c6 45 e8 30           movb     $0x30, -0x18(%ebp)
0x000c25c0:  66 31 c0                 xorl     %eax, %eax
0x000c25c3:  eb d4                    jmp      0xc2599

----------------
IN: 
0x000c2599:  66 46                    incl     %esi
0x000c259b:  2e 67 8a 0e              movb     %cs:(%esi), %cl
0x000c259f:  67 88 4d f0              movb     %cl, -0x10(%ebp)
0x000c25a3:  88 ca                    movb     %cl, %dl
0x000c25a5:  66 89 cf                 movl     %ecx, %edi
0x000c25a8:  66 83 ef 30              subl     $0x30, %edi
0x000c25ac:  66 89 f9                 movl     %edi, %ecx
0x000c25af:  80 f9 09                 cmpb     $9, %cl
0x000c25b2:  76 cd                    jbe      0xc2581

----------------
IN: 
0x000c2586:  66 6b c0 0a              imull    $0xa, %eax, %eax
0x000c258a:  67 66 0f b6 4d f0        movzbl   -0x10(%ebp), %ecx
0x000c2590:  9c                       pushfw   
0x000c2591:  66 01 c8                 addl     %ecx, %eax
0x000c2594:  66 83 c0 d0              addl     $-0x30, %eax
0x000c2598:  9d                       popfw    

----------------
IN: 
0x000c263f:  7f 37                    jg       0xc2678

----------------
IN: 
0x000c2678:  80 fa 75                 cmpb     $0x75, %dl
0x000c267b:  74 31                    je       0xc26ae

----------------
IN: 
0x000c267d:  80 fa 78                 cmpb     $0x78, %dl
0x000c2680:  74 45                    je       0xc26c7

----------------
IN: 
0x000c26c7:  80 fa 58                 cmpb     $0x58, %dl
0x000c26ca:  0f 94 c2                 sete     %dl
0x000c26cd:  66 0f b6 d2              movzbl   %dl, %edx
0x000c26d1:  67 66 89 55 f0           movl     %edx, -0x10(%ebp)
0x000c26d6:  67 66 8b 3b              movl     (%ebx), %edi
0x000c26da:  67 66 89 7d ec           movl     %edi, -0x14(%ebp)
0x000c26df:  84 c9                    testb    %cl, %cl
0x000c26e1:  74 68                    je       0xc274b

----------------
IN: 
0x000c274b:  66 89 df                 movl     %ebx, %edi
0x000c274e:  9c                       pushfw   
0x000c274f:  66 83 c7 04              addl     $4, %edi
0x000c2753:  9d                       popfw    

----------------
IN: 
0x000c2754:  67 66 8b 55 ec           movl     -0x14(%ebp), %edx
0x000c2759:  66 bb 01 00 00 00        movl     $1, %ebx
0x000c275f:  66 c1 ea 04              shrl     $4, %edx
0x000c2763:  74 04                    je       0xc2769

----------------
IN: 
0x000c2765:  66 43                    incl     %ebx
0x000c2767:  eb f6                    jmp      0xc275f

----------------
IN: 
0x000c275f:  66 c1 ea 04              shrl     $4, %edx
0x000c2763:  74 04                    je       0xc2769

----------------
IN: 
0x000c2769:  66 29 d8                 subl     %ebx, %eax
0x000c276c:  66 89 c1                 movl     %eax, %ecx
0x000c276f:  67 66 0f be 45 e8        movsbl   -0x18(%ebp), %eax
0x000c2775:  66 85 c9                 testl    %ecx, %ecx
0x000c2778:  7e 08                    jle      0xc2782

----------------
IN: 
0x000c277a:  50                       pushw    %ax
0x000c277b:  e8 a4 d8                 callw    0xc0022

----------------
IN: 
0x000c277e:  66 49                    decl     %ecx
0x000c2780:  eb f3                    jmp      0xc2775

----------------
IN: 
0x000c2775:  66 85 c9                 testl    %ecx, %ecx
0x000c2778:  7e 08                    jle      0xc2782

----------------
IN: 
0x000c2782:  67 66 8b 4d f0           movl     -0x10(%ebp), %ecx
0x000c2787:  66 89 da                 movl     %ebx, %edx
0x000c278a:  67 66 8b 45 ec           movl     -0x14(%ebp), %eax
0x000c278f:  50                       pushw    %ax
0x000c2790:  e8 95 e8                 callw    0xc1028

----------------
IN: 
0x000c1028:  66 55                    pushl    %ebp
0x000c102a:  66 89 e5                 movl     %esp, %ebp
0x000c102d:  66 56                    pushl    %esi
0x000c102f:  66 53                    pushl    %ebx
0x000c1031:  66 89 c3                 movl     %eax, %ebx
0x000c1034:  66 89 ce                 movl     %ecx, %esi
0x000c1037:  66 83 fa 04              cmpl     $4, %edx
0x000c103b:  74 67                    je       0xc10a4

----------------
IN: 
0x000c103d:  7f 12                    jg       0xc1051

----------------
IN: 
0x000c103f:  66 83 fa 02              cmpl     $2, %edx
0x000c1043:  0f 84 81 00              je       0xc10c8

----------------
IN: 
0x000c10c8:  66 89 d8                 movl     %ebx, %eax
0x000c10cb:  66 c1 e8 04              shrl     $4, %eax
0x000c10cf:  66 83 e0 0f              andl     $0xf, %eax
0x000c10d3:  66 89 f2                 movl     %esi, %edx
0x000c10d6:  50                       pushw    %ax
0x000c10d7:  e8 21 ff                 callw    0xc0ffb

----------------
IN: 
0x000c0ffb:  66 89 c1                 movl     %eax, %ecx
0x000c0ffe:  9c                       pushfw   

----------------
IN: 
0x000c0fff:  66 83 c1 30              addl     $0x30, %ecx

----------------
IN: 
0x000c1003:  9d                       popfw    

----------------
IN: 
0x000c1004:  66 83 f8 09              cmpl     $9, %eax
0x000c1008:  76 17                    jbe      0xc1021

----------------
IN: 
0x000c1021:  66 0f be c1              movsbl   %cl, %eax
0x000c1025:  e9 fa ef                 jmp      0xc0022

----------------
IN: 
0x000c10da:  66 89 d8                 movl     %ebx, %eax
0x000c10dd:  66 83 e0 0f              andl     $0xf, %eax
0x000c10e1:  66 89 f2                 movl     %esi, %edx
0x000c10e4:  66 5b                    popl     %ebx
0x000c10e6:  66 5e                    popl     %esi
0x000c10e8:  66 5d                    popl     %ebp
0x000c10ea:  e9 0e ff                 jmp      0xc0ffb

----------------
IN: 
0x000c2793:  66 89 fb                 movl     %edi, %ebx
0x000c2796:  eb 6d                    jmp      0xc2805

----------------
IN: 
0x000c10a4:  66 89 d8                 movl     %ebx, %eax
0x000c10a7:  66 c1 e8 0c              shrl     $0xc, %eax
0x000c10ab:  66 83 e0 0f              andl     $0xf, %eax
0x000c10af:  66 89 f2                 movl     %esi, %edx
0x000c10b2:  50                       pushw    %ax
0x000c10b3:  e8 45 ff                 callw    0xc0ffb

----------------
IN: 
0x000c100a:  66 89 c1                 movl     %eax, %ecx
0x000c100d:  9c                       pushfw   
0x000c100e:  66 83 c1 57              addl     $0x57, %ecx
0x000c1012:  9d                       popfw    

----------------
IN: 
0x000c1013:  66 85 d2                 testl    %edx, %edx
0x000c1016:  74 09                    je       0xc1021

----------------
IN: 
0x000c10b6:  66 89 d8                 movl     %ebx, %eax
0x000c10b9:  66 c1 e8 08              shrl     $8, %eax
0x000c10bd:  66 83 e0 0f              andl     $0xf, %eax
0x000c10c1:  66 89 f2                 movl     %esi, %edx
0x000c10c4:  50                       pushw    %ax
0x000c10c5:  e8 33 ff                 callw    0xc0ffb

----------------
IN: 
0x000c1047:  66 83 fa 03              cmpl     $3, %edx
0x000c104b:  0f 85 8b 00              jne      0xc10da

----------------
IN: 
0x000c2877:  66 83 c4 20              addl     $0x20, %esp
0x000c287b:  67 66 0f b7 43 24        movzwl   0x24(%ebx), %eax
0x000c2881:  66 50                    pushl    %eax
0x000c2883:  67 66 0f b7 43 20        movzwl   0x20(%ebx), %eax
0x000c2889:  66 50                    pushl    %eax
0x000c288b:  67 66 0f b7 43 22        movzwl   0x22(%ebx), %eax
0x000c2891:  66 50                    pushl    %eax
0x000c2893:  66 89 d8                 movl     %ebx, %eax
0x000c2896:  9c                       pushfw   
0x000c2897:  66 83 c0 26              addl     $0x26, %eax
0x000c289b:  9d                       popfw    

----------------
IN: 
0x000c289c:  66 50                    pushl    %eax
0x000c289e:  67 66 ff 73 0c           pushl    0xc(%ebx)
0x000c28a3:  67 66 ff 73 04           pushl    4(%ebx)
0x000c28a8:  67 66 ff 73 08           pushl    8(%ebx)
0x000c28ad:  66 68 f9 56 00 00        pushl    $0x56f9
0x000c28b3:  50                       pushw    %ax
0x000c28b4:  e8 80 fc                 callw    0xc2537

----------------
IN: 
0x000c28b7:  66 83 c4 20              addl     $0x20, %esp
0x000c28bb:  67 66 8b 5d fc           movl     -4(%ebp), %ebx
0x000c28c0:  66 89 ec                 movl     %ebp, %esp
0x000c28c3:  66 5d                    popl     %ebp
0x000c28c5:  c2 02 00                 retw     $2

----------------
IN: 
0x000c367d:  2e 66 a1 50 98           movl     %cs:0x9850, %eax
0x000c3682:  66 85 c0                 testl    %eax, %eax
0x000c3685:  75 54                    jne      0xc36db

----------------
IN: 
0x000c3687:  67 66 0f b7 5b 1c        movzwl   0x1c(%ebx), %ebx
0x000c368d:  66 89 d9                 movl     %ebx, %ecx
0x000c3690:  66 c1 e1 08              shll     $8, %ecx
0x000c3694:  66 81 c9 00 00 00 80     orl      $0x80000000, %ecx
0x000c369b:  66 be f8 0c 00 00        movl     $0xcf8, %esi
0x000c36a1:  66 89 c8                 movl     %ecx, %eax
0x000c36a4:  66 89 f2                 movl     %esi, %edx
0x000c36a7:  66 ef                    outl     %eax, %dx

----------------
IN: 
0x000c36a9:  66 ba fc 0c 00 00        movl     $0xcfc, %edx
0x000c36af:  ed                       inw      %dx, %ax

----------------
IN: 
0x000c36b0:  2e 8b 16 60 98           movw     %cs:0x9860, %dx
0x000c36b5:  39 c2                    cmpw     %ax, %dx
0x000c36b7:  75 22                    jne      0xc36db

----------------
IN: 
0x000c36b9:  66 89 c8                 movl     %ecx, %eax
0x000c36bc:  66 89 f2                 movl     %esi, %edx
0x000c36bf:  66 ef                    outl     %eax, %dx

----------------
IN: 
0x000c36c1:  66 ba fe 0c 00 00        movl     $0xcfe, %edx
0x000c36c7:  ed                       inw      %dx, %ax

----------------
IN: 
0x000c36c8:  2e 8b 16 62 98           movw     %cs:0x9862, %dx
0x000c36cd:  39 c2                    cmpw     %ax, %dx
0x000c36cf:  75 0a                    jne      0xc36db

----------------
IN: 
0x000c36d1:  8c c8                    movw     %cs, %ax
0x000c36d3:  8e c0                    movw     %ax, %es
0x000c36d5:  26 66 89 1e 54 98        movl     %ebx, %es:0x9854
0x000c36db:  b0 c3                    movb     $0xc3, %al
0x000c36dd:  66 ba c2 03 00 00        movl     $0x3c2, %edx
0x000c36e3:  ee                       outb     %al, %dx

----------------
IN: 
0x000c36e4:  66 b8 04 02 00 00        movl     $0x204, %eax
0x000c36ea:  66 ba c4 03 00 00        movl     $0x3c4, %edx
0x000c36f0:  ef                       outw     %ax, %dx

----------------
IN: 
0x000c36f1:  66 31 db                 xorl     %ebx, %ebx
0x000c36f4:  66 be ce 01 00 00        movl     $0x1ce, %esi
0x000c36fa:  66 89 d8                 movl     %ebx, %eax
0x000c36fd:  66 89 f2                 movl     %esi, %edx
0x000c3700:  ef                       outw     %ax, %dx

----------------
IN: 
0x000c3701:  66 b9 cf 01 00 00        movl     $0x1cf, %ecx
0x000c3707:  66 b8 c0 b0 ff ff        movl     $0xffffb0c0, %eax
0x000c370d:  66 89 ca                 movl     %ecx, %edx
0x000c3710:  ef                       outw     %ax, %dx

----------------
IN: 
0x000c3711:  66 89 d8                 movl     %ebx, %eax
0x000c3714:  66 89 f2                 movl     %esi, %edx
0x000c3717:  ef                       outw     %ax, %dx

----------------
IN: 
0x000c3718:  66 89 ca                 movl     %ecx, %edx
0x000c371b:  ed                       inw      %dx, %ax

----------------
IN: 
0x000c371c:  3d c0 b0                 cmpw     $0xb0c0, %ax
0x000c371f:  74 0f                    je       0xc3730

----------------
IN: 
0x000c3730:  66 89 d8                 movl     %ebx, %eax
0x000c3733:  66 89 f2                 movl     %esi, %edx
0x000c3736:  ef                       outw     %ax, %dx

----------------
IN: 
0x000c3737:  66 b8 c5 b0 ff ff        movl     $0xffffb0c5, %eax
0x000c373d:  66 89 ca                 movl     %ecx, %edx
0x000c3740:  ef                       outw     %ax, %dx

----------------
IN: 
0x000c3741:  8c c8                    movw     %cs, %ax
0x000c3743:  8e c0                    movw     %ax, %es
0x000c3745:  66 b8 01 00 00 00        movl     $1, %eax
0x000c374b:  26 66 a3 a0 5a           movl     %eax, %es:0x5aa0
0x000c3750:  2e 66 a1 50 98           movl     %cs:0x9850, %eax
0x000c3755:  66 89 c7                 movl     %eax, %edi
0x000c3758:  66 85 c0                 testl    %eax, %eax
0x000c375b:  0f 85 9b 02              jne      0xc39fa

----------------
IN: 
0x000c375f:  2e 66 8b 0e 54 98        movl     %cs:0x9854, %ecx
0x000c3765:  66 85 c9                 testl    %ecx, %ecx
0x000c3768:  0f 88 c1 00              js       0xc382d

----------------
IN: 
0x000c376c:  66 89 cb                 movl     %ecx, %ebx
0x000c376f:  66 c1 e3 08              shll     $8, %ebx
0x000c3773:  66 81 e3 00 ff ff 00     andl     $0xffff00, %ebx
0x000c377a:  66 89 d8                 movl     %ebx, %eax
0x000c377d:  66 0d 00 00 00 80        orl      $0x80000000, %eax
0x000c3783:  66 ba f8 0c 00 00        movl     $0xcf8, %edx
0x000c3789:  66 ef                    outl     %eax, %dx

----------------
IN: 
0x000c378b:  66 be fc 0c 00 00        movl     $0xcfc, %esi
0x000c3791:  66 89 f2                 movl     %esi, %edx
0x000c3794:  ed                       inw      %dx, %ax

----------------
IN: 
0x000c3795:  3d 34 12                 cmpw     $0x1234, %ax
0x000c3798:  74 17                    je       0xc37b1

----------------
IN: 
0x000c37b1:  66 89 d8                 movl     %ebx, %eax
0x000c37b4:  66 0d 18 00 00 80        orl      $0x80000018, %eax
0x000c37ba:  66 ba f8 0c 00 00        movl     $0xcf8, %edx
0x000c37c0:  66 ef                    outl     %eax, %dx

----------------
IN: 
0x000c37c2:  66 89 f2                 movl     %esi, %edx
0x000c37c5:  66 ed                    inl      %dx, %eax

----------------
IN: 
0x000c37c7:  66 83 e0 fc              andl     $0xfffffffc, %eax
0x000c37cb:  67 66 89 45 f0           movl     %eax, -0x10(%ebp)
0x000c37d0:  66 31 f6                 xorl     %esi, %esi
0x000c37d3:  66 89 f0                 movl     %esi, %eax
0x000c37d6:  9c                       pushfw   
0x000c37d7:  66 c1 e0 02              shll     $2, %eax
0x000c37db:  66 83 c0 10              addl     $0x10, %eax
0x000c37df:  9d                       popfw    

----------------
IN: 
0x000c37e0:  66 09 d8                 orl      %ebx, %eax
0x000c37e3:  66 0d 00 00 00 80        orl      $0x80000000, %eax
0x000c37e9:  66 ba f8 0c 00 00        movl     $0xcf8, %edx
0x000c37ef:  66 ef                    outl     %eax, %dx

----------------
IN: 
0x000c37f1:  66 ba fc 0c 00 00        movl     $0xcfc, %edx
0x000c37f7:  66 ed                    inl      %dx, %eax

----------------
IN: 
0x000c37f9:  66 83 e0 f0              andl     $0xfffffff0, %eax
0x000c37fd:  66 89 c3                 movl     %eax, %ebx
0x000c3800:  66 56                    pushl    %esi
0x000c3802:  66 89 c8                 movl     %ecx, %eax
0x000c3805:  66 83 e0 07              andl     $7, %eax
0x000c3809:  66 50                    pushl    %eax
0x000c380b:  66 89 c8                 movl     %ecx, %eax
0x000c380e:  c1 e8 03                 shrw     $3, %ax
0x000c3811:  66 83 e0 1f              andl     $0x1f, %eax
0x000c3815:  66 50                    pushl    %eax
0x000c3817:  66 0f b6 cd              movzbl   %ch, %ecx
0x000c381b:  66 51                    pushl    %ecx
0x000c381d:  66 68 f0 57 00 00        pushl    $0x57f0
0x000c3823:  50                       pushw    %ax
0x000c3824:  e8 10 ed                 callw    0xc2537

----------------
IN: 
0x000c2685:  67 66 8b 3b              movl     (%ebx), %edi
0x000c2689:  84 c9                    testb    %cl, %cl
0x000c268b:  75 06                    jne      0xc2693

----------------
IN: 
0x000c268d:  66 83 c3 04              addl     $4, %ebx
0x000c2691:  eb 04                    jmp      0xc2697

----------------
IN: 
0x000c2697:  66 85 ff                 testl    %edi, %edi
0x000c269a:  79 0d                    jns      0xc26a9

----------------
IN: 
0x000c26a9:  66 89 f8                 movl     %edi, %eax
0x000c26ac:  eb 12                    jmp      0xc26c0

----------------
IN: 
0x000c26c0:  50                       pushw    %ax
0x000c26c1:  e8 50 fc                 callw    0xc2314

----------------
IN: 
0x000c2314:  66 55                    pushl    %ebp
0x000c2316:  66 89 e5                 movl     %esp, %ebp
0x000c2319:  66 56                    pushl    %esi
0x000c231b:  66 53                    pushl    %ebx
0x000c231d:  66 83 ec 0c              subl     $0xc, %esp
0x000c2321:  66 89 c3                 movl     %eax, %ebx
0x000c2324:  67 c6 45 f7 00           movb     $0, -9(%ebp)
0x000c2329:  66 89 e9                 movl     %ebp, %ecx
0x000c232c:  9c                       pushfw   
0x000c232d:  66 83 c1 f6              addl     $-0xa, %ecx
0x000c2331:  9d                       popfw    

----------------
IN: 
0x000c2332:  66 be 0a 00 00 00        movl     $0xa, %esi
0x000c2338:  66 89 d8                 movl     %ebx, %eax
0x000c233b:  66 31 d2                 xorl     %edx, %edx
0x000c233e:  66 f7 f6                 divl     %esi
0x000c2341:  66 83 c2 30              addl     $0x30, %edx
0x000c2345:  67 88 11                 movb     %dl, (%ecx)
0x000c2348:  66 83 fb 09              cmpl     $9, %ebx
0x000c234c:  76 07                    jbe      0xc2355

----------------
IN: 
0x000c2355:  67 66 0f be 01           movsbl   (%ecx), %eax
0x000c235a:  84 c0                    testb    %al, %al
0x000c235c:  74 08                    je       0xc2366

----------------
IN: 
0x000c235e:  50                       pushw    %ax
0x000c235f:  e8 c0 dc                 callw    0xc0022

----------------
IN: 
0x000c2362:  66 41                    incl     %ecx
0x000c2364:  eb ef                    jmp      0xc2355

----------------
IN: 
0x000c2366:  66 83 c4 0c              addl     $0xc, %esp
0x000c236a:  66 5b                    popl     %ebx
0x000c236c:  66 5e                    popl     %esi
0x000c236e:  66 5d                    popl     %ebp
0x000c2370:  c2 02 00                 retw     $2

----------------
IN: 
0x000c26c4:  e9 3e 01                 jmp      0xc2805

----------------
IN: 
0x000c3827:  66 83 c4 14              addl     $0x14, %esp
0x000c382b:  eb 0e                    jmp      0xc383b

----------------
IN: 
0x000c383b:  8c c8                    movw     %cs, %ax
0x000c383d:  8e c0                    movw     %ax, %es
0x000c383f:  26 66 89 1e 24 72        movl     %ebx, %es:0x7224
0x000c3845:  66 be ce 01 00 00        movl     $0x1ce, %esi
0x000c384b:  66 b8 0a 00 00 00        movl     $0xa, %eax
0x000c3851:  66 89 f2                 movl     %esi, %edx
0x000c3854:  ef                       outw     %ax, %dx

----------------
IN: 
0x000c3855:  66 ba cf 01 00 00        movl     $0x1cf, %edx
0x000c385b:  ed                       inw      %dx, %ax

----------------
IN: 
0x000c385c:  66 c1 e0 10              shll     $0x10, %eax
0x000c3860:  67 66 89 45 ec           movl     %eax, -0x14(%ebp)
0x000c3865:  26 66 a3 2c 72           movl     %eax, %es:0x722c
0x000c386a:  66 b8 40 00 00 00        movl     $0x40, %eax
0x000c3870:  26 a3 20 72              movw     %ax, %es:0x7220
0x000c3874:  66 b8 01 00 00 00        movl     $1, %eax
0x000c387a:  26 66 a3 28 72           movl     %eax, %es:0x7228
0x000c387f:  67 66 8b 45 ec           movl     -0x14(%ebp), %eax
0x000c3884:  66 c1 e8 14              shrl     $0x14, %eax
0x000c3888:  66 50                    pushl    %eax
0x000c388a:  66 53                    pushl    %ebx
0x000c388c:  66 68 15 58 00 00        pushl    $0x5815
0x000c3892:  50                       pushw    %ax
0x000c3893:  e8 a1 ec                 callw    0xc2537

----------------
IN: 
0x000c1051:  66 83 fa 06              cmpl     $6, %edx
0x000c1055:  74 29                    je       0xc1080

----------------
IN: 
0x000c1057:  66 83 fa 07              cmpl     $7, %edx
0x000c105b:  74 11                    je       0xc106e

----------------
IN: 
0x000c105d:  66 83 fa 05              cmpl     $5, %edx
0x000c1061:  74 2f                    je       0xc1092

----------------
IN: 
0x000c1063:  66 c1 e8 1c              shrl     $0x1c, %eax
0x000c1067:  66 89 ca                 movl     %ecx, %edx
0x000c106a:  50                       pushw    %ax
0x000c106b:  e8 8d ff                 callw    0xc0ffb

----------------
IN: 
0x000c106e:  66 89 d8                 movl     %ebx, %eax
0x000c1071:  66 c1 e8 18              shrl     $0x18, %eax
0x000c1075:  66 83 e0 0f              andl     $0xf, %eax
0x000c1079:  66 89 f2                 movl     %esi, %edx
0x000c107c:  50                       pushw    %ax
0x000c107d:  e8 7b ff                 callw    0xc0ffb

----------------
IN: 
0x000c1080:  66 89 d8                 movl     %ebx, %eax
0x000c1083:  66 c1 e8 14              shrl     $0x14, %eax
0x000c1087:  66 83 e0 0f              andl     $0xf, %eax
0x000c108b:  66 89 f2                 movl     %esi, %edx
0x000c108e:  50                       pushw    %ax
0x000c108f:  e8 69 ff                 callw    0xc0ffb

----------------
IN: 
0x000c1092:  66 89 d8                 movl     %ebx, %eax
0x000c1095:  66 c1 e8 10              shrl     $0x10, %eax
0x000c1099:  66 83 e0 0f              andl     $0xf, %eax
0x000c109d:  66 89 f2                 movl     %esi, %edx
0x000c10a0:  50                       pushw    %ax
0x000c10a1:  e8 57 ff                 callw    0xc0ffb

----------------
IN: 
0x000c234e:  66 49                    decl     %ecx
0x000c2350:  66 89 c3                 movl     %eax, %ebx
0x000c2353:  eb e3                    jmp      0xc2338

----------------
IN: 
0x000c2338:  66 89 d8                 movl     %ebx, %eax
0x000c233b:  66 31 d2                 xorl     %edx, %edx
0x000c233e:  66 f7 f6                 divl     %esi
0x000c2341:  66 83 c2 30              addl     $0x30, %edx
0x000c2345:  67 88 11                 movb     %dl, (%ecx)
0x000c2348:  66 83 fb 09              cmpl     $9, %ebx
0x000c234c:  76 07                    jbe      0xc2355

----------------
IN: 
0x000c3896:  66 83 c4 0c              addl     $0xc, %esp
0x000c389a:  66 b9 04 00 00 00        movl     $4, %ecx
0x000c38a0:  66 89 c8                 movl     %ecx, %eax
0x000c38a3:  66 89 f2                 movl     %esi, %edx
0x000c38a6:  ef                       outw     %ax, %dx

----------------
IN: 
0x000c38a7:  66 ba cf 01 00 00        movl     $0x1cf, %edx
0x000c38ad:  ed                       inw      %dx, %ax

----------------
IN: 
0x000c38ae:  66 89 c3                 movl     %eax, %ebx
0x000c38b1:  66 89 c8                 movl     %ecx, %eax
0x000c38b4:  66 89 f2                 movl     %esi, %edx
0x000c38b7:  ef                       outw     %ax, %dx

----------------
IN: 
0x000c38b8:  66 89 d8                 movl     %ebx, %eax
0x000c38bb:  66 83 c8 02              orl      $2, %eax
0x000c38bf:  66 ba cf 01 00 00        movl     $0x1cf, %edx
0x000c38c5:  ef                       outw     %ax, %dx

----------------
IN: 
0x000c38c6:  66 b8 01 00 00 00        movl     $1, %eax
0x000c38cc:  66 89 f2                 movl     %esi, %edx
0x000c38cf:  ef                       outw     %ax, %dx

----------------
IN: 
0x000c38d0:  66 ba cf 01 00 00        movl     $0x1cf, %edx
0x000c38d6:  ed                       inw      %dx, %ax

----------------
IN: 
0x000c38d7:  67 89 45 e2              movw     %ax, -0x1e(%ebp)
0x000c38db:  66 b8 03 00 00 00        movl     $3, %eax
0x000c38e1:  66 89 f2                 movl     %esi, %edx
0x000c38e4:  ef                       outw     %ax, %dx

----------------
IN: 
0x000c38e5:  66 ba cf 01 00 00        movl     $0x1cf, %edx
0x000c38eb:  ed                       inw      %dx, %ax

----------------
IN: 
0x000c38ec:  67 89 45 e0              movw     %ax, -0x20(%ebp)
0x000c38f0:  66 89 c8                 movl     %ecx, %eax
0x000c38f3:  66 89 f2                 movl     %esi, %edx
0x000c38f6:  ef                       outw     %ax, %dx

----------------
IN: 
0x000c38f7:  66 89 d8                 movl     %ebx, %eax
0x000c38fa:  66 ba cf 01 00 00        movl     $0x1cf, %edx
0x000c3900:  ef                       outw     %ax, %dx

----------------
IN: 
0x000c3901:  2e 66 a1 a4 5a           movl     %cs:0x5aa4, %eax
0x000c3906:  66 6b c0 0e              imull    $0xe, %eax, %eax
0x000c390a:  66 05 c0 5a 00 00        addl     $0x5ac0, %eax
0x000c3910:  67 66 89 45 e4           movl     %eax, -0x1c(%ebp)
0x000c3915:  66 be c0 5a 00 00        movl     $0x5ac0, %esi
0x000c391b:  67 66 8b 45 e4           movl     -0x1c(%ebp), %eax
0x000c3920:  66 39 c6                 cmpl     %eax, %esi
0x000c3923:  0f 83 a9 00              jae      0xc39d0

----------------
IN: 
0x000c3927:  2e 67 8b 46 04           movw     %cs:4(%esi), %ax
0x000c392c:  67 89 45 e8              movw     %ax, -0x18(%ebp)
0x000c3930:  2e 67 8b 46 06           movw     %cs:6(%esi), %ax
0x000c3935:  67 89 45 de              movw     %ax, -0x22(%ebp)
0x000c3939:  2e 67 8a 46 08           movb     %cs:8(%esi), %al
0x000c393e:  67 88 45 dd              movb     %al, -0x23(%ebp)
0x000c3942:  66 89 f0                 movl     %esi, %eax
0x000c3945:  9c                       pushfw   
0x000c3946:  66 83 c0 02              addl     $2, %eax
0x000c394a:  9d                       popfw    

----------------
IN: 
0x000c394b:  50                       pushw    %ax
0x000c394c:  e8 ba d4                 callw    0xc0e09

----------------
IN: 
0x000c0e09:  66 89 c2                 movl     %eax, %edx
0x000c0e0c:  2e 67 8a 08              movb     %cs:(%eax), %cl
0x000c0e10:  84 c9                    testb    %cl, %cl
0x000c0e12:  74 23                    je       0xc0e37

----------------
IN: 
0x000c0e14:  66 b8 01 00 00 00        movl     $1, %eax
0x000c0e1a:  80 f9 03                 cmpb     $3, %cl
0x000c0e1d:  74 1e                    je       0xc0e3d

----------------
IN: 
0x000c0e1f:  2e 67 8a 42 06           movb     %cs:6(%edx), %al
0x000c0e24:  3c 08                    cmpb     $8, %al
0x000c0e26:  66 0f b6 c0              movzbl   %al, %eax
0x000c0e2a:  76 11                    jbe      0xc0e3d

----------------
IN: 
0x000c0e3d:  c2 02 00                 retw     $2

----------------
IN: 
0x000c394f:  66 89 c3                 movl     %eax, %ebx
0x000c3952:  66 89 f0                 movl     %esi, %eax
0x000c3955:  9c                       pushfw   
0x000c3956:  66 83 c0 02              addl     $2, %eax
0x000c395a:  9d                       popfw    

----------------
IN: 
0x000c395b:  50                       pushw    %ax
0x000c395c:  e8 c4 cf                 callw    0xc0923

----------------
IN: 
0x000c0923:  2e 67 8a 10              movb     %cs:(%eax), %dl
0x000c0927:  80 fa 01                 cmpb     $1, %dl
0x000c092a:  74 17                    je       0xc0943

----------------
IN: 
0x000c092c:  66 b8 04 00 00 00        movl     $4, %eax
0x000c0932:  80 fa 03                 cmpb     $3, %dl
0x000c0935:  74 20                    je       0xc0957

----------------
IN: 
0x000c0937:  f6 da                    negb     %dl
0x000c0939:  66 19 c0                 sbbl     %eax, %eax
0x000c093c:  66 83 c0 02              addl     $2, %eax
0x000c0940:  c2 02 00                 retw     $2

----------------
IN: 
0x000c395f:  66 89 c1                 movl     %eax, %ecx
0x000c3962:  67 66 8b 55 e8           movl     -0x18(%ebp), %edx
0x000c3967:  67 39 55 e2              cmpw     %dx, -0x1e(%ebp)
0x000c396b:  72 38                    jb       0xc39a5

----------------
IN: 
0x000c396d:  66 0f b7 c2              movzwl   %dx, %eax
0x000c3971:  66 0f af c3              imull    %ebx, %eax
0x000c3975:  66 83 c0 07              addl     $7, %eax
0x000c3979:  66 bb 08 00 00 00        movl     $8, %ebx
0x000c397f:  66 99                    cltd     
0x000c3981:  66 f7 fb                 idivl    %ebx
0x000c3984:  67 66 0f b7 55 de        movzwl   -0x22(%ebp), %edx
0x000c398a:  66 0f af c2              imull    %edx, %eax
0x000c398e:  66 0f af c1              imull    %ecx, %eax
0x000c3992:  67 66 39 45 ec           cmpl     %eax, -0x14(%ebp)
0x000c3997:  72 0c                    jb       0xc39a5

----------------
IN: 
0x000c3999:  67 66 0f b6 5d dd        movzbl   -0x23(%ebp), %ebx
0x000c399f:  67 39 5d e0              cmpw     %bx, -0x20(%ebp)
0x000c39a3:  73 24                    jae      0xc39c9

----------------
IN: 
0x000c39c9:  66 83 c6 0e              addl     $0xe, %esi
0x000c39cd:  e9 4b ff                 jmp      0xc391b

----------------
IN: 
0x000c391b:  67 66 8b 45 e4           movl     -0x1c(%ebp), %eax
0x000c3920:  66 39 c6                 cmpl     %eax, %esi
0x000c3923:  0f 83 a9 00              jae      0xc39d0

----------------
IN: 
0x000c0957:  c2 02 00                 retw     $2

----------------
IN: 
0x000c0e2c:  66 83 c0 07              addl     $7, %eax
0x000c0e30:  66 83 e0 f8              andl     $0xfffffff8, %eax
0x000c0e34:  c2 02 00                 retw     $2

----------------
IN: 
0x000c39a5:  2e 67 8b 06              movw     %cs:(%esi), %ax
0x000c39a9:  66 0f b7 c0              movzwl   %ax, %eax
0x000c39ad:  66 50                    pushl    %eax
0x000c39af:  66 68 39 58 00 00        pushl    $0x5839
0x000c39b5:  50                       pushw    %ax
0x000c39b6:  e8 7e eb                 callw    0xc2537

----------------
IN: 
0x000c104f:  eb 65                    jmp      0xc10b6

----------------
IN: 
0x000c39b9:  66 59                    popl     %ecx
0x000c39bb:  66 5b                    popl     %ebx
0x000c39bd:  8c c8                    movw     %cs, %ax
0x000c39bf:  8e c0                    movw     %ax, %es
0x000c39c1:  66 83 c8 ff              orl      $0xffffffff, %eax
0x000c39c5:  26 67 89 06              movw     %ax, %es:(%esi)
0x000c39c9:  66 83 c6 0e              addl     $0xe, %esi
0x000c39cd:  e9 4b ff                 jmp      0xc391b

----------------
IN: 
0x000c39d0:  67 66 83 7d f0 00        cmpl     $0, -0x10(%ebp)
0x000c39d6:  74 22                    je       0xc39fa

----------------
IN: 
0x000c39d8:  67 66 8b 45 f0           movl     -0x10(%ebp), %eax
0x000c39dd:  66 01 f8                 addl     %edi, %eax
0x000c39e0:  67 8a 00                 movb     (%eax), %al
0x000c39e3:  8c ca                    movw     %cs, %dx
0x000c39e5:  8e c2                    movw     %dx, %es
0x000c39e7:  26 67 88 87 20 71 00 00  movb     %al, %es:0x7120(%edi)
0x000c39ef:  66 47                    incl     %edi
0x000c39f1:  66 81 ff 00 01 00 00     cmpl     $0x100, %edi
0x000c39f8:  eb dc                    jmp      0xc39d6

----------------
IN: 
0x000c39e0:  67 8a 00                 movb     (%eax), %al

----------------
IN: 
0x000c39e3:  8c ca                    movw     %cs, %dx
0x000c39e5:  8e c2                    movw     %dx, %es
0x000c39e7:  26 67 88 87 20 71 00 00  movb     %al, %es:0x7120(%edi)
0x000c39ef:  66 47                    incl     %edi
0x000c39f1:  66 81 ff 00 01 00 00     cmpl     $0x100, %edi
0x000c39f8:  eb dc                    jmp      0xc39d6

----------------
IN: 
0x000c39d6:  74 22                    je       0xc39fa

----------------
IN: 
0x000c39fa:  2e 66 a1 50 98           movl     %cs:0x9850, %eax
0x000c39ff:  67 66 89 45 f0           movl     %eax, -0x10(%ebp)
0x000c3a04:  66 85 c0                 testl    %eax, %eax
0x000c3a07:  0f 85 d8 03              jne      0xc3de3

----------------
IN: 
0x000c3a0b:  66 b8 40 00 00 00        movl     $0x40, %eax
0x000c3a11:  8e c0                    movw     %ax, %es
0x000c3a13:  26 8b 16 10 00           movw     %es:0x10, %dx
0x000c3a18:  66 83 e2 cf              andl     $0xffffffcf, %edx
0x000c3a1c:  66 83 ca 20              orl      $0x20, %edx
0x000c3a20:  26 89 16 10 00           movw     %dx, %es:0x10
0x000c3a25:  8e c0                    movw     %ax, %es
0x000c3a27:  b2 51                    movb     $0x51, %dl
0x000c3a29:  26 88 16 89 00           movb     %dl, %es:0x89
0x000c3a2e:  8e c0                    movw     %ax, %es
0x000c3a30:  b2 08                    movb     $8, %dl
0x000c3a32:  26 88 16 8a 00           movb     %dl, %es:0x8a
0x000c3a37:  8e c0                    movw     %ax, %es
0x000c3a39:  66 31 d2                 xorl     %edx, %edx
0x000c3a3c:  26 88 16 65 00           movb     %dl, %es:0x65
0x000c3a41:  8e c0                    movw     %ax, %es
0x000c3a43:  26 88 16 66 00           movb     %dl, %es:0x66
0x000c3a48:  8c c9                    movw     %cs, %cx
0x000c3a4a:  66 c1 e1 10              shll     $0x10, %ecx
0x000c3a4e:  66 ba a0 66 00 00        movl     $0x66a0, %edx
0x000c3a54:  66 0f b7 d2              movzwl   %dx, %edx
0x000c3a58:  66 09 ca                 orl      %ecx, %edx
0x000c3a5b:  8e c0                    movw     %ax, %es
0x000c3a5d:  26 66 89 16 a8 00        movl     %edx, %es:0xa8
0x000c3a63:  8c ca                    movw     %cs, %dx
0x000c3a65:  66 89 d1                 movl     %edx, %ecx
0x000c3a68:  66 c1 e1 10              shll     $0x10, %ecx
0x000c3a6c:  66 b8 60 5f 00 00        movl     $0x5f60, %eax
0x000c3a72:  66 0f b7 c0              movzwl   %ax, %eax
0x000c3a76:  66 09 c8                 orl      %ecx, %eax
0x000c3a79:  8e c2                    movw     %dx, %es
0x000c3a7b:  26 66 a3 a0 66           movl     %eax, %es:0x66a0
0x000c3a80:  67 66 c7 45 e4 40 5f 00  movl     $0x5f40, -0x1c(%ebp)
0x000c3a88:  00
0x000c3a89:  66 bb 60 5f 00 00        movl     $0x5f60, %ebx
0x000c3a8f:  67 66 8b 45 e4           movl     -0x1c(%ebp), %eax
0x000c3a94:  2e 67 8a 10              movb     %cs:(%eax), %dl
0x000c3a98:  66 0f b6 d2              movzbl   %dl, %edx
0x000c3a9c:  66 85 d2                 testl    %edx, %edx
0x000c3a9f:  0f 84 7d 01              je       0xc3c20

----------------
IN: 
0x000c3c20:  67 66 ff 45 e4           incl     -0x1c(%ebp)
0x000c3c25:  66 83 c3 40              addl     $0x40, %ebx
0x000c3c29:  66 81 fb a0 66 00 00     cmpl     $0x66a0, %ebx
0x000c3c30:  0f 85 5b fe              jne      0xc3a8f

----------------
IN: 
0x000c3a8f:  67 66 8b 45 e4           movl     -0x1c(%ebp), %eax
0x000c3a94:  2e 67 8a 10              movb     %cs:(%eax), %dl
0x000c3a98:  66 0f b6 d2              movzbl   %dl, %edx
0x000c3a9c:  66 85 d2                 testl    %edx, %edx
0x000c3a9f:  0f 84 7d 01              je       0xc3c20

----------------
IN: 
0x000c3aa3:  66 31 c0                 xorl     %eax, %eax
0x000c3aa6:  2e 67 8b 88 c0 66 00 00  movw     %cs:0x66c0(%eax), %cx
0x000c3aae:  66 0f b7 c9              movzwl   %cx, %ecx
0x000c3ab2:  66 39 ca                 cmpl     %ecx, %edx
0x000c3ab5:  75 5d                    jne      0xc3b14

----------------
IN: 
0x000c3b14:  66 83 c0 2c              addl     $0x2c, %eax
0x000c3b18:  66 3d c0 02 00 00        cmpl     $0x2c0, %eax
0x000c3b1e:  75 86                    jne      0xc3aa6

----------------
IN: 
0x000c3aa6:  2e 67 8b 88 c0 66 00 00  movw     %cs:0x66c0(%eax), %cx
0x000c3aae:  66 0f b7 c9              movzwl   %cx, %ecx
0x000c3ab2:  66 39 ca                 cmpl     %ecx, %edx
0x000c3ab5:  75 5d                    jne      0xc3b14

----------------
IN: 
0x000c3ab7:  66 89 c7                 movl     %eax, %edi
0x000c3aba:  9c                       pushfw   
0x000c3abb:  66 81 c7 c2 66 00 00     addl     $0x66c2, %edi
0x000c3ac2:  9d                       popfw    

----------------
IN: 
0x000c3ac3:  67 66 89 7d ec           movl     %edi, -0x14(%ebp)
0x000c3ac8:  2e 67 8b b0 c4 66 00 00  movw     %cs:0x66c4(%eax), %si
0x000c3ad0:  66 0f b7 fe              movzwl   %si, %edi
0x000c3ad4:  67 66 89 7d e8           movl     %edi, -0x18(%ebp)
0x000c3ad9:  2e 67 8b 90 c6 66 00 00  movw     %cs:0x66c6(%eax), %dx
0x000c3ae1:  66 0f b7 fa              movzwl   %dx, %edi
0x000c3ae5:  2e 67 8a 88 c2 66 00 00  movb     %cs:0x66c2(%eax), %cl
0x000c3aed:  67 88 4d e2              movb     %cl, -0x1e(%ebp)
0x000c3af1:  2e 67 8a 88 ca 66 00 00  movb     %cs:0x66ca(%eax), %cl
0x000c3af9:  67 80 7d e2 00           cmpb     $0, -0x1e(%ebp)
0x000c3afe:  75 23                    jne      0xc3b23

----------------
IN: 
0x000c3b23:  2e 67 8a 80 c9 66 00 00  movb     %cs:0x66c9(%eax), %al
0x000c3b2b:  8c ca                    movw     %cs, %dx
0x000c3b2d:  8e c2                    movw     %dx, %es
0x000c3b2f:  66 0f b6 f0              movzbl   %al, %esi
0x000c3b33:  67 66 8b 45 e8           movl     -0x18(%ebp), %eax
0x000c3b38:  66 99                    cltd     
0x000c3b3a:  66 f7 fe                 idivl    %esi
0x000c3b3d:  26 67 88 03              movb     %al, %es:(%ebx)
0x000c3b41:  66 0f b6 f1              movzbl   %cl, %esi
0x000c3b45:  66 89 f8                 movl     %edi, %eax
0x000c3b48:  66 99                    cltd     
0x000c3b4a:  66 f7 fe                 idivl    %esi
0x000c3b4d:  66 48                    decl     %eax
0x000c3b4f:  26 67 88 43 01           movb     %al, %es:1(%ebx)
0x000c3b54:  67 8c 4d e0              movw     %cs, -0x20(%ebp)
0x000c3b58:  67 8e 45 e0              movw     -0x20(%ebp), %es
0x000c3b5c:  26 67 88 4b 02           movb     %cl, %es:2(%ebx)
0x000c3b61:  67 66 0f b6 45 e2        movzbl   -0x1e(%ebp), %eax
0x000c3b67:  66 89 f9                 movl     %edi, %ecx
0x000c3b6a:  67 66 8b 55 e8           movl     -0x18(%ebp), %edx
0x000c3b6f:  50                       pushw    %ax
0x000c3b70:  e8 bc c4                 callw    0xc002f

----------------
IN: 
0x000c002f:  84 c0                    testb    %al, %al
0x000c0031:  74 34                    je       0xc0067

----------------
IN: 
0x000c0033:  66 55                    pushl    %ebp
0x000c0035:  66 89 e5                 movl     %esp, %ebp
0x000c0038:  66 53                    pushl    %ebx
0x000c003a:  66 89 c3                 movl     %eax, %ebx
0x000c003d:  66 b8 00 40 00 00        movl     $0x4000, %eax
0x000c0043:  fe cb                    decb     %bl
0x000c0045:  74 37                    je       0xc007e

----------------
IN: 
0x000c007e:  66 5b                    popl     %ebx
0x000c0080:  66 5d                    popl     %ebp
0x000c0082:  c2 02 00                 retw     $2

----------------
IN: 
0x000c3b73:  26 67 89 43 03           movw     %ax, %es:3(%ebx)
0x000c3b78:  67 66 8b 45 ec           movl     -0x14(%ebp), %eax
0x000c3b7d:  2e 67 66 8b 70 16        movl     %cs:0x16(%eax), %esi
0x000c3b83:  66 89 df                 movl     %ebx, %edi
0x000c3b86:  9c                       pushfw   
0x000c3b87:  66 83 c7 05              addl     $5, %edi
0x000c3b8b:  9d                       popfw    

----------------
IN: 
0x000c3b8c:  66 b9 04 00 00 00        movl     $4, %ecx
0x000c3b92:  67 66 8b 55 e0           movl     -0x20(%ebp), %edx
0x000c3b97:  8c d8                    movw     %ds, %ax
0x000c3b99:  8e da                    movw     %dx, %ds
0x000c3b9b:  f3 a4                    rep movsb (%si), %es:(%di)

----------------
IN: 
0x000c3b9b:  f3 a4                    rep movsb (%si), %es:(%di)

----------------
IN: 
0x000c3b9d:  8e d8                    movw     %ax, %ds
0x000c3b9f:  67 66 8b 45 ec           movl     -0x14(%ebp), %eax
0x000c3ba4:  2e 67 8a 40 1a           movb     %cs:0x1a(%eax), %al
0x000c3ba9:  8c ca                    movw     %cs, %dx
0x000c3bab:  8e c2                    movw     %dx, %es
0x000c3bad:  26 67 88 43 09           movb     %al, %es:9(%ebx)
0x000c3bb2:  67 66 8b 45 ec           movl     -0x14(%ebp), %eax
0x000c3bb7:  2e 67 66 8b 70 1e        movl     %cs:0x1e(%eax), %esi
0x000c3bbd:  66 89 df                 movl     %ebx, %edi
0x000c3bc0:  9c                       pushfw   
0x000c3bc1:  66 83 c7 0a              addl     $0xa, %edi
0x000c3bc5:  9d                       popfw    

----------------
IN: 
0x000c3bc6:  66 b9 19 00 00 00        movl     $0x19, %ecx
0x000c3bcc:  8c d8                    movw     %ds, %ax
0x000c3bce:  8e da                    movw     %dx, %ds
0x000c3bd0:  f3 a4                    rep movsb (%si), %es:(%di)

----------------
IN: 
0x000c3bd0:  f3 a4                    rep movsb (%si), %es:(%di)

----------------
IN: 
0x000c3bd2:  8e d8                    movw     %ax, %ds
0x000c3bd4:  67 66 8b 45 ec           movl     -0x14(%ebp), %eax
0x000c3bd9:  2e 67 66 8b 70 22        movl     %cs:0x22(%eax), %esi
0x000c3bdf:  8c ca                    movw     %cs, %dx
0x000c3be1:  8e c2                    movw     %dx, %es
0x000c3be3:  66 89 df                 movl     %ebx, %edi
0x000c3be6:  9c                       pushfw   
0x000c3be7:  66 83 c7 23              addl     $0x23, %edi
0x000c3beb:  9d                       popfw    

----------------
IN: 
0x000c3bec:  66 b9 14 00 00 00        movl     $0x14, %ecx
0x000c3bf2:  8c d8                    movw     %ds, %ax
0x000c3bf4:  8e da                    movw     %dx, %ds
0x000c3bf6:  f3 a4                    rep movsb (%si), %es:(%di)

----------------
IN: 
0x000c3bf6:  f3 a4                    rep movsb (%si), %es:(%di)

----------------
IN: 
0x000c3bf8:  8e d8                    movw     %ax, %ds
0x000c3bfa:  67 66 8b 45 ec           movl     -0x14(%ebp), %eax
0x000c3bff:  2e 67 66 8b 70 26        movl     %cs:0x26(%eax), %esi
0x000c3c05:  8c ca                    movw     %cs, %dx
0x000c3c07:  8e c2                    movw     %dx, %es
0x000c3c09:  66 89 df                 movl     %ebx, %edi
0x000c3c0c:  9c                       pushfw   
0x000c3c0d:  66 83 c7 37              addl     $0x37, %edi
0x000c3c11:  9d                       popfw    

----------------
IN: 
0x000c3c12:  66 b9 09 00 00 00        movl     $9, %ecx
0x000c3c18:  8c d8                    movw     %ds, %ax
0x000c3c1a:  8e da                    movw     %dx, %ds
0x000c3c1c:  f3 a4                    rep movsb (%si), %es:(%di)

----------------
IN: 
0x000c3c1c:  f3 a4                    rep movsb (%si), %es:(%di)

----------------
IN: 
0x000c3c1e:  8e d8                    movw     %ax, %ds
0x000c3c20:  67 66 ff 45 e4           incl     -0x1c(%ebp)
0x000c3c25:  66 83 c3 40              addl     $0x40, %ebx
0x000c3c29:  66 81 fb a0 66 00 00     cmpl     $0x66a0, %ebx
0x000c3c30:  0f 85 5b fe              jne      0xc3a8f

----------------
IN: 
0x000c3b00:  8c c8                    movw     %cs, %ax
0x000c3b02:  8e c0                    movw     %ax, %es
0x000c3b04:  66 89 f0                 movl     %esi, %eax
0x000c3b07:  26 67 88 03              movb     %al, %es:(%ebx)
0x000c3b0b:  66 4a                    decl     %edx
0x000c3b0d:  26 67 88 53 01           movb     %dl, %es:1(%ebx)
0x000c3b12:  eb 40                    jmp      0xc3b54

----------------
IN: 
0x000c3b54:  67 8c 4d e0              movw     %cs, -0x20(%ebp)
0x000c3b58:  67 8e 45 e0              movw     -0x20(%ebp), %es
0x000c3b5c:  26 67 88 4b 02           movb     %cl, %es:2(%ebx)
0x000c3b61:  67 66 0f b6 45 e2        movzbl   -0x1e(%ebp), %eax
0x000c3b67:  66 89 f9                 movl     %edi, %ecx
0x000c3b6a:  67 66 8b 55 e8           movl     -0x18(%ebp), %edx
0x000c3b6f:  50                       pushw    %ax
0x000c3b70:  e8 bc c4                 callw    0xc002f

----------------
IN: 
0x000c0067:  0f af ca                 imulw    %dx, %cx
0x000c006a:  66 89 c8                 movl     %ecx, %eax
0x000c006d:  9c                       pushfw   
0x000c006e:  66 d1 e0                 shll     $1, %eax
0x000c0071:  66 05 ff 07 00 00        addl     $0x7ff, %eax
0x000c0077:  9d                       popfw    

----------------
IN: 
0x000c0078:  25 00 f8                 andw     $0xf800, %ax
0x000c007b:  c2 02 00                 retw     $2

----------------
IN: 
0x000c0047:  66 0f b7 d2              movzwl   %dx, %edx
0x000c004b:  66 0f b7 c9              movzwl   %cx, %ecx
0x000c004f:  66 0f af d1              imull    %ecx, %edx
0x000c0053:  66 c1 fa 03              sarl     $3, %edx
0x000c0057:  66 89 d0                 movl     %edx, %eax
0x000c005a:  9c                       pushfw   
0x000c005b:  66 05 ff 1f 00 00        addl     $0x1fff, %eax
0x000c0061:  9d                       popfw    

----------------
IN: 
0x000c0062:  25 00 e0                 andw     $0xe000, %ax
0x000c0065:  eb 17                    jmp      0xc007e

----------------
IN: 
0x000c3c34:  66 31 d2                 xorl     %edx, %edx
0x000c3c37:  66 b8 01 00 00 00        movl     $1, %eax
0x000c3c3d:  67 66 6b 4d f0 2c        imull    $0x2c, -0x10(%ebp), %ecx
0x000c3c43:  67 83 b9 c0 66 00 00 13  cmpw     $0x13, 0x66c0(%ecx)
0x000c3c4b:  77 0d                    ja       0xc3c5a

----------------
IN: 
0x000c3c4d:  66 89 c7                 movl     %eax, %edi
0x000c3c50:  67 8a 4d f0              movb     -0x10(%ebp), %cl
0x000c3c54:  66 d3 e7                 shll     %cl, %edi
0x000c3c57:  66 09 fa                 orl      %edi, %edx
0x000c3c5a:  67 66 ff 45 f0           incl     -0x10(%ebp)
0x000c3c5f:  67 66 83 7d f0 10        cmpl     $0x10, -0x10(%ebp)
0x000c3c65:  75 d6                    jne      0xc3c3d

----------------
IN: 
0x000c3c3d:  67 66 6b 4d f0 2c        imull    $0x2c, -0x10(%ebp), %ecx
0x000c3c43:  67 83 b9 c0 66 00 00 13  cmpw     $0x13, 0x66c0(%ecx)
0x000c3c4b:  77 0d                    ja       0xc3c5a

----------------
IN: 
0x000c3c5a:  67 66 ff 45 f0           incl     -0x10(%ebp)
0x000c3c5f:  67 66 83 7d f0 10        cmpl     $0x10, -0x10(%ebp)
0x000c3c65:  75 d6                    jne      0xc3c3d

----------------
IN: 
0x000c3c67:  8c c8                    movw     %cs, %ax
0x000c3c69:  8e c0                    movw     %ax, %es
0x000c3c6b:  26 66 89 16 40 98        movl     %edx, %es:0x9840
0x000c3c71:  66 89 c2                 movl     %eax, %edx
0x000c3c74:  66 c1 e2 10              shll     $0x10, %edx
0x000c3c78:  66 b8 ce 55 00 00        movl     $0x55ce, %eax
0x000c3c7e:  66 0f b7 c0              movzwl   %ax, %eax
0x000c3c82:  66 09 d0                 orl      %edx, %eax
0x000c3c85:  66 31 d2                 xorl     %edx, %edx
0x000c3c88:  8e c2                    movw     %dx, %es
0x000c3c8a:  26 66 a3 40 00           movl     %eax, %es:0x40
0x000c3c8f:  66 31 c0                 xorl     %eax, %eax
0x000c3c92:  66 be 00 f0 ff ff        movl     $0xfffff000, %esi
0x000c3c98:  8e c6                    movw     %si, %es
0x000c3c9a:  26 67 66 8b 10           movl     %es:(%eax), %edx
0x000c3c9f:  66 81 fa 24 50 4d 4d     cmpl     $0x4d4d5024, %edx
0x000c3ca6:  0f 85 e8 00              jne      0xc3d92

----------------
IN: 
0x000c3d92:  66 83 c0 10              addl     $0x10, %eax
0x000c3d96:  66 3d 00 00 01 00        cmpl     $0x10000, %eax
0x000c3d9c:  0f 85 f8 fe              jne      0xc3c98

----------------
IN: 
0x000c3c98:  8e c6                    movw     %si, %es
0x000c3c9a:  26 67 66 8b 10           movl     %es:(%eax), %edx
0x000c3c9f:  66 81 fa 24 50 4d 4d     cmpl     $0x4d4d5024, %edx
0x000c3ca6:  0f 85 e8 00              jne      0xc3d92

----------------
IN: 
0x000c3caa:  26 67 8a 50 05           movb     %es:5(%eax), %dl
0x000c3caf:  66 0f b6 fa              movzbl   %dl, %edi
0x000c3cb3:  67 66 89 7d f0           movl     %edi, -0x10(%ebp)
0x000c3cb8:  66 31 c9                 xorl     %ecx, %ecx
0x000c3cbb:  66 31 d2                 xorl     %edx, %edx
0x000c3cbe:  67 66 8b 7d f0           movl     -0x10(%ebp), %edi
0x000c3cc3:  66 39 fa                 cmpl     %edi, %edx
0x000c3cc6:  73 0f                    jae      0xc3cd7

----------------
IN: 
0x000c3cc8:  26 67 8a 1c 10           movb     %es:(%eax, %edx), %bl
0x000c3ccd:  66 89 df                 movl     %ebx, %edi
0x000c3cd0:  66 01 f9                 addl     %edi, %ecx
0x000c3cd3:  66 42                    incl     %edx
0x000c3cd5:  eb e7                    jmp      0xc3cbe

----------------
IN: 
0x000c3cbe:  67 66 8b 7d f0           movl     -0x10(%ebp), %edi
0x000c3cc3:  66 39 fa                 cmpl     %edi, %edx
0x000c3cc6:  73 0f                    jae      0xc3cd7

----------------
IN: 
0x000c3cd7:  84 c9                    testb    %cl, %cl
0x000c3cd9:  0f 85 b5 00              jne      0xc3d92

----------------
IN: 
0x000c3cdd:  66 ba 00 f0 ff ff        movl     $0xfffff000, %edx
0x000c3ce3:  8e c2                    movw     %dx, %es
0x000c3ce5:  26 67 66 8b 58 07        movl     %es:7(%eax), %ebx
0x000c3ceb:  66 0f b7 c3              movzwl   %bx, %eax
0x000c3cef:  66 50                    pushl    %eax
0x000c3cf1:  66 89 d8                 movl     %ebx, %eax
0x000c3cf4:  66 c1 e8 10              shrl     $0x10, %eax
0x000c3cf8:  66 50                    pushl    %eax
0x000c3cfa:  66 68 4b 58 00 00        pushl    $0x584b
0x000c3d00:  66 68 00 02 00 00        pushl    $0x200
0x000c3d06:  66 68 52 58 00 00        pushl    $0x5852
0x000c3d0c:  50                       pushw    %ax
0x000c3d0d:  e8 27 e8                 callw    0xc2537

----------------
IN: 
0x000c26ae:  67 66 8b 03              movl     (%ebx), %eax
0x000c26b2:  84 c9                    testb    %cl, %cl
0x000c26b4:  75 06                    jne      0xc26bc

----------------
IN: 
0x000c26b6:  66 83 c3 04              addl     $4, %ebx
0x000c26ba:  eb 04                    jmp      0xc26c0

----------------
IN: 
0x000c3d10:  66 83 c4 14              addl     $0x14, %esp
0x000c3d14:  66 89 d9                 movl     %ebx, %ecx
0x000c3d17:  66 bb 20 00 00 00        movl     $0x20, %ebx
0x000c3d1d:  66 be 09 00 00 00        movl     $9, %esi
0x000c3d23:  66 51                    pushl    %ecx
0x000c3d25:  56                       pushw    %si
0x000c3d26:  66 6a ff                 pushl    $-1
0x000c3d29:  66 53                    pushl    %ebx
0x000c3d2b:  6a 00                    pushw    $0
0x000c3d2d:  67 ff 5c 24 0c           lcallw   *0xc(%esp)

----------------
IN: 
0x000fd0c0:  66 54                    pushl    %esp
0x000fd0c2:  66 0f b7 e4              movzwl   %sp, %esp
0x000fd0c6:  66 9c                    pushfl   
0x000fd0c8:  fa                       cli      
0x000fd0c9:  fc                       cld      
0x000fd0ca:  66 50                    pushl    %eax
0x000fd0cc:  66 51                    pushl    %ecx
0x000fd0ce:  66 52                    pushl    %edx
0x000fd0d0:  66 53                    pushl    %ebx
0x000fd0d2:  66 55                    pushl    %ebp
0x000fd0d4:  66 56                    pushl    %esi
0x000fd0d6:  66 57                    pushl    %edi
0x000fd0d8:  06                       pushw    %es
0x000fd0d9:  1e                       pushw    %ds
0x000fd0da:  66 8c d1                 movl     %ss, %ecx
0x000fd0dd:  8e d9                    movw     %cx, %ds
0x000fd0df:  66 c1 e1 04              shll     $4, %ecx
0x000fd0e3:  66 b8 a6 ec ff 06        movl     $0x6ffeca6, %eax
0x000fd0e9:  67 66 8d 54 0c 2c        leal     0x2c(%esp, %ecx), %edx
0x000fd0ef:  66 b9 ff ff ff ff        movl     $0xffffffff, %ecx
0x000fd0f5:  66 e8 c8 ac ff ff        calll    0xf7dc3

----------------
IN: 
0x000f7dc3:  66 55                    pushl    %ebp
0x000f7dc5:  66 57                    pushl    %edi
0x000f7dc7:  66 56                    pushl    %esi
0x000f7dc9:  66 53                    pushl    %ebx
0x000f7dcb:  66 89 c7                 movl     %eax, %edi
0x000f7dce:  66 89 d3                 movl     %edx, %ebx
0x000f7dd1:  2e 66 a1 d4 61           movl     %cs:0x61d4, %eax
0x000f7dd6:  66 85 c0                 testl    %eax, %eax
0x000f7dd9:  74 52                    je       0xf7e2d

----------------
IN: 
0x000f7ddb:  66 b8 02 00 00 00        movl     $2, %eax
0x000f7de1:  66 e8 ad ed ff ff        calll    0xf6b94

----------------
IN: 
0x000f6bf6:  8c d0                    movw     %ss, %ax
0x000f6bf8:  66 b9 00 d9 00 00        movl     $0xd900, %ecx
0x000f6bfe:  8e c1                    movw     %cx, %es
0x000f6c00:  26 a3 e0 fe              movw     %ax, %es:0xfee0
0x000f6c04:  e4 70                    inb      $0x70, %al

----------------
IN: 
0x000f7de7:  66 89 de                 movl     %ebx, %esi
0x000f7dea:  66 89 e5                 movl     %esp, %ebp
0x000f7ded:  66 8c d0                 movl     %ss, %eax
0x000f7df0:  66 c1 e0 04              shll     $4, %eax
0x000f7df4:  66 01 c4                 addl     %eax, %esp
0x000f7df7:  66 b8 b5 00 00 00        movl     $0xb5, %eax
0x000f7dfd:  66 b9 34 12 00 00        movl     $0x1234, %ecx
0x000f7e03:  66 bb 0e 7e 0f 00        movl     $0xf7e0e, %ebx
0x000f7e09:  e6 b2                    outb     %al, $0xb2

SMM: enter
EAX=000000b5 EBX=000f7e0e ECX=00001234 EDX=00006cff
ESI=00006cb4 EDI=06ffeca6 EBP=00006c74 ESP=00006c74
EIP=00007e0b EFL=00000006 [-----P-] CPL=0 II=0 A20=1 SMM=0 HLT=0
ES =d900 000d9000 ffffffff 008f9300
CS =f000 000f0000 ffffffff 008f9b00
SS =0000 00000000 ffffffff 008f9300
DS =0000 00000000 ffffffff 008f9300
FS =0000 00000000 ffffffff 008f9300
GS =0000 00000000 ffffffff 008f9300
LDT=0000 00000000 0000ffff 00008200
TR =0000 00000000 0000ffff 00008b00
GDT=     00000000 00000000
IDT=     00000000 000003ff
CR0=00000010 CR2=00000000 CR3=00000000 CR4=00000000
DR0=0000000000000000 DR1=0000000000000000 DR2=0000000000000000 DR3=0000000000000000 
DR6=00000000ffff0ff0 DR7=0000000000000400
CCS=00000000 CCD=00006c74 CCO=ADDL
EFER=0000000000000000
----------------
IN: 
0x000a8000:  8c c8                    movw     %cs, %ax
0x000a8002:  ea 66 d0 00 f0           ljmpw    $0xf000:$0xd066

----------------
IN: 
0x000ef9b2:  3c b5                    cmpb     $0xb5, %al
0x000ef9b4:  0f 85 c1 01 00 00        jne      0xefb7b

----------------
IN: 
0x000ef9ba:  81 fa 00 00 02 00        cmpl     $0x20000, %edx
0x000ef9c0:  0f 85 c9 00 00 00        jne      0xefa8f

----------------
IN: 
0x000efa8f:  81 fa 64 00 02 00        cmpl     $0x20064, %edx
0x000efa95:  0f 85 e0 00 00 00        jne      0xefb7b

----------------
IN: 
0x000efa9b:  8d 7c 24 10              leal     0x10(%esp), %edi
0x000efa9f:  8d b3 c0 ff 00 00        leal     0xffc0(%ebx), %esi
0x000efaa5:  b9 10 00 00 00           movl     $0x10, %ecx
0x000efaaa:  f3 a5                    rep movsl (%esi), %es:(%edi)

----------------
IN: 
0x000efaaa:  f3 a5                    rep movsl (%esi), %es:(%edi)

----------------
IN: 
0x000efaac:  8b 83 e0 ff 00 00        movl     0xffe0(%ebx), %eax
0x000efab2:  8b 93 e4 ff 00 00        movl     0xffe4(%ebx), %edx
0x000efab8:  89 04 24                 movl     %eax, (%esp)
0x000efabb:  89 54 24 04              movl     %edx, 4(%esp)
0x000efabf:  8b 83 f0 ff 00 00        movl     0xfff0(%ebx), %eax
0x000efac5:  3d 34 12 00 00           cmpl     $0x1234, %eax
0x000efaca:  8d 54 24 10              leal     0x10(%esp), %edx
0x000eface:  75 5f                    jne      0xefb2f

----------------
IN: 
0x000efad0:  8d 83 00 fe 00 00        leal     0xfe00(%ebx), %eax
0x000efad6:  89 44 24 0c              movl     %eax, 0xc(%esp)
0x000efada:  8d 83 00 02 00 00        leal     0x200(%ebx), %eax
0x000efae0:  b9 80 00 00 00           movl     $0x80, %ecx
0x000efae5:  89 c7                    movl     %eax, %edi
0x000efae7:  8b 74 24 0c              movl     0xc(%esp), %esi
0x000efaeb:  f3 a5                    rep movsl (%esi), %es:(%edi)

----------------
IN: 
0x000efaeb:  f3 a5                    rep movsl (%esi), %es:(%edi)

----------------
IN: 
0x000efaed:  b9 80 00 00 00           movl     $0x80, %ecx
0x000efaf2:  8b 7c 24 0c              movl     0xc(%esp), %edi
0x000efaf6:  89 de                    movl     %ebx, %esi
0x000efaf8:  f3 a5                    rep movsl (%esi), %es:(%edi)

----------------
IN: 
0x000efaf8:  f3 a5                    rep movsl (%esi), %es:(%edi)

----------------
IN: 
0x000efafa:  8d bb c0 ff 00 00        leal     0xffc0(%ebx), %edi
0x000efb00:  b9 10 00 00 00           movl     $0x10, %ecx
0x000efb05:  89 d6                    movl     %edx, %esi
0x000efb07:  f3 a5                    rep movsl (%esi), %es:(%edi)

----------------
IN: 
0x000efb07:  f3 a5                    rep movsl (%esi), %es:(%edi)

----------------
IN: 
0x000efb09:  8b 04 24                 movl     (%esp), %eax
0x000efb0c:  31 d2                    xorl     %edx, %edx
0x000efb0e:  89 83 78 ff 00 00        movl     %eax, 0xff78(%ebx)
0x000efb14:  89 93 7c ff 00 00        movl     %edx, 0xff7c(%ebx)
0x000efb1a:  b8 01 00 00 00           movl     $1, %eax
0x000efb1f:  e8 dc 93 ff ff           calll    0xe8f00

----------------
IN: 
0x000e8f00:  89 c2                    movl     %eax, %edx
0x000e8f02:  e4 92                    inb      $0x92, %al

----------------
IN: 
0x000e8f04:  88 c1                    movb     %al, %cl
0x000e8f06:  d0 e9                    shrb     $1, %cl
0x000e8f08:  83 e1 01                 andl     $1, %ecx
0x000e8f0b:  83 e2 01                 andl     $1, %edx
0x000e8f0e:  38 d1                    cmpb     %dl, %cl
0x000e8f10:  74 05                    je       0xe8f17

----------------
IN: 
0x000e8f17:  88 c8                    movb     %cl, %al
0x000e8f19:  c3                       retl     

----------------
IN: 
0x000efb24:  0f b6 c0                 movzbl   %al, %eax
0x000efb27:  89 83 00 04 00 00        movl     %eax, 0x400(%ebx)
0x000efb2d:  eb 4c                    jmp      0xefb7b

SMM: after RSM
EAX=000000b5 EBX=000f7e0e ECX=00001234 EDX=00006cff
ESI=00006cb4 EDI=06ffeca6 EBP=00006c74 ESP=00006c74
EIP=000f7e0e EFL=00000046 [---Z-P-] CPL=0 II=0 A20=1 SMM=0 HLT=0
ES =0010 00000000 ffffffff 00c09300 DPL=0 DS   [-WA]
CS =0008 00000000 ffffffff 00c09b00 DPL=0 CS32 [-RA]
SS =0010 00000000 ffffffff 00c09300 DPL=0 DS   [-WA]
DS =0010 00000000 ffffffff 00c09300 DPL=0 DS   [-WA]
FS =0010 00000000 ffffffff 00c09300 DPL=0 DS   [-WA]
GS =0010 00000000 ffffffff 00c09300 DPL=0 DS   [-WA]
LDT=0000 00000000 0000ffff 00008200 DPL=0 LDT
TR =0000 00000000 0000ffff 00008b00 DPL=0 TSS32-busy
GDT=     000f61e0 00000037
IDT=     000f621e 00000000
CR0=00000011 CR2=00000000 CR3=00000000 CR4=00000000
DR0=0000000000000000 DR1=0000000000000000 DR2=0000000000000000 DR3=0000000000000000 
DR6=00000000ffff0ff0 DR7=0000000000000400
CCS=00000044 CCD=00000000 CCO=EFLAGS
EFER=0000000000000000
----------------
IN: 
0x000f7e0e:  89 f0                    movl     %esi, %eax
0x000f7e10:  ff d7                    calll    *%edi

----------------
IN: 
0x06ffeca6:  55                       pushl    %ebp
0x06ffeca7:  57                       pushl    %edi
0x06ffeca8:  56                       pushl    %esi
0x06ffeca9:  53                       pushl    %ebx
0x06ffecaa:  83 ec 08                 subl     $8, %esp
0x06ffecad:  89 c3                    movl     %eax, %ebx
0x06ffecaf:  0f b7 00                 movzwl   (%eax), %eax
0x06ffecb2:  89 c6                    movl     %eax, %esi
0x06ffecb4:  50                       pushl    %eax
0x06ffecb5:  68 71 42 0f 00           pushl    $0xf4271
0x06ffecba:  e8 a0 cf 0e f9           calll    0xebc5f

----------------
IN: 
0x06ffecbf:  5d                       popl     %ebp
0x06ffecc0:  58                       popl     %eax
0x06ffecc1:  66 83 fe 01              cmpw     $1, %si
0x06ffecc5:  0f 84 5b 01 00 00        je       0x6ffee26

----------------
IN: 
0x06ffeccb:  66 83 fe 02              cmpw     $2, %si
0x06ffeccf:  0f 84 86 01 00 00        je       0x6ffee5b

----------------
IN: 
0x06ffecd5:  66 85 f6                 testw    %si, %si
0x06ffecd8:  0f 85 8f 01 00 00        jne      0x6ffee6d

----------------
IN: 
0x06ffecde:  8b 73 02                 movl     2(%ebx), %esi
0x06ffece1:  66 8b 53 0a              movw     0xa(%ebx), %dx
0x06ffece5:  89 d0                    movl     %edx, %eax
0x06ffece7:  66 83 e0 08              andw     $8, %ax
0x06ffeceb:  66 89 04 24              movw     %ax, (%esp)
0x06ffecef:  75 0c                    jne      0x6ffecfd

----------------
IN: 
0x06ffecfd:  bf 64 fe ff 06           movl     $0x6fffe64, %edi
0x06ffed02:  b8 68 fe ff 06           movl     $0x6fffe68, %eax
0x06ffed07:  85 f6                    testl    %esi, %esi
0x06ffed09:  75 49                    jne      0x6ffed54

----------------
IN: 
0x06ffed54:  8b 6b 06                 movl     6(%ebx), %ebp
0x06ffed57:  c1 e6 04                 shll     $4, %esi
0x06ffed5a:  85 f6                    testl    %esi, %esi
0x06ffed5c:  7e c0                    jle      0x6ffed1e

----------------
IN: 
0x06ffed5e:  b9 10 00 00 00           movl     $0x10, %ecx
0x06ffed63:  f6 c2 04                 testb    $4, %dl
0x06ffed66:  74 16                    je       0x6ffed7e

----------------
IN: 
0x06ffed7e:  83 e2 03                 andl     $3, %edx
0x06ffed81:  66 83 fa 02              cmpw     $2, %dx
0x06ffed85:  74 0e                    je       0x6ffed95

----------------
IN: 
0x06ffed87:  66 83 fa 03              cmpw     $3, %dx
0x06ffed8b:  74 52                    je       0x6ffeddf

----------------
IN: 
0x06ffed8d:  66 4a                    decw     %dx
0x06ffed8f:  89 f2                    movl     %esi, %edx
0x06ffed91:  74 63                    je       0x6ffedf6

----------------
IN: 
0x06ffedf6:  e8 19 ef fe ff           calll    0x6fedd14

----------------
IN: 
0x06ffedfb:  89 c3                    movl     %eax, %ebx
0x06ffedfd:  85 c0                    testl    %eax, %eax
0x06ffedff:  0f 84 19 ff ff ff        je       0x6ffed1e

----------------
IN: 
0x06ffee05:  83 fd ff                 cmpl     $-1, %ebp
0x06ffee08:  74 18                    je       0x6ffee22

----------------
IN: 
0x06ffee22:  89 d8                    movl     %ebx, %eax
0x06ffee24:  eb 4a                    jmp      0x6ffee70

----------------
IN: 
0x06ffee70:  83 c4 08                 addl     $8, %esp
0x06ffee73:  5b                       popl     %ebx
0x06ffee74:  5e                       popl     %esi
0x06ffee75:  5f                       popl     %edi
0x06ffee76:  5d                       popl     %ebp
0x06ffee77:  c3                       retl     

----------------
IN: 
0x000f7e12:  89 c6                    movl     %eax, %esi
0x000f7e14:  b8 b5 00 00 00           movl     $0xb5, %eax
0x000f7e19:  b9 78 56 00 00           movl     $0x5678, %ecx
0x000f7e1e:  bb 28 7e 00 00           movl     $0x7e28, %ebx
0x000f7e23:  e6 b2                    outb     %al, $0xb2

SMM: enter
EAX=000000b5 EBX=00007e28 ECX=00005678 EDX=06fe8cf0
ESI=000e8440 EDI=06ffeca6 EBP=00006c74 ESP=00006c74
EIP=000f7e25 EFL=00000016 [----AP-] CPL=0 II=0 A20=1 SMM=0 HLT=0
ES =0010 00000000 ffffffff 00c09300 DPL=0 DS   [-WA]
CS =0008 00000000 ffffffff 00c09b00 DPL=0 CS32 [-RA]
SS =0010 00000000 ffffffff 00c09300 DPL=0 DS   [-WA]
DS =0010 00000000 ffffffff 00c09300 DPL=0 DS   [-WA]
FS =0010 00000000 ffffffff 00c09300 DPL=0 DS   [-WA]
GS =0010 00000000 ffffffff 00c09300 DPL=0 DS   [-WA]
LDT=0000 00000000 0000ffff 00008200 DPL=0 LDT
TR =0000 00000000 0000ffff 00008b00 DPL=0 TSS32-busy
GDT=     000f61e0 00000037
IDT=     000f621e 00000000
CR0=00000011 CR2=00000000 CR3=00000000 CR4=00000000
DR0=0000000000000000 DR1=0000000000000000 DR2=0000000000000000 DR3=0000000000000000 
DR6=00000000ffff0ff0 DR7=0000000000000400
CCS=00000008 CCD=00006c60 CCO=ADDL
EFER=0000000000000000
----------------
IN: 
0x000efb2f:  3d 78 56 00 00           cmpl     $0x5678, %eax
0x000efb34:  75 45                    jne      0xefb7b

----------------
IN: 
0x000efb36:  8d 83 00 fe 00 00        leal     0xfe00(%ebx), %eax
0x000efb3c:  8d b3 00 02 00 00        leal     0x200(%ebx), %esi
0x000efb42:  b9 80 00 00 00           movl     $0x80, %ecx
0x000efb47:  89 c7                    movl     %eax, %edi
0x000efb49:  f3 a5                    rep movsl (%esi), %es:(%edi)

----------------
IN: 
0x000efb49:  f3 a5                    rep movsl (%esi), %es:(%edi)

----------------
IN: 
0x000efb4b:  8d bb c0 ff 00 00        leal     0xffc0(%ebx), %edi
0x000efb51:  b9 10 00 00 00           movl     $0x10, %ecx
0x000efb56:  89 d6                    movl     %edx, %esi
0x000efb58:  f3 a5                    rep movsl (%esi), %es:(%edi)

----------------
IN: 
0x000efb58:  f3 a5                    rep movsl (%esi), %es:(%edi)

----------------
IN: 
0x000efb5a:  83 bb 00 04 00 00 00     cmpl     $0, 0x400(%ebx)
0x000efb61:  75 07                    jne      0xefb6a

----------------
IN: 
0x000efb6a:  8b 04 24                 movl     (%esp), %eax
0x000efb6d:  31 d2                    xorl     %edx, %edx
0x000efb6f:  89 83 78 ff 00 00        movl     %eax, 0xff78(%ebx)
0x000efb75:  89 93 7c ff 00 00        movl     %edx, 0xff7c(%ebx)
0x000efb7b:  8d 65 f4                 leal     -0xc(%ebp), %esp
0x000efb7e:  5b                       popl     %ebx
0x000efb7f:  5e                       popl     %esi
0x000efb80:  5f                       popl     %edi
0x000efb81:  5d                       popl     %ebp
0x000efb82:  c3                       retl     

SMM: after RSM
EAX=000000b5 EBX=00007e28 ECX=00005678 EDX=06fe8cf0
ESI=000e8440 EDI=06ffeca6 EBP=00006c74 ESP=00006c74
EIP=00007e28 EFL=00000006 [-----P-] CPL=0 II=0 A20=1 SMM=0 HLT=0
ES =d900 000d9000 ffffffff 00809300
CS =f000 000f0000 ffffffff 00809b00
SS =0000 00000000 ffffffff 00809300
DS =0000 00000000 ffffffff 00809300
FS =0000 00000000 ffffffff 00809300
GS =0000 00000000 ffffffff 00809300
LDT=0000 00000000 0000ffff 00008200
TR =0000 00000000 0000ffff 00008b00
GDT=     00000000 00000000
IDT=     00000000 000003ff
CR0=00000010 CR2=00000000 CR3=00000000 CR4=00000000
DR0=0000000000000000 DR1=0000000000000000 DR2=0000000000000000 DR3=0000000000000000 
DR6=00000000ffff0ff0 DR7=0000000000000400
CCS=00000004 CCD=00000001 CCO=EFLAGS
EFER=0000000000000000
----------------
IN: 
0x000f7e28:  66 89 ec                 movl     %ebp, %esp
0x000f7e2b:  eb 47                    jmp      0xf7e74

----------------
IN: 
0x000f7e74:  66 e8 4a f1 ff ff        calll    0xf6fc4

----------------
IN: 
0x000f7e7a:  66 89 f0                 movl     %esi, %eax
0x000f7e7d:  66 5b                    popl     %ebx
0x000f7e7f:  66 5e                    popl     %esi
0x000f7e81:  66 5f                    popl     %edi
0x000f7e83:  66 5d                    popl     %ebp
0x000f7e85:  66 c3                    retl     

----------------
IN: 
0x000fd0fb:  67 89 44 24 1c           movw     %ax, 0x1c(%esp)
0x000fd100:  66 c1 e8 10              shrl     $0x10, %eax
0x000fd104:  67 89 44 24 14           movw     %ax, 0x14(%esp)
0x000fd109:  1f                       popw     %ds
0x000fd10a:  07                       popw     %es
0x000fd10b:  66 5f                    popl     %edi
0x000fd10d:  66 5e                    popl     %esi
0x000fd10f:  66 5d                    popl     %ebp
0x000fd111:  66 5b                    popl     %ebx
0x000fd113:  66 5a                    popl     %edx
0x000fd115:  66 59                    popl     %ecx
0x000fd117:  66 58                    popl     %eax
0x000fd119:  66 9d                    popfl    

----------------
IN: 
0x000fd11b:  66 5c                    popl     %esp
0x000fd11d:  cb                       lretw    

----------------
IN: 
0x000c3d32:  66 83 c4 10              addl     $0x10, %esp
0x000c3d36:  fa                       cli      
0x000c3d37:  fc                       cld      
0x000c3d38:  66 c1 e2 10              shll     $0x10, %edx
0x000c3d3c:  66 0f b7 c0              movzwl   %ax, %eax
0x000c3d40:  66 89 d3                 movl     %edx, %ebx
0x000c3d43:  66 09 c3                 orl      %eax, %ebx
0x000c3d46:  66 89 d8                 movl     %ebx, %eax
0x000c3d49:  9c                       pushfw   
0x000c3d4a:  66 83 c0 ff              addl     $-1, %eax
0x000c3d4e:  9d                       popfw    

----------------
IN: 
0x000c3d4f:  66 83 f8 fd              cmpl     $-3, %eax
0x000c3d53:  77 4b                    ja       0xc3da0

----------------
IN: 
0x000c3d55:  66 53                    pushl    %ebx
0x000c3d57:  66 68 90 58 00 00        pushl    $0x5890
0x000c3d5d:  50                       pushw    %ax
0x000c3d5e:  e8 d6 e7                 callw    0xc2537

----------------
IN: 
0x000c3d61:  66 58                    popl     %eax
0x000c3d63:  66 5a                    popl     %edx
0x000c3d65:  8c c8                    movw     %cs, %ax
0x000c3d67:  8e c0                    movw     %ax, %es
0x000c3d69:  66 c1 eb 04              shrl     $4, %ebx
0x000c3d6d:  26 89 1e 58 98           movw     %bx, %es:0x9858
0x000c3d72:  66 89 c2                 movl     %eax, %edx
0x000c3d75:  66 c1 e2 10              shll     $0x10, %edx
0x000c3d79:  66 b8 06 56 00 00        movl     $0x5606, %eax
0x000c3d7f:  66 0f b7 c0              movzwl   %ax, %eax
0x000c3d83:  66 09 d0                 orl      %edx, %eax
0x000c3d86:  66 31 d2                 xorl     %edx, %edx
0x000c3d89:  8e c2                    movw     %dx, %es
0x000c3d8b:  26 66 a3 40 00           movl     %eax, %es:0x40
0x000c3d90:  eb 0e                    jmp      0xc3da0

----------------
IN: 
0x000c3da0:  8c c8                    movw     %cs, %ax
0x000c3da2:  8e c0                    movw     %ax, %es
0x000c3da4:  66 b8 01 00 00 00        movl     $1, %eax
0x000c3daa:  26 66 a3 50 98           movl     %eax, %es:0x9850
0x000c3daf:  66 31 c0                 xorl     %eax, %eax
0x000c3db2:  26 a2 06 00              movb     %al, %es:6
0x000c3db6:  2e a0 02 00              movb     %cs:2, %al
0x000c3dba:  66 0f b6 d0              movzbl   %al, %edx
0x000c3dbe:  66 c1 e2 09              shll     $9, %edx
0x000c3dc2:  66 31 c0                 xorl     %eax, %eax
0x000c3dc5:  66 31 c9                 xorl     %ecx, %ecx
0x000c3dc8:  66 39 d1                 cmpl     %edx, %ecx
0x000c3dcb:  73 0b                    jae      0xc3dd8

----------------
IN: 
0x000c3dcd:  26 67 8a 19              movb     %es:(%ecx), %bl
0x000c3dd1:  66 01 d8                 addl     %ebx, %eax
0x000c3dd4:  66 41                    incl     %ecx
0x000c3dd6:  eb f0                    jmp      0xc3dc8

----------------
IN: 
0x000c3dc8:  66 39 d1                 cmpl     %edx, %ecx
0x000c3dcb:  73 0b                    jae      0xc3dd8

----------------
IN: 
0x000c3dd8:  8c ca                    movw     %cs, %dx
0x000c3dda:  8e c2                    movw     %dx, %es
0x000c3ddc:  66 f7 d8                 negl     %eax
0x000c3ddf:  26 a2 06 00              movb     %al, %es:6
0x000c3de3:  8d 66 f4                 leaw     -0xc(%bp), %sp
0x000c3de6:  66 5b                    popl     %ebx
0x000c3de8:  66 5e                    popl     %esi
0x000c3dea:  66 5f                    popl     %edi
0x000c3dec:  66 5d                    popl     %ebp
0x000c3dee:  c2 02 00                 retw     $2

----------------
IN: 
0x000c55ba:  66 89 dc                 movl     %ebx, %esp
0x000c55bd:  1f                       popw     %ds
0x000c55be:  07                       popw     %es
0x000c55bf:  66 5f                    popl     %edi
0x000c55c1:  66 5e                    popl     %esi
0x000c55c3:  66 5d                    popl     %ebp
0x000c55c5:  66 5b                    popl     %ebx
0x000c55c7:  66 5a                    popl     %edx
0x000c55c9:  66 59                    popl     %ecx
0x000c55cb:  66 58                    popl     %eax
0x000c55cd:  cb                       lretw    

----------------
IN: 
0x000edd7e:  e8 18 db ff ff           calll    0xeb89b

----------------
IN: 
0x000eb89b:  e8 85 d6 ff ff           calll    0xe8f25

----------------
IN: 
0x000eb8a0:  85 c0                    testl    %eax, %eax
0x000eb8a2:  75 05                    jne      0xeb8a9

----------------
IN: 
0x000eb8a4:  e9 c5 ff ff ff           jmp      0xeb86e

Servicing hardware INT=0x08
----------------
IN: 
0x000edd83:  83 c4 34                 addl     $0x34, %esp
0x000edd86:  5b                       popl     %ebx
0x000edd87:  5e                       popl     %esi
0x000edd88:  5f                       popl     %edi
0x000edd89:  c3                       retl     

----------------
IN: 
0x06ff4fd1:  0f b6 5b 02              movzbl   2(%ebx), %ebx
0x06ff4fd5:  c1 e3 09                 shll     $9, %ebx
0x06ff4fd8:  89 d8                    movl     %ebx, %eax
0x06ff4fda:  e8 ae 65 ff ff           calll    0x6feb58d

----------------
IN: 
0x06ff4fdf:  85 c0                    testl    %eax, %eax
0x06ff4fe1:  75 16                    jne      0x6ff4ff9

----------------
IN: 
0x06ff4ff9:  a1 40 fe ff 06           movl     0x6fffe40, %eax

----------------
IN: 
0x06ff4ffe:  8d 84 03 ff 07 00 00     leal     0x7ff(%ebx, %eax), %eax

----------------
IN: 
0x06ff5005:  25 00 f8 ff ff           andl     $0xfffff800, %eax
0x06ff500a:  a3 40 fe ff 06           movl     %eax, 0x6fffe40
0x06ff500f:  83 c4 24                 addl     $0x24, %esp
0x06ff5012:  5b                       popl     %ebx
0x06ff5013:  5e                       popl     %esi
0x06ff5014:  5f                       popl     %edi
0x06ff5015:  5d                       popl     %ebp
0x06ff5016:  c3                       retl     

----------------
IN: 
0x06ff5126:  0f b7 54 24 0a           movzwl   0xa(%esp), %edx
0x06ff512b:  81 ca 00 00 00 f0        orl      $0xf0000000, %edx
0x06ff5131:  3b 15 64 00 00 00        cmpl     0x64, %edx
0x06ff5137:  0f 95 c2                 setne    %dl
0x06ff513a:  8b 7c 24 10              movl     0x10(%esp), %edi
0x06ff513e:  39 7c 24 0c              cmpl     %edi, 0xc(%esp)
0x06ff5142:  0f 94 c1                 sete     %cl
0x06ff5145:  21 ca                    andl     %ecx, %edx
0x06ff5147:  8b 04 24                 movl     (%esp), %eax
0x06ff514a:  0b 44 24 04              orl      4(%esp), %eax
0x06ff514e:  0f 94 c1                 sete     %cl
0x06ff5151:  84 ca                    testb    %cl, %dl
0x06ff5153:  74 30                    je       0x6ff5185

----------------
IN: 
0x06ff5185:  83 c4 2c                 addl     $0x2c, %esp
0x06ff5188:  5b                       popl     %ebx
0x06ff5189:  5e                       popl     %esi
0x06ff518a:  5f                       popl     %edi
0x06ff518b:  5d                       popl     %ebp
0x06ff518c:  c3                       retl     

----------------
IN: 
0x06ffbb5d:  eb 65                    jmp      0x6ffbbc4

----------------
IN: 
0x06ffbbc4:  31 c9                    xorl     %ecx, %ecx
0x06ffbbc6:  ba 01 00 00 00           movl     $1, %edx
0x06ffbbcb:  b8 0b 38 0f 00           movl     $0xf380b, %eax
0x06ffbbd0:  e8 42 94 ff ff           calll    0x6ff5017

----------------
IN: 
0x06ff5017:  55                       pushl    %ebp
0x06ff5018:  57                       pushl    %edi
0x06ff5019:  56                       pushl    %esi
0x06ff501a:  53                       pushl    %ebx
0x06ff501b:  89 c5                    movl     %eax, %ebp
0x06ff501d:  89 d7                    movl     %edx, %edi
0x06ff501f:  89 ce                    movl     %ecx, %esi
0x06ff5021:  31 db                    xorl     %ebx, %ebx
0x06ff5023:  89 da                    movl     %ebx, %edx
0x06ff5025:  89 e8                    movl     %ebp, %eax
0x06ff5027:  e8 eb 65 ff ff           calll    0x6feb617

----------------
IN: 
0x06feb617:  57                       pushl    %edi
0x06feb618:  56                       pushl    %esi
0x06feb619:  53                       pushl    %ebx
0x06feb61a:  89 c6                    movl     %eax, %esi
0x06feb61c:  89 d3                    movl     %edx, %ebx
0x06feb61e:  e8 99 da 0f f9           calll    0xe90bc

----------------
IN: 
0x06feb623:  89 c7                    movl     %eax, %edi
0x06feb625:  85 db                    testl    %ebx, %ebx
0x06feb627:  75 1a                    jne      0x6feb643

----------------
IN: 
0x06feb629:  8b 1d 3c fe ff 06        movl     0x6fffe3c, %ebx
0x06feb62f:  85 db                    testl    %ebx, %ebx
0x06feb631:  74 14                    je       0x6feb647

----------------
IN: 
0x06feb633:  8d 53 04                 leal     4(%ebx), %edx
0x06feb636:  89 f9                    movl     %edi, %ecx
0x06feb638:  89 f0                    movl     %esi, %eax
0x06feb63a:  e8 8e da 0f f9           calll    0xe90cd

----------------
IN: 
0x06feb63f:  85 c0                    testl    %eax, %eax
0x06feb641:  74 04                    je       0x6feb647

----------------
IN: 
0x06feb643:  8b 1b                    movl     (%ebx), %ebx
0x06feb645:  eb e8                    jmp      0x6feb62f

----------------
IN: 
0x06feb62f:  85 db                    testl    %ebx, %ebx
0x06feb631:  74 14                    je       0x6feb647

----------------
IN: 
0x06feb647:  89 d8                    movl     %ebx, %eax
0x06feb649:  5b                       popl     %ebx
0x06feb64a:  5e                       popl     %esi
0x06feb64b:  5f                       popl     %edi
0x06feb64c:  c3                       retl     

----------------
IN: 
0x06ff502c:  89 c3                    movl     %eax, %ebx
0x06ff502e:  85 c0                    testl    %eax, %eax
0x06ff5030:  74 2a                    je       0x6ff505c

----------------
IN: 
0x06ff505c:  5b                       popl     %ebx
0x06ff505d:  5e                       popl     %esi
0x06ff505e:  5f                       popl     %edi
0x06ff505f:  5d                       popl     %ebp
0x06ff5060:  c3                       retl     

----------------
IN: 
0x06ffbbd5:  31 c0                    xorl     %eax, %eax
0x06ffbbd7:  e8 b1 f9 fe ff           calll    0x6feb58d

----------------
IN: 
0x06ffbbdc:  81 3d 40 fe ff 06 00 00  cmpl     $0xc0000, 0x6fffe40
0x06ffbbe4:  0c 00
0x06ffbbe6:  74 0a                    je       0x6ffbbf2

----------------
IN: 
0x06ffbbe8:  c7 05 a4 4d 0f 00 00 00  movl     $0xc0000, 0xf4da4
0x06ffbbf0:  0c 00
0x06ffbbf2:  31 d2                    xorl     %edx, %edx
0x06ffbbf4:  31 c9                    xorl     %ecx, %ecx
0x06ffbbf6:  b8 b1 0f 0f 00           movl     $0xf0fb1, %eax
0x06ffbbfb:  e8 5f 17 ff ff           calll    0x6fed35f

----------------
IN: 
0x06ffbc00:  89 c3                    movl     %eax, %ebx
0x06ffbc02:  66 85 c0                 testw    %ax, %ax
0x06ffbc05:  0f 84 a6 00 00 00        je       0x6ffbcb1

----------------
IN: 
0x06ffbcb1:  e8 dc 62 ff ff           calll    0x6ff1f92

----------------
IN: 
0x06ff1f92:  55                       pushl    %ebp
0x06ff1f93:  57                       pushl    %edi
0x06ff1f94:  56                       pushl    %esi
0x06ff1f95:  53                       pushl    %ebx
0x06ff1f96:  83 ec 68                 subl     $0x68, %esp
0x06ff1f99:  68 00 0d 0f 00           pushl    $0xf0d00
0x06ff1f9e:  e8 bc 9c 0f f9           calll    0xebc5f

----------------
IN: 
0x06ff1fa3:  b9 26 00 00 00           movl     $0x26, %ecx
0x06ff1fa8:  31 d2                    xorl     %edx, %edx
0x06ff1faa:  8d 44 24 46              leal     0x46(%esp), %eax
0x06ff1fae:  e8 a7 80 0f f9           calll    0xea05a

----------------
IN: 
0x06ff1fb3:  66 c7 44 24 62 03 00     movw     $3, 0x62(%esp)
0x06ff1fba:  e8 a8 b6 ff ff           calll    0x6fed667

----------------
IN: 
0x06fed667:  52                       pushl    %edx
0x06fed668:  66 c7 40 24 00 02        movw     $0x200, 0x24(%eax)
0x06fed66e:  89 04 24                 movl     %eax, (%esp)
0x06fed671:  e8 25 d0 0f f9           calll    0xea69b

----------------
IN: 
0x06fed676:  ba 60 d0 0f 00           movl     $0xfd060, %edx
0x06fed67b:  0f b7 d2                 movzwl   %dx, %edx
0x06fed67e:  8b 04 24                 movl     (%esp), %eax
0x06fed681:  e8 30 e5 0f f9           calll    0xebbb6

----------------
IN: 
0x000ebbb6:  66 89 50 20              movw     %dx, 0x20(%eax)
0x000ebbba:  66 c7 40 22 00 f0        movw     $0xf000, 0x22(%eax)
0x000ebbc0:  0f b7 15 e0 8e 0e 00     movzwl   0xe8ee0, %edx
0x000ebbc7:  89 d1                    movl     %edx, %ecx
0x000ebbc9:  c1 e1 04                 shll     $4, %ecx
0x000ebbcc:  29 c8                    subl     %ecx, %eax
0x000ebbce:  b9 31 82 0f 00           movl     $0xf8231, %ecx
0x000ebbd3:  e9 f4 fb ff ff           jmp      0xeb7cc

----------------
IN: 
0x000fd060:  cd 10                    int      $0x10

----------------
IN: 
0x000c5606:  fa                       cli      
0x000c5607:  fc                       cld      
0x000c5608:  1e                       pushw    %ds
0x000c5609:  66 50                    pushl    %eax
0x000c560b:  b8 40 00                 movw     $0x40, %ax
0x000c560e:  8e d8                    movw     %ax, %ds
0x000c5610:  f6 06 b9 00 40           testb    $0x40, 0xb9
0x000c5615:  0f 84 97 00              je       0xc56b0

----------------
IN: 
0x000c56b0:  66 58                    popl     %eax
0x000c56b2:  1f                       popw     %ds
0x000c56b3:  e9 18 ff                 jmp      0xc55ce

----------------
IN: 
0x000c55ce:  fa                       cli      
0x000c55cf:  fc                       cld      
0x000c55d0:  66 50                    pushl    %eax
0x000c55d2:  66 51                    pushl    %ecx
0x000c55d4:  66 52                    pushl    %edx
0x000c55d6:  66 53                    pushl    %ebx
0x000c55d8:  66 55                    pushl    %ebp
0x000c55da:  66 56                    pushl    %esi
0x000c55dc:  66 57                    pushl    %edi
0x000c55de:  06                       pushw    %es
0x000c55df:  1e                       pushw    %ds
0x000c55e0:  8c d0                    movw     %ss, %ax
0x000c55e2:  8e d8                    movw     %ax, %ds
0x000c55e4:  66 89 e3                 movl     %esp, %ebx
0x000c55e7:  66 0f b7 e4              movzwl   %sp, %esp
0x000c55eb:  66 89 e0                 movl     %esp, %eax
0x000c55ee:  50                       pushw    %ax
0x000c55ef:  e8 77 f2                 callw    0xc4869

----------------
IN: 
0x000c4869:  66 55                    pushl    %ebp
0x000c486b:  66 89 e5                 movl     %esp, %ebp
0x000c486e:  66 57                    pushl    %edi
0x000c4870:  66 56                    pushl    %esi
0x000c4872:  66 53                    pushl    %ebx
0x000c4874:  66 83 ec 08              subl     $8, %esp
0x000c4878:  66 89 c3                 movl     %eax, %ebx
0x000c487b:  67 8a 40 1d              movb     0x1d(%eax), %al
0x000c487f:  3c 0c                    cmpb     $0xc, %al
0x000c4881:  0f 84 37 03              je       0xc4bbc

----------------
IN: 
0x000c4885:  77 7f                    ja       0xc4906

----------------
IN: 
0x000c4887:  3c 06                    cmpb     $6, %al
0x000c4889:  0f 84 0c 02              je       0xc4a99

----------------
IN: 
0x000c488d:  77 4b                    ja       0xc48da

----------------
IN: 
0x000c488f:  3c 03                    cmpb     $3, %al
0x000c4891:  0f 84 62 01              je       0xc49f7

----------------
IN: 
0x000c4895:  77 0f                    ja       0xc48a6

----------------
IN: 
0x000c4897:  3c 01                    cmpb     $1, %al
0x000c4899:  0f 84 37 01              je       0xc49d4

----------------
IN: 
0x000c489d:  3c 02                    cmpb     $2, %al
0x000c489f:  0f 85 d1 00              jne      0xc4974

----------------
IN: 
0x000c4974:  67 66 0f b6 73 1c        movzbl   0x1c(%ebx), %esi
0x000c497a:  66 89 f1                 movl     %esi, %ecx
0x000c497d:  66 83 e1 7f              andl     $0x7f, %ecx
0x000c4981:  66 89 f7                 movl     %esi, %edi
0x000c4984:  66 83 e7 7f              andl     $0x7f, %edi
0x000c4988:  66 b8 40 00 00 00        movl     $0x40, %eax
0x000c498e:  8e c0                    movw     %ax, %es
0x000c4990:  26 8a 16 89 00           movb     %es:0x89, %dl
0x000c4995:  66 83 e2 0a              andl     $0xa, %edx
0x000c4999:  66 83 ca 01              orl      $1, %edx
0x000c499d:  67 80 7b 1c 00           cmpb     $0, 0x1c(%ebx)
0x000c49a2:  79 03                    jns      0xc49a7

----------------
IN: 
0x000c49a7:  b0 20                    movb     $0x20, %al
0x000c49a9:  66 83 e6 78              andl     $0x78, %esi
0x000c49ad:  75 10                    jne      0xc49bf

----------------
IN: 
0x000c49af:  80 f9 06                 cmpb     $6, %cl
0x000c49b2:  0f 94 c0                 sete     %al
0x000c49b5:  66 48                    decl     %eax
0x000c49b7:  66 83 e0 f1              andl     $0xfffffff1, %eax
0x000c49bb:  66 83 c0 3f              addl     $0x3f, %eax
0x000c49bf:  67 88 43 1c              movb     %al, 0x1c(%ebx)
0x000c49c3:  66 89 f8                 movl     %edi, %eax
0x000c49c6:  8d 66 f4                 leaw     -0xc(%bp), %sp
0x000c49c9:  66 5b                    popl     %ebx
0x000c49cb:  66 5e                    popl     %esi
0x000c49cd:  66 5f                    popl     %edi
0x000c49cf:  66 5d                    popl     %ebp
0x000c49d1:  e9 ad e7                 jmp      0xc3181

----------------
IN: 
0x000c3181:  66 55                    pushl    %ebp
0x000c3183:  66 89 e5                 movl     %esp, %ebp
0x000c3186:  66 57                    pushl    %edi
0x000c3188:  66 56                    pushl    %esi
0x000c318a:  66 53                    pushl    %ebx
0x000c318c:  66 83 ec 14              subl     $0x14, %esp
0x000c3190:  67 66 89 45 ec           movl     %eax, -0x14(%ebp)
0x000c3195:  67 66 89 55 f0           movl     %edx, -0x10(%ebp)
0x000c319a:  66 50                    pushl    %eax
0x000c319c:  66 68 6e 57 00 00        pushl    $0x576e
0x000c31a2:  50                       pushw    %ax
0x000c31a3:  e8 91 f3                 callw    0xc2537

----------------
IN: 
0x000c31a6:  66 5a                    popl     %edx
0x000c31a8:  66 59                    popl     %ecx
0x000c31aa:  67 66 8b 45 ec           movl     -0x14(%ebp), %eax
0x000c31af:  50                       pushw    %ax
0x000c31b0:  e8 6c f9                 callw    0xc2b1f

----------------
IN: 
0x000c2b1f:  66 55                    pushl    %ebp
0x000c2b21:  66 89 e5                 movl     %esp, %ebp
0x000c2b24:  66 53                    pushl    %ebx
0x000c2b26:  66 89 c1                 movl     %eax, %ecx
0x000c2b29:  2e 66 8b 16 a4 5a        movl     %cs:0x5aa4, %edx
0x000c2b2f:  2e 66 a1 a0 5a           movl     %cs:0x5aa0, %eax
0x000c2b34:  66 85 c0                 testl    %eax, %eax
0x000c2b37:  74 2f                    je       0xc2b68

----------------
IN: 
0x000c2b39:  66 6b d2 0e              imull    $0xe, %edx, %edx
0x000c2b3d:  66 81 c2 c0 5a 00 00     addl     $0x5ac0, %edx
0x000c2b44:  66 b8 c0 5a 00 00        movl     $0x5ac0, %eax
0x000c2b4a:  66 39 d0                 cmpl     %edx, %eax
0x000c2b4d:  73 19                    jae      0xc2b68

----------------
IN: 
0x000c2b4f:  2e 67 8b 18              movw     %cs:(%eax), %bx
0x000c2b53:  66 0f b7 db              movzwl   %bx, %ebx
0x000c2b57:  66 39 d9                 cmpl     %ebx, %ecx
0x000c2b5a:  75 06                    jne      0xc2b62

----------------
IN: 
0x000c2b62:  66 83 c0 0e              addl     $0xe, %eax
0x000c2b66:  eb e2                    jmp      0xc2b4a

----------------
IN: 
0x000c2b4a:  66 39 d0                 cmpl     %edx, %eax
0x000c2b4d:  73 19                    jae      0xc2b68

----------------
IN: 
0x000c2b68:  66 31 c0                 xorl     %eax, %eax
0x000c2b6b:  2e 67 8b 90 c0 66 00 00  movw     %cs:0x66c0(%eax), %dx
0x000c2b73:  66 0f b7 d2              movzwl   %dx, %edx
0x000c2b77:  66 39 d1                 cmpl     %edx, %ecx
0x000c2b7a:  75 08                    jne      0xc2b84

----------------
IN: 
0x000c2b84:  66 83 c0 2c              addl     $0x2c, %eax
0x000c2b88:  66 3d c0 02 00 00        cmpl     $0x2c0, %eax
0x000c2b8e:  75 db                    jne      0xc2b6b

----------------
IN: 
0x000c2b6b:  2e 67 8b 90 c0 66 00 00  movw     %cs:0x66c0(%eax), %dx
0x000c2b73:  66 0f b7 d2              movzwl   %dx, %edx
0x000c2b77:  66 39 d1                 cmpl     %edx, %ecx
0x000c2b7a:  75 08                    jne      0xc2b84

----------------
IN: 
0x000c2b7c:  66 05 c2 66 00 00        addl     $0x66c2, %eax
0x000c2b82:  eb 0f                    jmp      0xc2b93

----------------
IN: 
0x000c2b93:  66 5b                    popl     %ebx
0x000c2b95:  66 5d                    popl     %ebp
0x000c2b97:  c2 02 00                 retw     $2

----------------
IN: 
0x000c31b3:  66 85 c0                 testl    %eax, %eax
0x000c31b6:  0f 84 5a 04              je       0xc3614

----------------
IN: 
0x000c31ba:  66 89 c6                 movl     %eax, %esi
0x000c31bd:  2e 66 a1 a0 5a           movl     %cs:0x5aa0, %eax
0x000c31c2:  66 85 c0                 testl    %eax, %eax
0x000c31c5:  74 17                    je       0xc31de

----------------
IN: 
0x000c31c7:  66 b8 04 00 00 00        movl     $4, %eax
0x000c31cd:  66 ba ce 01 00 00        movl     $0x1ce, %edx
0x000c31d3:  ef                       outw     %ax, %dx

----------------
IN: 
0x000c31d4:  66 31 c0                 xorl     %eax, %eax
0x000c31d7:  66 ba cf 01 00 00        movl     $0x1cf, %edx
0x000c31dd:  ef                       outw     %ax, %dx

----------------
IN: 
0x000c31de:  2e 66 a1 a4 5a           movl     %cs:0x5aa4, %eax
0x000c31e3:  66 81 fe c2 5a 00 00     cmpl     $0x5ac2, %esi
0x000c31ea:  72 21                    jb       0xc320d

----------------
IN: 
0x000c31ec:  66 6b c0 0e              imull    $0xe, %eax, %eax
0x000c31f0:  66 05 b4 5a 00 00        addl     $0x5ab4, %eax
0x000c31f6:  66 39 f0                 cmpl     %esi, %eax
0x000c31f9:  72 12                    jb       0xc320d

----------------
IN: 
0x000c320d:  67 66 8b 55 f0           movl     -0x10(%ebp), %edx
0x000c3212:  66 89 f0                 movl     %esi, %eax
0x000c3215:  50                       pushw    %ax
0x000c3216:  e8 dc f6                 callw    0xc28f5

----------------
IN: 
0x000c28f5:  66 55                    pushl    %ebp
0x000c28f7:  66 89 e5                 movl     %esp, %ebp
0x000c28fa:  66 57                    pushl    %edi
0x000c28fc:  66 56                    pushl    %esi
0x000c28fe:  66 53                    pushl    %ebx
0x000c2900:  66 51                    pushl    %ecx
0x000c2902:  67 66 89 55 f0           movl     %edx, -0x10(%ebp)
0x000c2907:  66 3d 56 69 00 00        cmpl     $0x6956, %eax
0x000c290d:  77 4e                    ja       0xc295d

----------------
IN: 
0x000c290f:  66 89 c3                 movl     %eax, %ebx
0x000c2912:  66 3d c2 66 00 00        cmpl     $0x66c2, %eax
0x000c2918:  72 43                    jb       0xc295d

----------------
IN: 
0x000c291a:  80 e2 08                 andb     $8, %dl
0x000c291d:  0f 85 96 00              jne      0xc29b7

----------------
IN: 
0x000c2921:  2e 67 8a 40 0c           movb     %cs:0xc(%eax), %al
0x000c2926:  66 ba c6 03 00 00        movl     $0x3c6, %edx
0x000c292c:  ee                       outb     %al, %dx

----------------
IN: 
0x000c292d:  2e 67 66 8b 7b 0e        movl     %cs:0xe(%ebx), %edi
0x000c2933:  2e 67 8b 43 12           movw     %cs:0x12(%ebx), %ax
0x000c2938:  66 b9 03 00 00 00        movl     $3, %ecx
0x000c293e:  66 31 d2                 xorl     %edx, %edx
0x000c2941:  f7 f1                    divw     %cx
0x000c2943:  66 0f b7 f0              movzwl   %ax, %esi
0x000c2947:  8c c8                    movw     %cs, %ax
0x000c2949:  66 0f b7 c0              movzwl   %ax, %eax
0x000c294d:  66 56                    pushl    %esi
0x000c294f:  66 31 c9                 xorl     %ecx, %ecx
0x000c2952:  66 89 fa                 movl     %edi, %edx
0x000c2955:  50                       pushw    %ax
0x000c2956:  e8 49 e3                 callw    0xc0ca2

----------------
IN: 
0x000c0ca2:  66 55                    pushl    %ebp
0x000c0ca4:  66 89 e5                 movl     %esp, %ebp
0x000c0ca7:  66 57                    pushl    %edi
0x000c0ca9:  66 56                    pushl    %esi
0x000c0cab:  66 53                    pushl    %ebx
0x000c0cad:  66 89 d3                 movl     %edx, %ebx
0x000c0cb0:  67 66 8b 75 08           movl     8(%ebp), %esi
0x000c0cb5:  66 89 c7                 movl     %eax, %edi
0x000c0cb8:  66 ba c8 03 00 00        movl     $0x3c8, %edx
0x000c0cbe:  88 c8                    movb     %cl, %al
0x000c0cc0:  ee                       outb     %al, %dx

----------------
IN: 
0x000c0cc1:  66 ba c9 03 00 00        movl     $0x3c9, %edx
0x000c0cc7:  66 85 f6                 testl    %esi, %esi
0x000c0cca:  74 1b                    je       0xc0ce7

----------------
IN: 
0x000c0ccc:  8e c7                    movw     %di, %es
0x000c0cce:  26 67 8a 03              movb     %es:(%ebx), %al
0x000c0cd2:  ee                       outb     %al, %dx

----------------
IN: 
0x000c0cd3:  26 67 8a 43 01           movb     %es:1(%ebx), %al
0x000c0cd8:  ee                       outb     %al, %dx

----------------
IN: 
0x000c0cd9:  26 67 8a 43 02           movb     %es:2(%ebx), %al
0x000c0cde:  ee                       outb     %al, %dx

----------------
IN: 
0x000c0cdf:  66 83 c3 03              addl     $3, %ebx
0x000c0ce3:  66 4e                    decl     %esi
0x000c0ce5:  eb e0                    jmp      0xc0cc7

----------------
IN: 
0x000c0cc7:  66 85 f6                 testl    %esi, %esi
0x000c0cca:  74 1b                    je       0xc0ce7

----------------
IN: 
0x000c0ce7:  66 5b                    popl     %ebx
0x000c0ce9:  66 5e                    popl     %esi
0x000c0ceb:  66 5f                    popl     %edi
0x000c0ced:  66 5d                    popl     %ebp
0x000c0cef:  c2 02 00                 retw     $2

----------------
IN: 
0x000c2959:  66 5a                    popl     %edx
0x000c295b:  eb 21                    jmp      0xc297e

----------------
IN: 
0x000c297e:  66 81 fe ff 00 00 00     cmpl     $0xff, %esi
0x000c2985:  7f 1c                    jg       0xc29a3

----------------
IN: 
0x000c2987:  8c c8                    movw     %cs, %ax
0x000c2989:  66 0f b7 c0              movzwl   %ax, %eax
0x000c298d:  66 6a 01                 pushl    $1
0x000c2990:  66 89 f1                 movl     %esi, %ecx
0x000c2993:  66 ba 3c 5f 00 00        movl     $0x5f3c, %edx
0x000c2999:  50                       pushw    %ax
0x000c299a:  e8 05 e3                 callw    0xc0ca2

----------------
IN: 
0x000c299d:  66 58                    popl     %eax
0x000c299f:  66 46                    incl     %esi
0x000c29a1:  eb db                    jmp      0xc297e

----------------
IN: 
0x000c29a3:  67 f6 45 f0 02           testb    $2, -0x10(%ebp)
0x000c29a8:  74 0d                    je       0xc29b7

----------------
IN: 
0x000c29b7:  2e 67 66 8b 7b 22        movl     %cs:0x22(%ebx), %edi
0x000c29bd:  66 31 f6                 xorl     %esi, %esi
0x000c29c0:  2e 67 8a 14 37           movb     %cs:(%edi, %esi), %dl
0x000c29c5:  66 0f b6 d2              movzbl   %dl, %edx
0x000c29c9:  66 89 f0                 movl     %esi, %eax
0x000c29cc:  50                       pushw    %ax
0x000c29cd:  e8 ac e1                 callw    0xc0b7c

----------------
IN: 
0x000c0b7c:  66 55                    pushl    %ebp
0x000c0b7e:  66 89 e5                 movl     %esp, %ebp
0x000c0b81:  66 56                    pushl    %esi
0x000c0b83:  66 53                    pushl    %ebx
0x000c0b85:  88 c3                    movb     %al, %bl
0x000c0b87:  88 d1                    movb     %dl, %cl
0x000c0b89:  66 ba da 03 00 00        movl     $0x3da, %edx
0x000c0b8f:  ec                       inb      %dx, %al

----------------
IN: 
0x000c0b90:  66 ba c0 03 00 00        movl     $0x3c0, %edx
0x000c0b96:  ec                       inb      %dx, %al

----------------
IN: 
0x000c0b97:  66 89 c6                 movl     %eax, %esi
0x000c0b9a:  88 d8                    movb     %bl, %al
0x000c0b9c:  ee                       outb     %al, %dx

----------------
IN: 
0x000c0b9d:  88 c8                    movb     %cl, %al
0x000c0b9f:  ee                       outb     %al, %dx

----------------
IN: 
0x000c0ba0:  66 89 f0                 movl     %esi, %eax
0x000c0ba3:  ee                       outb     %al, %dx

----------------
IN: 
0x000c0ba4:  66 5b                    popl     %ebx
0x000c0ba6:  66 5e                    popl     %esi
0x000c0ba8:  66 5d                    popl     %ebp
0x000c0baa:  c2 02 00                 retw     $2

----------------
IN: 
0x000c29d0:  66 46                    incl     %esi
0x000c29d2:  66 83 fe 14              cmpl     $0x14, %esi
0x000c29d6:  75 e8                    jne      0xc29c0

----------------
IN: 
0x000c29c0:  2e 67 8a 14 37           movb     %cs:(%edi, %esi), %dl
0x000c29c5:  66 0f b6 d2              movzbl   %dl, %edx
0x000c29c9:  66 89 f0                 movl     %esi, %eax
0x000c29cc:  50                       pushw    %ax
0x000c29cd:  e8 ac e1                 callw    0xc0b7c

----------------
IN: 
0x000c29d8:  66 31 d2                 xorl     %edx, %edx
0x000c29db:  66 b8 14 00 00 00        movl     $0x14, %eax
0x000c29e1:  50                       pushw    %ax
0x000c29e2:  e8 97 e1                 callw    0xc0b7c

----------------
IN: 
0x000c29e5:  66 b8 00 03 00 00        movl     $0x300, %eax
0x000c29eb:  66 ba c4 03 00 00        movl     $0x3c4, %edx
0x000c29f1:  ef                       outw     %ax, %dx

----------------
IN: 
0x000c29f2:  2e 67 66 8b 73 16        movl     %cs:0x16(%ebx), %esi
0x000c29f8:  66 b9 01 00 00 00        movl     $1, %ecx
0x000c29fe:  2e 67 8a 44 0e ff        movb     %cs:-1(%esi, %ecx), %al
0x000c2a04:  66 c1 e0 08              shll     $8, %eax
0x000c2a08:  66 09 c8                 orl      %ecx, %eax
0x000c2a0b:  ef                       outw     %ax, %dx

----------------
IN: 
0x000c2a0c:  66 41                    incl     %ecx
0x000c2a0e:  66 83 f9 05              cmpl     $5, %ecx
0x000c2a12:  75 ea                    jne      0xc29fe

----------------
IN: 
0x000c29fe:  2e 67 8a 44 0e ff        movb     %cs:-1(%esi, %ecx), %al
0x000c2a04:  66 c1 e0 08              shll     $8, %eax
0x000c2a08:  66 09 c8                 orl      %ecx, %eax
0x000c2a0b:  ef                       outw     %ax, %dx

----------------
IN: 
0x000c2a14:  2e 67 66 8b 73 26        movl     %cs:0x26(%ebx), %esi
0x000c2a1a:  66 31 c9                 xorl     %ecx, %ecx
0x000c2a1d:  66 ba ce 03 00 00        movl     $0x3ce, %edx
0x000c2a23:  2e 67 8a 04 0e           movb     %cs:(%esi, %ecx), %al
0x000c2a28:  66 c1 e0 08              shll     $8, %eax
0x000c2a2c:  66 09 c8                 orl      %ecx, %eax
0x000c2a2f:  ef                       outw     %ax, %dx

----------------
IN: 
0x000c2a30:  66 41                    incl     %ecx
0x000c2a32:  66 83 f9 09              cmpl     $9, %ecx
0x000c2a36:  75 eb                    jne      0xc2a23

----------------
IN: 
0x000c2a23:  2e 67 8a 04 0e           movb     %cs:(%esi, %ecx), %al
0x000c2a28:  66 c1 e0 08              shll     $8, %eax
0x000c2a2c:  66 09 c8                 orl      %ecx, %eax
0x000c2a2f:  ef                       outw     %ax, %dx

----------------
IN: 
0x000c2a38:  2e 67 8a 43 1a           movb     %cs:0x1a(%ebx), %al
0x000c2a3d:  66 89 c6                 movl     %eax, %esi
0x000c2a40:  66 ba b4 03 00 00        movl     $0x3b4, %edx
0x000c2a46:  a8 01                    testb    $1, %al
0x000c2a48:  74 06                    je       0xc2a50

----------------
IN: 
0x000c2a4a:  66 ba d4 03 00 00        movl     $0x3d4, %edx
0x000c2a50:  66 b8 11 00 00 00        movl     $0x11, %eax
0x000c2a56:  ef                       outw     %ax, %dx

----------------
IN: 
0x000c2a57:  2e 67 66 8b 7b 1e        movl     %cs:0x1e(%ebx), %edi
0x000c2a5d:  66 31 c9                 xorl     %ecx, %ecx
0x000c2a60:  2e 67 8a 04 0f           movb     %cs:(%edi, %ecx), %al
0x000c2a65:  66 c1 e0 08              shll     $8, %eax
0x000c2a69:  66 09 c8                 orl      %ecx, %eax
0x000c2a6c:  ef                       outw     %ax, %dx

----------------
IN: 
0x000c2a6d:  66 41                    incl     %ecx
0x000c2a6f:  66 83 f9 19              cmpl     $0x19, %ecx
0x000c2a73:  75 eb                    jne      0xc2a60

----------------
IN: 
0x000c2a60:  2e 67 8a 04 0f           movb     %cs:(%edi, %ecx), %al
0x000c2a65:  66 c1 e0 08              shll     $8, %eax
0x000c2a69:  66 09 c8                 orl      %ecx, %eax
0x000c2a6c:  ef                       outw     %ax, %dx

----------------
IN: 
0x000c2a75:  66 ba c2 03 00 00        movl     $0x3c2, %edx
0x000c2a7b:  66 89 f0                 movl     %esi, %eax
0x000c2a7e:  ee                       outb     %al, %dx

----------------
IN: 
0x000c2a7f:  66 ba da 03 00 00        movl     $0x3da, %edx
0x000c2a85:  ec                       inb      %dx, %al

----------------
IN: 
0x000c2a86:  b0 20                    movb     $0x20, %al
0x000c2a88:  66 ba c0 03 00 00        movl     $0x3c0, %edx
0x000c2a8e:  ee                       outb     %al, %dx

----------------
IN: 
0x000c2a8f:  67 66 8b 7d f0           movl     -0x10(%ebp), %edi
0x000c2a94:  66 81 e7 00 80 00 00     andl     $0x8000, %edi
0x000c2a9b:  75 42                    jne      0xc2adf

----------------
IN: 
0x000c2a9d:  2e 67 8a 03              movb     %cs:(%ebx), %al
0x000c2aa1:  84 c0                    testb    %al, %al
0x000c2aa3:  74 13                    je       0xc2ab8

----------------
IN: 
0x000c2ab8:  2e 67 8b 43 0a           movw     %cs:0xa(%ebx), %ax
0x000c2abd:  8e c0                    movw     %ax, %es
0x000c2abf:  66 b9 00 40 00 00        movl     $0x4000, %ecx
0x000c2ac5:  66 b8 20 07 00 00        movl     $0x720, %eax
0x000c2acb:  eb 10                    jmp      0xc2add

----------------
IN: 
0x000c2add:  f3 ab                    rep stosw %ax, %es:(%di)

----------------
IN: 
0x000c2add:  f3 ab                    rep stosw %ax, %es:(%di)

----------------
IN: 
0x000c2adf:  2e 67 8a 03              movb     %cs:(%ebx), %al
0x000c2ae3:  84 c0                    testb    %al, %al
0x000c2ae5:  74 05                    je       0xc2aec

----------------
IN: 
0x000c2aec:  8c c8                    movw     %cs, %ax
0x000c2aee:  66 0f b7 c0              movzwl   %ax, %eax
0x000c2af2:  66 6a 10                 pushl    $0x10
0x000c2af5:  66 6a 00                 pushl    $0
0x000c2af8:  66 6a 00                 pushl    $0
0x000c2afb:  66 b9 00 01 00 00        movl     $0x100, %ecx
0x000c2b01:  66 ba 40 72 00 00        movl     $0x7240, %edx
0x000c2b07:  50                       pushw    %ax
0x000c2b08:  e8 bc dc                 callw    0xc07c7

----------------
IN: 
0x000c07c7:  66 55                    pushl    %ebp
0x000c07c9:  66 89 e5                 movl     %esp, %ebp
0x000c07cc:  66 57                    pushl    %edi
0x000c07ce:  66 56                    pushl    %esi
0x000c07d0:  66 53                    pushl    %ebx
0x000c07d2:  66 83 ec 10              subl     $0x10, %esp
0x000c07d6:  66 89 d3                 movl     %edx, %ebx
0x000c07d9:  67 66 8b 75 0c           movl     0xc(%ebp), %esi
0x000c07de:  67 89 45 f0              movw     %ax, -0x10(%ebp)
0x000c07e2:  67 89 4d e6              movw     %cx, -0x1a(%ebp)
0x000c07e6:  66 ba c4 03 00 00        movl     $0x3c4, %edx
0x000c07ec:  66 b8 00 01 00 00        movl     $0x100, %eax
0x000c07f2:  ef                       outw     %ax, %dx

----------------
IN: 
0x000c07f3:  66 b8 02 04 00 00        movl     $0x402, %eax
0x000c07f9:  ef                       outw     %ax, %dx

----------------
IN: 
0x000c07fa:  66 b8 04 07 00 00        movl     $0x704, %eax
0x000c0800:  ef                       outw     %ax, %dx

----------------
IN: 
0x000c0801:  66 b8 00 03 00 00        movl     $0x300, %eax
0x000c0807:  ef                       outw     %ax, %dx

----------------
IN: 
0x000c0808:  66 ba ce 03 00 00        movl     $0x3ce, %edx
0x000c080e:  66 b8 04 02 00 00        movl     $0x204, %eax
0x000c0814:  ef                       outw     %ax, %dx

----------------
IN: 
0x000c0815:  66 b8 05 00 00 00        movl     $5, %eax
0x000c081b:  ef                       outw     %ax, %dx

----------------
IN: 
0x000c081c:  66 b8 06 04 00 00        movl     $0x406, %eax
0x000c0822:  ef                       outw     %ax, %dx

----------------
IN: 
0x000c0823:  67 66 0f b6 45 10        movzbl   0x10(%ebp), %eax
0x000c0829:  67 66 89 45 ec           movl     %eax, -0x14(%ebp)
0x000c082e:  66 89 f0                 movl     %esi, %eax
0x000c0831:  66 c1 e0 0b              shll     $0xb, %eax
0x000c0835:  25 00 20                 andw     $0x2000, %ax
0x000c0838:  66 89 f1                 movl     %esi, %ecx
0x000c083b:  66 c1 e1 0e              shll     $0xe, %ecx
0x000c083f:  66 01 c1                 addl     %eax, %ecx
0x000c0842:  66 0f b7 c9              movzwl   %cx, %ecx
0x000c0846:  67 66 0f b7 45 08        movzwl   8(%ebp), %eax
0x000c084c:  66 c1 e0 05              shll     $5, %eax
0x000c0850:  66 01 c8                 addl     %ecx, %eax
0x000c0853:  67 66 89 45 e8           movl     %eax, -0x18(%ebp)
0x000c0858:  67 c7 45 f2 00 00        movw     $0, -0xe(%ebp)
0x000c085e:  67 8b 7d e6              movw     -0x1a(%ebp), %di
0x000c0862:  67 39 7d f2              cmpw     %di, -0xe(%ebp)
0x000c0866:  74 36                    je       0xc089e

----------------
IN: 
0x000c0868:  66 be 00 a0 ff ff        movl     $0xffffa000, %esi
0x000c086e:  8e c6                    movw     %si, %es
0x000c0870:  67 66 8b 4d ec           movl     -0x14(%ebp), %ecx
0x000c0875:  66 89 de                 movl     %ebx, %esi
0x000c0878:  67 66 8b 7d e8           movl     -0x18(%ebp), %edi
0x000c087d:  67 66 8b 45 f0           movl     -0x10(%ebp), %eax
0x000c0882:  8c da                    movw     %ds, %dx
0x000c0884:  8e d8                    movw     %ax, %ds
0x000c0886:  f3 a4                    rep movsb (%si), %es:(%di)

----------------
IN: 
0x000c0886:  f3 a4                    rep movsb (%si), %es:(%di)

----------------
IN: 
0x000c0886:  f3 a4                    rep movsb (%si), %es:(%di)

----------------
IN: 
0x000c0888:  8e da                    movw     %dx, %ds
0x000c088a:  67 ff 45 f2              incw     -0xe(%ebp)
0x000c088e:  67 66 8b 45 ec           movl     -0x14(%ebp), %eax
0x000c0893:  66 01 c3                 addl     %eax, %ebx
0x000c0896:  67 66 83 45 e8 20        addl     $0x20, -0x18(%ebp)
0x000c089c:  eb c0                    jmp      0xc085e

----------------
IN: 
0x000c085e:  67 8b 7d e6              movw     -0x1a(%ebp), %di
0x000c0862:  67 39 7d f2              cmpw     %di, -0xe(%ebp)
0x000c0866:  74 36                    je       0xc089e

----------------
IN: 
0x000c089e:  66 ba c4 03 00 00        movl     $0x3c4, %edx
0x000c08a4:  66 b8 00 01 00 00        movl     $0x100, %eax
0x000c08aa:  ef                       outw     %ax, %dx

----------------
IN: 
0x000c08ab:  66 b8 02 03 00 00        movl     $0x302, %eax
0x000c08b1:  ef                       outw     %ax, %dx

----------------
IN: 
0x000c08b2:  66 b8 04 03 00 00        movl     $0x304, %eax
0x000c08b8:  ef                       outw     %ax, %dx

----------------
IN: 
0x000c08b9:  66 b8 00 03 00 00        movl     $0x300, %eax
0x000c08bf:  ef                       outw     %ax, %dx

----------------
IN: 
0x000c08c0:  66 ba cc 03 00 00        movl     $0x3cc, %edx
0x000c08c6:  ec                       inb      %dx, %al

----------------
IN: 
0x000c08c7:  66 ba 0a 00 00 00        movl     $0xa, %edx
0x000c08cd:  a8 01                    testb    $1, %al
0x000c08cf:  74 06                    je       0xc08d7

----------------
IN: 
0x000c08d1:  66 ba 0e 00 00 00        movl     $0xe, %edx
0x000c08d7:  66 89 d0                 movl     %edx, %eax
0x000c08da:  66 c1 e0 08              shll     $8, %eax
0x000c08de:  66 83 c8 06              orl      $6, %eax
0x000c08e2:  66 ba ce 03 00 00        movl     $0x3ce, %edx
0x000c08e8:  ef                       outw     %ax, %dx

----------------
IN: 
0x000c08e9:  66 b8 04 00 00 00        movl     $4, %eax
0x000c08ef:  ef                       outw     %ax, %dx

----------------
IN: 
0x000c08f0:  66 b8 05 10 00 00        movl     $0x1005, %eax
0x000c08f6:  ef                       outw     %ax, %dx

----------------
IN: 
0x000c08f7:  66 83 c4 10              addl     $0x10, %esp
0x000c08fb:  66 5b                    popl     %ebx
0x000c08fd:  66 5e                    popl     %esi
0x000c08ff:  66 5f                    popl     %edi
0x000c0901:  66 5d                    popl     %ebp
0x000c0903:  c2 02 00                 retw     $2

----------------
IN: 
0x000c2b0b:  66 83 c4 0c              addl     $0xc, %esp
0x000c2b0f:  eb d6                    jmp      0xc2ae7

----------------
IN: 
0x000c2ae7:  66 31 c0                 xorl     %eax, %eax
0x000c2aea:  eb 25                    jmp      0xc2b11

----------------
IN: 
0x000c2b11:  8d 66 f4                 leaw     -0xc(%bp), %sp
0x000c2b14:  66 5b                    popl     %ebx
0x000c2b16:  66 5e                    popl     %esi
0x000c2b18:  66 5f                    popl     %edi
0x000c2b1a:  66 5d                    popl     %ebp
0x000c2b1c:  c2 02 00                 retw     $2

----------------
IN: 
0x000c3219:  66 85 c0                 testl    %eax, %eax
0x000c321c:  0f 85 fa 03              jne      0xc361a

----------------
IN: 
0x000c3220:  e9 1a 02                 jmp      0xc343d

----------------
IN: 
0x000c343d:  2e 67 8b 7e 02           movw     %cs:2(%esi), %di
0x000c3442:  66 0f b7 c7              movzwl   %di, %eax
0x000c3446:  67 66 89 45 e4           movl     %eax, -0x1c(%ebp)
0x000c344b:  2e 67 8b 46 04           movw     %cs:4(%esi), %ax
0x000c3450:  67 89 45 e2              movw     %ax, -0x1e(%ebp)
0x000c3454:  66 0f b7 c0              movzwl   %ax, %eax
0x000c3458:  67 66 89 45 e8           movl     %eax, -0x18(%ebp)
0x000c345d:  2e 67 8a 06              movb     %cs:(%esi), %al
0x000c3461:  67 88 45 e1              movb     %al, -0x1f(%ebp)
0x000c3465:  2e 67 8a 5e 08           movb     %cs:8(%esi), %bl
0x000c346a:  66 b8 40 00 00 00        movl     $0x40, %eax
0x000c3470:  67 66 81 7d ec ff 00 00  cmpl     $0xff, -0x14(%ebp)
0x000c3478:  00
0x000c3479:  7f 08                    jg       0xc3483

----------------
IN: 
0x000c347b:  8e c0                    movw     %ax, %es
0x000c347d:  67 8a 45 ec              movb     -0x14(%ebp), %al
0x000c3481:  eb 04                    jmp      0xc3487

----------------
IN: 
0x000c3487:  26 a2 49 00              movb     %al, %es:0x49
0x000c348b:  66 b9 40 00 00 00        movl     $0x40, %ecx
0x000c3491:  8e c1                    movw     %cx, %es
0x000c3493:  67 66 8b 45 f0           movl     -0x10(%ebp), %eax
0x000c3498:  25 00 fe                 andw     $0xfe00, %ax
0x000c349b:  67 66 0b 45 ec           orl      -0x14(%ebp), %eax
0x000c34a0:  26 a3 ba 00              movw     %ax, %es:0xba
0x000c34a4:  8e c1                    movw     %cx, %es
0x000c34a6:  26 89 36 bc 00           movw     %si, %es:0xbc
0x000c34ab:  8e c1                    movw     %cx, %es
0x000c34ad:  26 8a 16 b9 00           movb     %es:0xb9, %dl
0x000c34b2:  67 8a 45 f0              movb     -0x10(%ebp), %al
0x000c34b6:  66 c1 e0 06              shll     $6, %eax
0x000c34ba:  66 83 e0 40              andl     $0x40, %eax
0x000c34be:  66 83 e2 bf              andl     $0xffffffbf, %edx
0x000c34c2:  66 09 d0                 orl      %edx, %eax
0x000c34c5:  26 a2 b9 00              movb     %al, %es:0xb9
0x000c34c9:  67 80 7d e1 00           cmpb     $0, -0x1f(%ebp)
0x000c34ce:  75 1d                    jne      0xc34ed

----------------
IN: 
0x000c34d0:  8e c1                    movw     %cx, %es
0x000c34d2:  26 89 3e 4a 00           movw     %di, %es:0x4a
0x000c34d7:  8e c1                    movw     %cx, %es
0x000c34d9:  67 8a 45 e2              movb     -0x1e(%ebp), %al
0x000c34dd:  66 48                    decl     %eax
0x000c34df:  26 a2 84 00              movb     %al, %es:0x84
0x000c34e3:  8e c1                    movw     %cx, %es
0x000c34e5:  66 b8 07 06 00 00        movl     $0x607, %eax
0x000c34eb:  eb 34                    jmp      0xc3521

----------------
IN: 
0x000c3521:  26 a3 60 00              movw     %ax, %es:0x60
0x000c3525:  67 66 0f b6 45 e1        movzbl   -0x1f(%ebp), %eax
0x000c352b:  67 66 8b 4d e8           movl     -0x18(%ebp), %ecx
0x000c3530:  67 66 8b 55 e4           movl     -0x1c(%ebp), %edx
0x000c3535:  50                       pushw    %ax
0x000c3536:  e8 f6 ca                 callw    0xc002f

----------------
IN: 
0x000c3539:  66 b9 40 00 00 00        movl     $0x40, %ecx
0x000c353f:  8e c1                    movw     %cx, %es
0x000c3541:  26 a3 4c 00              movw     %ax, %es:0x4c
0x000c3545:  50                       pushw    %ax
0x000c3546:  e8 bd d3                 callw    0xc0906

----------------
IN: 
0x000c0906:  66 ba cc 03 00 00        movl     $0x3cc, %edx
0x000c090c:  ec                       inb      %dx, %al

----------------
IN: 
0x000c090d:  66 ba d4 03 00 00        movl     $0x3d4, %edx
0x000c0913:  a8 01                    testb    $1, %al
0x000c0915:  75 06                    jne      0xc091d

----------------
IN: 
0x000c091d:  66 89 d0                 movl     %edx, %eax
0x000c0920:  c2 02 00                 retw     $2

----------------
IN: 
0x000c3549:  8e c1                    movw     %cx, %es
0x000c354b:  26 a3 63 00              movw     %ax, %es:0x63
0x000c354f:  8e c1                    movw     %cx, %es
0x000c3551:  66 0f b6 c3              movzbl   %bl, %eax
0x000c3555:  26 a3 85 00              movw     %ax, %es:0x85
0x000c3559:  8e c1                    movw     %cx, %es
0x000c355b:  67 66 8b 45 f0           movl     -0x10(%ebp), %eax
0x000c3560:  66 c1 f8 08              sarl     $8, %eax
0x000c3564:  66 83 e0 80              andl     $0xffffff80, %eax
0x000c3568:  66 83 c8 60              orl      $0x60, %eax
0x000c356c:  26 a2 87 00              movb     %al, %es:0x87
0x000c3570:  8e c1                    movw     %cx, %es
0x000c3572:  b0 f9                    movb     $0xf9, %al
0x000c3574:  26 a2 88 00              movb     %al, %es:0x88
0x000c3578:  8e c1                    movw     %cx, %es
0x000c357a:  26 a0 89 00              movb     %es:0x89, %al
0x000c357e:  66 83 e0 7f              andl     $0x7f, %eax
0x000c3582:  26 a2 89 00              movb     %al, %es:0x89
0x000c3586:  66 31 d2                 xorl     %edx, %edx
0x000c3589:  66 31 c0                 xorl     %eax, %eax
0x000c358c:  8e c1                    movw     %cx, %es
0x000c358e:  26 67 89 44 12 50        movw     %ax, %es:0x50(%edx, %edx)
0x000c3594:  66 42                    incl     %edx
0x000c3596:  66 83 fa 08              cmpl     $8, %edx
0x000c359a:  75 f0                    jne      0xc358c

----------------
IN: 
0x000c358c:  8e c1                    movw     %cx, %es
0x000c358e:  26 67 89 44 12 50        movw     %ax, %es:0x50(%edx, %edx)
0x000c3594:  66 42                    incl     %edx
0x000c3596:  66 83 fa 08              cmpl     $8, %edx
0x000c359a:  75 f0                    jne      0xc358c

----------------
IN: 
0x000c359c:  8e c1                    movw     %cx, %es
0x000c359e:  26 a3 4e 00              movw     %ax, %es:0x4e
0x000c35a2:  8e c1                    movw     %cx, %es
0x000c35a4:  66 31 d2                 xorl     %edx, %edx
0x000c35a7:  26 88 16 62 00           movb     %dl, %es:0x62
0x000c35ac:  8c c9                    movw     %cs, %cx
0x000c35ae:  66 c1 e1 10              shll     $0x10, %ecx
0x000c35b2:  66 ba 40 94 00 00        movl     $0x9440, %edx
0x000c35b8:  66 0f b7 d2              movzwl   %dx, %edx
0x000c35bc:  66 09 ca                 orl      %ecx, %edx
0x000c35bf:  8e c0                    movw     %ax, %es
0x000c35c1:  26 66 89 16 7c 00        movl     %edx, %es:0x7c
0x000c35c7:  80 fb 0e                 cmpb     $0xe, %bl
0x000c35ca:  74 1d                    je       0xc35e9

----------------
IN: 
0x000c35cc:  80 fb 10                 cmpb     $0x10, %bl
0x000c35cf:  74 26                    je       0xc35f7

----------------
IN: 
0x000c35f7:  8c c9                    movw     %cs, %cx
0x000c35f9:  66 c1 e1 10              shll     $0x10, %ecx
0x000c35fd:  66 ba 40 72 00 00        movl     $0x7240, %edx
0x000c3603:  66 0f b7 d2              movzwl   %dx, %edx
0x000c3607:  66 09 ca                 orl      %ecx, %edx
0x000c360a:  8e c0                    movw     %ax, %es
0x000c360c:  26 66 89 16 0c 01        movl     %edx, %es:0x10c
0x000c3612:  eb c2                    jmp      0xc35d6

----------------
IN: 
0x000c35d6:  66 31 c0                 xorl     %eax, %eax
0x000c35d9:  eb 3f                    jmp      0xc361a

----------------
IN: 
0x000c361a:  8d 66 f4                 leaw     -0xc(%bp), %sp
0x000c361d:  66 5b                    popl     %ebx
0x000c361f:  66 5e                    popl     %esi
0x000c3621:  66 5f                    popl     %edi
0x000c3623:  66 5d                    popl     %ebp
0x000c3625:  c2 02 00                 retw     $2

----------------
IN: 
0x000c55f2:  66 89 dc                 movl     %ebx, %esp
0x000c55f5:  1f                       popw     %ds
0x000c55f6:  07                       popw     %es
0x000c55f7:  66 5f                    popl     %edi
0x000c55f9:  66 5e                    popl     %esi
0x000c55fb:  66 5d                    popl     %ebp
0x000c55fd:  66 5b                    popl     %ebx
0x000c55ff:  66 5a                    popl     %edx
0x000c5601:  66 59                    popl     %ecx
0x000c5603:  66 58                    popl     %eax
0x000c5605:  cf                       iretw    

Servicing hardware INT=0x08
----------------
IN: 
0x000fd062:  cb                       lretw    

----------------
IN: 
0x06fed686:  59                       popl     %ecx
0x06fed687:  e9 0f e2 0f f9           jmp      0xeb89b

----------------
IN: 
0x06ff1fbf:  68 80 4a 0f 00           pushl    $0xf4a80
0x06ff1fc4:  68 df fc 0e 00           pushl    $0xefcdf
0x06ff1fc9:  e8 9e bc 0f f9           calll    0xedc6c

----------------
IN: 
0x000edc6c:  8d 4c 24 08              leal     8(%esp), %ecx
0x000edc70:  8b 54 24 04              movl     4(%esp), %edx
0x000edc74:  b8 04 4a 0f 00           movl     $0xf4a04, %eax
0x000edc79:  e8 72 d7 ff ff           calll    0xeb3f0

----------------
IN: 
0x000ebc2c:  53                       pushl    %ebx
0x000ebc2d:  89 d3                    movl     %edx, %ebx
0x000ebc2f:  83 3d a8 4d 0f 00 00     cmpl     $0, 0xf4da8
0x000ebc36:  74 0f                    je       0xebc47

----------------
IN: 
0x000ebc38:  88 d0                    movb     %dl, %al
0x000ebc3a:  66 8b 15 94 60 0f 00     movw     0xf6094, %dx
0x000ebc41:  66 85 d2                 testw    %dx, %dx
0x000ebc44:  74 01                    je       0xebc47

----------------
IN: 
0x000ebc47:  80 fb 0a                 cmpb     $0xa, %bl
0x000ebc4a:  75 0a                    jne      0xebc56

----------------
IN: 
0x000ebc56:  0f be c3                 movsbl   %bl, %eax
0x000ebc59:  5b                       popl     %ebx
0x000ebc5a:  e9 79 ff ff ff           jmp      0xebbd8

----------------
IN: 
0x000ebbd8:  ba 65 f0 0f 00           movl     $0xff065, %edx
0x000ebbdd:  0f b7 d2                 movzwl   %dx, %edx
0x000ebbe0:  81 ca 00 00 00 f0        orl      $0xf0000000, %edx
0x000ebbe6:  39 15 40 00 00 00        cmpl     %edx, 0x40
0x000ebbec:  74 3d                    je       0xebc2b

----------------
IN: 
0x000ebbee:  53                       pushl    %ebx
0x000ebbef:  83 ec 28                 subl     $0x28, %esp
0x000ebbf2:  89 c3                    movl     %eax, %ebx
0x000ebbf4:  b9 26 00 00 00           movl     $0x26, %ecx
0x000ebbf9:  31 d2                    xorl     %edx, %edx
0x000ebbfb:  8d 44 24 02              leal     2(%esp), %eax
0x000ebbff:  e8 56 e4 ff ff           calll    0xea05a

----------------
IN: 
0x000ebc04:  66 c7 44 24 26 00 02     movw     $0x200, 0x26(%esp)
0x000ebc0b:  c6 44 24 1f 0e           movb     $0xe, 0x1f(%esp)
0x000ebc10:  88 5c 24 1e              movb     %bl, 0x1e(%esp)
0x000ebc14:  c6 44 24 12 07           movb     $7, 0x12(%esp)
0x000ebc19:  ba 60 d0 0f 00           movl     $0xfd060, %edx
0x000ebc1e:  0f b7 d2                 movzwl   %dx, %edx
0x000ebc21:  e8 90 ff ff ff           calll    0xebbb6

----------------
IN: 
0x000c5619:  2e 8e 1e 58 98           movw     %cs:0x9858, %ds
0x000c561e:  66 b8 d0 01 00 00        movl     $0x1d0, %eax
0x000c5624:  67 66 8f 40 1c           popl     0x1c(%eax)
0x000c5629:  67 8f 00                 popw     (%eax)
0x000c562c:  67 66 89 78 04           movl     %edi, 4(%eax)
0x000c5631:  67 66 89 70 08           movl     %esi, 8(%eax)
0x000c5636:  67 66 89 68 0c           movl     %ebp, 0xc(%eax)
0x000c563b:  67 66 89 58 10           movl     %ebx, 0x10(%eax)
0x000c5640:  67 66 89 50 14           movl     %edx, 0x14(%eax)
0x000c5645:  67 66 89 48 18           movl     %ecx, 0x18(%eax)
0x000c564a:  67 8c 40 02              movw     %es, 2(%eax)
0x000c564e:  67 66 89 60 28           movl     %esp, 0x28(%eax)
0x000c5653:  67 8c 50 2c              movw     %ss, 0x2c(%eax)
0x000c5657:  67 66 8f 40 20           popl     0x20(%eax)
0x000c565c:  67 8f 40 24              popw     0x24(%eax)
0x000c5660:  8c da                    movw     %ds, %dx
0x000c5662:  8e d2                    movw     %dx, %ss

----------------
IN: 
0x000c5664:  66 89 c4                 movl     %eax, %esp

----------------
IN: 
0x000c5667:  50                       pushw    %ax
0x000c5668:  e8 fe f1                 callw    0xc4869

----------------
IN: 
0x000c4906:  3c 12                    cmpb     $0x12, %al
0x000c4908:  0f 84 e4 08              je       0xc51f0

----------------
IN: 
0x000c490c:  77 32                    ja       0xc4940

----------------
IN: 
0x000c490e:  3c 0f                    cmpb     $0xf, %al
0x000c4910:  0f 84 de 02              je       0xc4bf2

----------------
IN: 
0x000c4914:  77 1d                    ja       0xc4933

----------------
IN: 
0x000c4916:  3c 0d                    cmpb     $0xd, %al
0x000c4918:  0f 85 c0 02              jne      0xc4bdc

----------------
IN: 
0x000c4bdc:  67 8a 53 1c              movb     0x1c(%ebx), %dl
0x000c4be0:  67 8a 43 10              movb     0x10(%ebx), %al
0x000c4be4:  8d 66 f4                 leaw     -0xc(%bp), %sp
0x000c4be7:  66 5b                    popl     %ebx
0x000c4be9:  66 5e                    popl     %esi
0x000c4beb:  66 5f                    popl     %edi
0x000c4bed:  66 5d                    popl     %ebp
0x000c4bef:  e9 3b d8                 jmp      0xc242d

----------------
IN: 
0x000c242d:  66 55                    pushl    %ebp
0x000c242f:  66 89 e5                 movl     %esp, %ebp
0x000c2432:  66 53                    pushl    %ebx
0x000c2434:  66 51                    pushl    %ecx
0x000c2436:  88 c1                    movb     %al, %cl
0x000c2438:  88 d3                    movb     %dl, %bl
0x000c243a:  66 b8 40 00 00 00        movl     $0x40, %eax
0x000c2440:  8e c0                    movw     %ax, %es
0x000c2442:  26 a0 62 00              movb     %es:0x62, %al
0x000c2446:  66 0f b6 c0              movzbl   %al, %eax
0x000c244a:  50                       pushw    %ax
0x000c244b:  e8 f2 e9                 callw    0xc0e40

----------------
IN: 
0x000c0e40:  3c 07                    cmpb     $7, %al
0x000c0e42:  76 06                    jbe      0xc0e4a

----------------
IN: 
0x000c0e4a:  66 ba 40 00 00 00        movl     $0x40, %edx
0x000c0e50:  8e c2                    movw     %dx, %es
0x000c0e52:  66 0f b6 c0              movzbl   %al, %eax
0x000c0e56:  26 67 8b 54 00 50        movw     %es:0x50(%eax, %eax), %dx
0x000c0e5c:  66 c1 e0 10              shll     $0x10, %eax
0x000c0e60:  66 0f b7 d2              movzwl   %dx, %edx
0x000c0e64:  66 09 d0                 orl      %edx, %eax
0x000c0e67:  c2 02 00                 retw     $2

----------------
IN: 
0x000c244e:  67 66 89 45 f8           movl     %eax, -8(%ebp)
0x000c2453:  66 6a 00                 pushl    $0
0x000c2456:  88 da                    movb     %bl, %dl
0x000c2458:  66 89 e8                 movl     %ebp, %eax
0x000c245b:  9c                       pushfw   
0x000c245c:  66 83 c0 f8              addl     $-8, %eax
0x000c2460:  9d                       popfw    

----------------
IN: 
0x000c2461:  50                       pushw    %ax
0x000c2462:  e8 0e ff                 callw    0xc2373

----------------
IN: 
0x000c2373:  66 55                    pushl    %ebp
0x000c2375:  66 89 e5                 movl     %esp, %ebp
0x000c2378:  66 57                    pushl    %edi
0x000c237a:  66 56                    pushl    %esi
0x000c237c:  66 53                    pushl    %ebx
0x000c237e:  66 89 c3                 movl     %eax, %ebx
0x000c2381:  80 fa 0a                 cmpb     $0xa, %dl
0x000c2384:  74 27                    je       0xc23ad

----------------
IN: 
0x000c2386:  77 0c                    ja       0xc2394

----------------
IN: 
0x000c2394:  80 fa 0d                 cmpb     $0xd, %dl
0x000c2397:  75 1a                    jne      0xc23b3

----------------
IN: 
0x000c23b3:  67 8a 45 08              movb     8(%ebp), %al
0x000c23b7:  66 50                    pushl    %eax
0x000c23b9:  66 89 d8                 movl     %ebx, %eax
0x000c23bc:  50                       pushw    %ax
0x000c23bd:  e8 a5 f9                 callw    0xc1d65

----------------
IN: 
0x000c1d65:  66 55                    pushl    %ebp
0x000c1d67:  66 89 e5                 movl     %esp, %ebp
0x000c1d6a:  66 57                    pushl    %edi
0x000c1d6c:  66 56                    pushl    %esi
0x000c1d6e:  66 53                    pushl    %ebx
0x000c1d70:  66 53                    pushl    %ebx
0x000c1d72:  66 89 c3                 movl     %eax, %ebx
0x000c1d75:  67 88 55 f3              movb     %dl, -0xd(%ebp)
0x000c1d79:  66 89 ce                 movl     %ecx, %esi
0x000c1d7c:  67 8a 00                 movb     (%eax), %al
0x000c1d7f:  67 88 45 f2              movb     %al, -0xe(%ebp)
0x000c1d83:  67 8a 53 01              movb     1(%ebx), %dl
0x000c1d87:  67 8a 4b 02              movb     2(%ebx), %cl
0x000c1d8b:  66 b8 40 00 00 00        movl     $0x40, %eax
0x000c1d91:  8e c0                    movw     %ax, %es
0x000c1d93:  26 8b 3e bc 00           movw     %es:0xbc, %di
0x000c1d98:  85 ff                    testw    %di, %di
0x000c1d9a:  74 60                    je       0xc1dfc

----------------
IN: 
0x000c1d9c:  66 0f b7 ff              movzwl   %di, %edi
0x000c1da0:  2e 67 8a 07              movb     %cs:(%edi), %al
0x000c1da4:  84 c0                    testb    %al, %al
0x000c1da6:  74 1b                    je       0xc1dc3

----------------
IN: 
0x000c1dc3:  67 8a 45 f2              movb     -0xe(%ebp), %al
0x000c1dc7:  50                       pushw    %ax
0x000c1dc8:  e8 a2 f4                 callw    0xc126d

----------------
IN: 
0x000c126d:  66 55                    pushl    %ebp
0x000c126f:  66 89 e5                 movl     %esp, %ebp
0x000c1272:  66 56                    pushl    %esi
0x000c1274:  66 53                    pushl    %ebx
0x000c1276:  66 bb 40 00 00 00        movl     $0x40, %ebx
0x000c127c:  8e c3                    movw     %bx, %es
0x000c127e:  26 8b 1e 4a 00           movw     %es:0x4a, %bx
0x000c1283:  26 8b 36 4c 00           movw     %es:0x4c, %si
0x000c1288:  66 0f b7 f6              movzwl   %si, %esi
0x000c128c:  66 0f b6 c9              movzbl   %cl, %ecx
0x000c1290:  66 0f af f1              imull    %ecx, %esi
0x000c1294:  66 0f b6 c0              movzbl   %al, %eax
0x000c1298:  66 01 c0                 addl     %eax, %eax
0x000c129b:  66 01 c6                 addl     %eax, %esi
0x000c129e:  66 0f b7 db              movzwl   %bx, %ebx
0x000c12a2:  66 0f b6 d2              movzbl   %dl, %edx
0x000c12a6:  66 0f af d3              imull    %ebx, %edx
0x000c12aa:  66 01 d2                 addl     %edx, %edx
0x000c12ad:  66 89 d0                 movl     %edx, %eax
0x000c12b0:  9c                       pushfw   
0x000c12b1:  66 01 f0                 addl     %esi, %eax
0x000c12b4:  9d                       popfw    

----------------
IN: 
0x000c12b5:  66 5b                    popl     %ebx
0x000c12b7:  66 5e                    popl     %esi
0x000c12b9:  66 5d                    popl     %ebp
0x000c12bb:  c2 02 00                 retw     $2

----------------
IN: 
0x000c1dcb:  66 89 c2                 movl     %eax, %edx
0x000c1dce:  2e 67 8b 47 0a           movw     %cs:0xa(%edi), %ax
0x000c1dd3:  67 80 7d 08 00           cmpb     $0, 8(%ebp)
0x000c1dd8:  74 18                    je       0xc1df2

----------------
IN: 
0x000c1df2:  8e c0                    movw     %ax, %es
0x000c1df4:  67 8a 45 f3              movb     -0xd(%ebp), %al
0x000c1df8:  26 67 88 02              movb     %al, %es:(%edx)
0x000c1dfc:  67 8a 03                 movb     (%ebx), %al
0x000c1dff:  66 40                    incl     %eax
0x000c1e01:  67 88 03                 movb     %al, (%ebx)
0x000c1e04:  66 ba 40 00 00 00        movl     $0x40, %edx
0x000c1e0a:  8e c2                    movw     %dx, %es
0x000c1e0c:  26 8b 16 4a 00           movw     %es:0x4a, %dx
0x000c1e11:  66 0f b6 c0              movzbl   %al, %eax
0x000c1e15:  39 d0                    cmpw     %dx, %ax
0x000c1e17:  75 08                    jne      0xc1e21

----------------
IN: 
0x000c1df8:  26 67 88 02              movb     %al, %es:(%edx)

----------------
IN: 
0x000c1dfc:  67 8a 03                 movb     (%ebx), %al
0x000c1dff:  66 40                    incl     %eax
0x000c1e01:  67 88 03                 movb     %al, (%ebx)
0x000c1e04:  66 ba 40 00 00 00        movl     $0x40, %edx
0x000c1e0a:  8e c2                    movw     %dx, %es
0x000c1e0c:  26 8b 16 4a 00           movw     %es:0x4a, %dx
0x000c1e11:  66 0f b6 c0              movzbl   %al, %eax
0x000c1e15:  39 d0                    cmpw     %dx, %ax
0x000c1e17:  75 08                    jne      0xc1e21

----------------
IN: 
0x000c1e21:  8d 66 f4                 leaw     -0xc(%bp), %sp
0x000c1e24:  66 5b                    popl     %ebx
0x000c1e26:  66 5e                    popl     %esi
0x000c1e28:  66 5f                    popl     %edi
0x000c1e2a:  66 5d                    popl     %ebp
0x000c1e2c:  c2 02 00                 retw     $2

----------------
IN: 
0x000c23c0:  66 58                    popl     %eax
0x000c23c2:  66 ba 40 00 00 00        movl     $0x40, %edx
0x000c23c8:  8e c2                    movw     %dx, %es
0x000c23ca:  26 a0 84 00              movb     %es:0x84, %al
0x000c23ce:  66 89 c6                 movl     %eax, %esi
0x000c23d1:  67 8a 43 01              movb     1(%ebx), %al
0x000c23d5:  66 89 f1                 movl     %esi, %ecx
0x000c23d8:  38 c1                    cmpb     %al, %cl
0x000c23da:  73 43                    jae      0xc241f

----------------
IN: 
0x000c241f:  8d 66 f4                 leaw     -0xc(%bp), %sp
0x000c2422:  66 5b                    popl     %ebx
0x000c2424:  66 5e                    popl     %esi
0x000c2426:  66 5f                    popl     %edi
0x000c2428:  66 5d                    popl     %ebp
0x000c242a:  c2 02 00                 retw     $2

----------------
IN: 
0x000c2465:  66 5b                    popl     %ebx
0x000c2467:  67 8a 4d fa              movb     -6(%ebp), %cl
0x000c246b:  67 8a 55 f9              movb     -7(%ebp), %dl
0x000c246f:  67 8a 45 f8              movb     -8(%ebp), %al
0x000c2473:  50                       pushw    %ax
0x000c2474:  e8 47 ee                 callw    0xc12be

----------------
IN: 
0x000c12be:  66 55                    pushl    %ebp
0x000c12c0:  66 89 e5                 movl     %esp, %ebp
0x000c12c3:  66 57                    pushl    %edi
0x000c12c5:  66 56                    pushl    %esi
0x000c12c7:  66 53                    pushl    %ebx
0x000c12c9:  66 53                    pushl    %ebx
0x000c12cb:  67 88 45 f3              movb     %al, -0xd(%ebp)
0x000c12cf:  66 0f b6 d9              movzbl   %cl, %ebx
0x000c12d3:  80 fb 07                 cmpb     $7, %bl
0x000c12d6:  77 69                    ja       0xc1341

----------------
IN: 
0x000c12d8:  66 89 d6                 movl     %edx, %esi
0x000c12db:  66 b8 40 00 00 00        movl     $0x40, %eax
0x000c12e1:  8e c0                    movw     %ax, %es
0x000c12e3:  26 a0 62 00              movb     %es:0x62, %al
0x000c12e7:  38 d8                    cmpb     %bl, %al
0x000c12e9:  75 3b                    jne      0xc1326

----------------
IN: 
0x000c12eb:  88 d9                    movb     %bl, %cl
0x000c12ed:  67 8a 45 f3              movb     -0xd(%ebp), %al
0x000c12f1:  50                       pushw    %ax
0x000c12f2:  e8 78 ff                 callw    0xc126d

----------------
IN: 
0x000c12f5:  66 89 c1                 movl     %eax, %ecx
0x000c12f8:  50                       pushw    %ax
0x000c12f9:  e8 0a f6                 callw    0xc0906

----------------
IN: 
0x000c12fc:  66 89 c7                 movl     %eax, %edi
0x000c12ff:  66 89 c8                 movl     %ecx, %eax
0x000c1302:  66 b9 02 00 00 00        movl     $2, %ecx
0x000c1308:  66 99                    cltd     
0x000c130a:  66 f7 f9                 idivl    %ecx
0x000c130d:  66 89 c1                 movl     %eax, %ecx
0x000c1310:  30 c0                    xorb     %al, %al
0x000c1312:  66 83 c8 0e              orl      $0xe, %eax
0x000c1316:  66 89 fa                 movl     %edi, %edx
0x000c1319:  ef                       outw     %ax, %dx

----------------
IN: 
0x000c131a:  66 89 c8                 movl     %ecx, %eax
0x000c131d:  66 c1 e0 08              shll     $8, %eax
0x000c1321:  66 83 c8 0f              orl      $0xf, %eax
0x000c1325:  ef                       outw     %ax, %dx

----------------
IN: 
0x000c1326:  66 b8 40 00 00 00        movl     $0x40, %eax
0x000c132c:  8e c0                    movw     %ax, %es
0x000c132e:  66 c1 e6 08              shll     $8, %esi
0x000c1332:  67 66 0f b6 45 f3        movzbl   -0xd(%ebp), %eax
0x000c1338:  66 09 c6                 orl      %eax, %esi
0x000c133b:  26 67 89 74 1b 50        movw     %si, %es:0x50(%ebx, %ebx)
0x000c1341:  66 58                    popl     %eax
0x000c1343:  66 5b                    popl     %ebx
0x000c1345:  66 5e                    popl     %esi
0x000c1347:  66 5f                    popl     %edi
0x000c1349:  66 5d                    popl     %ebp
0x000c134b:  c2 02 00                 retw     $2

----------------
IN: 
0x000c2477:  67 66 8b 5d fc           movl     -4(%ebp), %ebx
0x000c247c:  66 89 ec                 movl     %ebp, %esp
0x000c247f:  66 5d                    popl     %ebp
0x000c2481:  c2 02 00                 retw     $2

----------------
IN: 
0x000c566b:  66 89 e0                 movl     %esp, %eax
0x000c566e:  67 8e 50 2c              movw     0x2c(%eax), %ss

----------------
IN: 
0x000c5672:  67 66 8b 60 28           movl     0x28(%eax), %esp

----------------
IN: 
0x000c5677:  66 5a                    popl     %edx
0x000c5679:  5a                       popw     %dx
0x000c567a:  67 ff 70 24              pushw    0x24(%eax)
0x000c567e:  67 66 ff 70 20           pushl    0x20(%eax)
0x000c5683:  67 66 8b 78 04           movl     4(%eax), %edi
0x000c5688:  67 66 8b 70 08           movl     8(%eax), %esi
0x000c568d:  67 66 8b 68 0c           movl     0xc(%eax), %ebp
0x000c5692:  67 66 8b 58 10           movl     0x10(%eax), %ebx
0x000c5697:  67 66 8b 50 14           movl     0x14(%eax), %edx
0x000c569c:  67 66 8b 48 18           movl     0x18(%eax), %ecx
0x000c56a1:  67 8e 40 02              movw     2(%eax), %es
0x000c56a5:  67 66 ff 70 1c           pushl    0x1c(%eax)
0x000c56aa:  67 8e 18                 movw     (%eax), %ds
0x000c56ad:  66 58                    popl     %eax
0x000c56af:  cf                       iretw    

----------------
IN: 
0x000ebc26:  83 c4 28                 addl     $0x28, %esp
0x000ebc29:  5b                       popl     %ebx
0x000ebc2a:  c3                       retl     

Servicing hardware INT=0x08
----------------
IN: 
0x000ebc4c:  b8 0d 00 00 00           movl     $0xd, %eax
0x000ebc51:  e8 82 ff ff ff           calll    0xebbd8

----------------
IN: 
0x000c2399:  67 c6 00 00              movb     $0, (%eax)
0x000c239d:  eb 23                    jmp      0xc23c2

----------------
IN: 
0x000c23c2:  66 ba 40 00 00 00        movl     $0x40, %edx
0x000c23c8:  8e c2                    movw     %dx, %es
0x000c23ca:  26 a0 84 00              movb     %es:0x84, %al
0x000c23ce:  66 89 c6                 movl     %eax, %esi
0x000c23d1:  67 8a 43 01              movb     1(%ebx), %al
0x000c23d5:  66 89 f1                 movl     %esi, %ecx
0x000c23d8:  38 c1                    cmpb     %al, %cl
0x000c23da:  73 43                    jae      0xc241f

----------------
IN: 
0x000c23ad:  67 fe 40 01              incb     1(%eax)
0x000c23b1:  eb 0f                    jmp      0xc23c2

----------------
IN: 
0x000edc7e:  c3                       retl     

----------------
IN: 
0x06ff1fce:  31 c0                    xorl     %eax, %eax
0x06ff1fd0:  89 44 24 38              movl     %eax, 0x38(%esp)
0x06ff1fd4:  8d 44 24 38              leal     0x38(%esp), %eax
0x06ff1fd8:  e8 76 99 ff ff           calll    0x6feb953

----------------
IN: 
0x06feb953:  89 c2                    movl     %eax, %edx
0x06feb955:  8b 0d 14 ff ff 06        movl     0x6ffff14, %ecx
0x06feb95b:  85 c9                    testl    %ecx, %ecx
0x06feb95d:  74 0f                    je       0x6feb96e

----------------
IN: 
0x06feb96e:  a1 18 ff ff 06           movl     0x6ffff18, %eax
0x06feb973:  85 c0                    testl    %eax, %eax
0x06feb975:  74 09                    je       0x6feb980

----------------
IN: 
0x06feb977:  0f b7 48 16              movzwl   0x16(%eax), %ecx
0x06feb97b:  89 0a                    movl     %ecx, (%edx)
0x06feb97d:  8b 40 18                 movl     0x18(%eax), %eax
0x06feb980:  c3                       retl     

----------------
IN: 
0x06ff1fdd:  89 c6                    movl     %eax, %esi
0x06ff1fdf:  8b 7c 24 38              movl     0x38(%esp), %edi
0x06ff1fe3:  31 c9                    xorl     %ecx, %ecx
0x06ff1fe5:  89 fa                    movl     %edi, %edx
0x06ff1fe7:  e8 06 99 ff ff           calll    0x6feb8f2

----------------
IN: 
0x06ff1fec:  89 c3                    movl     %eax, %ebx
0x06ff1fee:  83 c4 0c                 addl     $0xc, %esp
0x06ff1ff1:  85 db                    testl    %ebx, %ebx
0x06ff1ff3:  0f 84 69 01 00 00        je       0x6ff2162

----------------
IN: 
0x06ff1ff9:  80 3b 01                 cmpb     $1, (%ebx)

----------------
IN: 
0x06ff1ffc:  0f 85 4e 01 00 00        jne      0x6ff2150

----------------
IN: 
0x06ff2150:  89 d9                    movl     %ebx, %ecx
0x06ff2152:  89 fa                    movl     %edi, %edx
0x06ff2154:  89 f0                    movl     %esi, %eax
0x06ff2156:  e8 97 97 ff ff           calll    0x6feb8f2

----------------
IN: 
0x06ff215b:  89 c3                    movl     %eax, %ebx
0x06ff215d:  e9 8f fe ff ff           jmp      0x6ff1ff1

----------------
IN: 
0x06ff1ff1:  85 db                    testl    %ebx, %ebx
0x06ff1ff3:  0f 84 69 01 00 00        je       0x6ff2162

----------------
IN: 
0x06ff2002:  80 7b 01 17              cmpb     $0x17, 1(%ebx)
0x06ff2006:  0f 86 44 01 00 00        jbe      0x6ff2150

----------------
IN: 
0x06ff200c:  8d 7c 24 32              leal     0x32(%esp), %edi
0x06ff2010:  b9 04 00 00 00           movl     $4, %ecx
0x06ff2015:  31 c0                    xorl     %eax, %eax
0x06ff2017:  f3 ab                    rep stosl %eax, %es:(%edi)

----------------
IN: 
0x06ff2017:  f3 ab                    rep stosl %eax, %es:(%edi)

----------------
IN: 
0x06ff2019:  8d 43 08                 leal     8(%ebx), %eax
0x06ff201c:  b9 10 00 00 00           movl     $0x10, %ecx
0x06ff2021:  8d 54 24 32              leal     0x32(%esp), %edx
0x06ff2025:  e8 a3 70 0f f9           calll    0xe90cd

----------------
IN: 
0x06ff202a:  85 c0                    testl    %eax, %eax
0x06ff202c:  0f 84 30 01 00 00        je       0x6ff2162

----------------
IN: 
0x06ff2162:  83 c4 68                 addl     $0x68, %esp
0x06ff2165:  5b                       popl     %ebx
0x06ff2166:  5e                       popl     %esi
0x06ff2167:  5f                       popl     %edi
0x06ff2168:  5d                       popl     %ebp
0x06ff2169:  c3                       retl     

----------------
IN: 
0x06ffbcb6:  e8 6a d2 0e f9           calll    0xe8f25

----------------
IN: 
0x06ffbcbb:  85 c0                    testl    %eax, %eax
0x06ffbcbd:  75 0a                    jne      0x6ffbcc9

----------------
IN: 
0x06ffbcbf:  e8 bc c9 ff ff           calll    0x6ff8680

----------------
IN: 
0x06ff8680:  55                       pushl    %ebp
0x06ff8681:  57                       pushl    %edi
0x06ff8682:  56                       pushl    %esi
0x06ff8683:  53                       pushl    %ebx
0x06ff8684:  83 ec 14                 subl     $0x14, %esp
0x06ff8687:  ba 64 00 00 00           movl     $0x64, %edx
0x06ff868c:  31 c9                    xorl     %ecx, %ecx
0x06ff868e:  b8 14 2d 0f 00           movl     $0xf2d14, %eax
0x06ff8693:  e8 c7 4c ff ff           calll    0x6fed35f

----------------
IN: 
0x06ff8698:  a3 40 ff ff 06           movl     %eax, 0x6ffff40
0x06ff869d:  a1 c0 fd ff 06           movl     0x6fffdc0, %eax
0x06ff86a2:  8d 58 fc                 leal     -4(%eax), %ebx
0x06ff86a5:  83 fb fc                 cmpl     $-4, %ebx
0x06ff86a8:  74 5e                    je       0x6ff8708

----------------
IN: 
0x06ff86aa:  0f b7 43 14              movzwl   0x14(%ebx), %eax
0x06ff86ae:  c1 e0 08                 shll     $8, %eax
0x06ff86b1:  0f b6 53 16              movzbl   0x16(%ebx), %edx
0x06ff86b5:  09 d0                    orl      %edx, %eax
0x06ff86b7:  3d 30 03 0c 00           cmpl     $0xc0330, %eax
0x06ff86bc:  75 42                    jne      0x6ff8700

----------------
IN: 
0x06ff8700:  8b 5b 04                 movl     4(%ebx), %ebx
0x06ff8703:  83 eb 04                 subl     $4, %ebx
0x06ff8706:  eb 9d                    jmp      0x6ff86a5

----------------
IN: 
0x06ff86a5:  83 fb fc                 cmpl     $-4, %ebx
0x06ff86a8:  74 5e                    je       0x6ff8708

----------------
IN: 
0x06ff8708:  ba 10 0d 00 00           movl     $0xd10, %edx
0x06ff870d:  31 c0                    xorl     %eax, %eax
0x06ff870f:  e8 05 9e ff ff           calll    0x6ff2519

----------------
IN: 
0x06ff2519:  55                       pushl    %ebp
0x06ff251a:  57                       pushl    %edi
0x06ff251b:  56                       pushl    %esi
0x06ff251c:  53                       pushl    %ebx
0x06ff251d:  83 ec 10                 subl     $0x10, %esp
0x06ff2520:  89 c3                    movl     %eax, %ebx
0x06ff2522:  66 c7 44 24 01 0c 41     movw     $0x410c, 1(%esp)
0x06ff2529:  c6 44 24 03 d0           movb     $0xd0, 3(%esp)
0x06ff252e:  89 d0                    movl     %edx, %eax
0x06ff2530:  86 e0                    xchgb    %ah, %al
0x06ff2532:  66 89 44 24 04           movw     %ax, 4(%esp)
0x06ff2537:  0f b7 d2                 movzwl   %dx, %edx
0x06ff253a:  52                       pushl    %edx
0x06ff253b:  68 3c 0e 0f 00           pushl    $0xf0e3c
0x06ff2540:  6a 0a                    pushl    $0xa
0x06ff2542:  8d 7c 24 12              leal     0x12(%esp), %edi
0x06ff2546:  57                       pushl    %edi
0x06ff2547:  e8 15 fd ff ff           calll    0x6ff2261

----------------
IN: 
0x000eb460:  3c 2e                    cmpb     $0x2e, %al
0x000eb462:  0f 84 a0 01 00 00        je       0xeb608

----------------
IN: 
0x000eb468:  7f 1a                    jg       0xeb484

----------------
IN: 
0x000eb484:  3c 58                    cmpb     $0x58, %al
0x000eb486:  0f 84 1d 01 00 00        je       0xeb5a9

----------------
IN: 
0x000e8fc0:  8d 42 37                 leal     0x37(%edx), %eax
0x000e8fc3:  0f be d0                 movsbl   %al, %edx
0x000e8fc6:  89 d8                    movl     %ebx, %eax
0x000e8fc8:  5b                       popl     %ebx
0x000e8fc9:  e9 8d ff ff ff           jmp      0xe8f5b

----------------
IN: 
0x06ff254c:  89 c6                    movl     %eax, %esi
0x06ff254e:  83 c4 10                 addl     $0x10, %esp
0x06ff2551:  85 db                    testl    %ebx, %ebx
0x06ff2553:  75 11                    jne      0x6ff2566

----------------
IN: 
0x06ff2555:  8b 1d 10 fc ff 06        movl     0x6fffc10, %ebx
0x06ff255b:  85 db                    testl    %ebx, %ebx
0x06ff255d:  74 31                    je       0x6ff2590

----------------
IN: 
0x06ff255f:  8b 6b 18                 movl     0x18(%ebx), %ebp
0x06ff2562:  85 ed                    testl    %ebp, %ebp
0x06ff2564:  75 04                    jne      0x6ff256a

----------------
IN: 
0x06ff2566:  8b 1b                    movl     (%ebx), %ebx
0x06ff2568:  eb f1                    jmp      0x6ff255b

----------------
IN: 
0x06ff255b:  85 db                    testl    %ebx, %ebx
0x06ff255d:  74 31                    je       0x6ff2590

----------------
IN: 
0x06ff256a:  83 c5 05                 addl     $5, %ebp
0x06ff256d:  b9 05 00 00 00           movl     $5, %ecx
0x06ff2572:  8d 54 24 01              leal     1(%esp), %edx
0x06ff2576:  89 e8                    movl     %ebp, %eax
0x06ff2578:  e8 50 6b 0f f9           calll    0xe90cd

----------------
IN: 
0x06ff257d:  85 c0                    testl    %eax, %eax
0x06ff257f:  74 0f                    je       0x6ff2590

----------------
IN: 
0x06ff2581:  89 f1                    movl     %esi, %ecx
0x06ff2583:  89 fa                    movl     %edi, %edx
0x06ff2585:  89 e8                    movl     %ebp, %eax
0x06ff2587:  e8 41 6b 0f f9           calll    0xe90cd

----------------
IN: 
0x06ff258c:  85 c0                    testl    %eax, %eax
0x06ff258e:  75 d6                    jne      0x6ff2566

----------------
IN: 
0x06ff2590:  89 d8                    movl     %ebx, %eax
0x06ff2592:  83 c4 10                 addl     $0x10, %esp
0x06ff2595:  5b                       popl     %ebx
0x06ff2596:  5e                       popl     %esi
0x06ff2597:  5f                       popl     %edi
0x06ff2598:  5d                       popl     %ebp
0x06ff2599:  c3                       retl     

----------------
IN: 
0x06ff8714:  89 c5                    movl     %eax, %ebp
0x06ff8716:  85 c0                    testl    %eax, %eax
0x06ff8718:  74 5c                    je       0x6ff8776

----------------
IN: 
0x06ff8776:  a1 c0 fd ff 06           movl     0x6fffdc0, %eax
0x06ff877b:  8d 58 fc                 leal     -4(%eax), %ebx
0x06ff877e:  83 fb fc                 cmpl     $-4, %ebx
0x06ff8781:  0f 84 ba 00 00 00        je       0x6ff8841

----------------
IN: 
0x06ff8787:  0f b7 43 14              movzwl   0x14(%ebx), %eax
0x06ff878b:  c1 e0 08                 shll     $8, %eax
0x06ff878e:  0f b6 53 16              movzbl   0x16(%ebx), %edx
0x06ff8792:  09 d0                    orl      %edx, %eax
0x06ff8794:  3d 20 03 0c 00           cmpl     $0xc0320, %eax
0x06ff8799:  0f 85 97 00 00 00        jne      0x6ff8836

----------------
IN: 
0x06ff8836:  8b 5b 04                 movl     4(%ebx), %ebx
0x06ff8839:  83 eb 04                 subl     $4, %ebx
0x06ff883c:  e9 3d ff ff ff           jmp      0x6ff877e

----------------
IN: 
0x06ff877e:  83 fb fc                 cmpl     $-4, %ebx
0x06ff8781:  0f 84 ba 00 00 00        je       0x6ff8841

----------------
IN: 
0x06ff8841:  a1 c0 fd ff 06           movl     0x6fffdc0, %eax
0x06ff8846:  8d 58 fc                 leal     -4(%eax), %ebx
0x06ff8849:  83 fb fc                 cmpl     $-4, %ebx
0x06ff884c:  0f 84 c9 00 00 00        je       0x6ff891b

----------------
IN: 
0x06ff8852:  0f b7 43 14              movzwl   0x14(%ebx), %eax
0x06ff8856:  c1 e0 08                 shll     $8, %eax
0x06ff8859:  0f b6 53 16              movzbl   0x16(%ebx), %edx
0x06ff885d:  09 d0                    orl      %edx, %eax
0x06ff885f:  3d 00 03 0c 00           cmpl     $0xc0300, %eax
0x06ff8864:  0f 85 a6 00 00 00        jne      0x6ff8910

----------------
IN: 
0x06ff8910:  8b 5b 04                 movl     4(%ebx), %ebx
0x06ff8913:  83 eb 04                 subl     $4, %ebx
0x06ff8916:  e9 2e ff ff ff           jmp      0x6ff8849

----------------
IN: 
0x06ff8849:  83 fb fc                 cmpl     $-4, %ebx
0x06ff884c:  0f 84 c9 00 00 00        je       0x6ff891b

----------------
IN: 
0x06ff891b:  a1 c0 fd ff 06           movl     0x6fffdc0, %eax
0x06ff8920:  8d 58 fc                 leal     -4(%eax), %ebx
0x06ff8923:  83 fb fc                 cmpl     $-4, %ebx
0x06ff8926:  0f 84 9e 00 00 00        je       0x6ff89ca

----------------
IN: 
0x06ff892c:  0f b7 43 14              movzwl   0x14(%ebx), %eax
0x06ff8930:  c1 e0 08                 shll     $8, %eax
0x06ff8933:  0f b6 53 16              movzbl   0x16(%ebx), %edx
0x06ff8937:  09 d0                    orl      %edx, %eax
0x06ff8939:  3d 10 03 0c 00           cmpl     $0xc0310, %eax
0x06ff893e:  75 7f                    jne      0x6ff89bf

----------------
IN: 
0x06ff89bf:  8b 5b 04                 movl     4(%ebx), %ebx
0x06ff89c2:  83 eb 04                 subl     $4, %ebx
0x06ff89c5:  e9 59 ff ff ff           jmp      0x6ff8923

----------------
IN: 
0x06ff8923:  83 fb fc                 cmpl     $-4, %ebx
0x06ff8926:  0f 84 9e 00 00 00        je       0x6ff89ca

----------------
IN: 
0x06ff89ca:  83 3d 10 fc ff 06 00     cmpl     $0, 0x6fffc10
0x06ff89d1:  74 4f                    je       0x6ff8a22

----------------
IN: 
0x06ff89d3:  ba 03 03 00 00           movl     $0x303, %edx
0x06ff89d8:  31 c0                    xorl     %eax, %eax
0x06ff89da:  e8 3a 9b ff ff           calll    0x6ff2519

----------------
IN: 
0x06ff89df:  85 c0                    testl    %eax, %eax
0x06ff89e1:  74 32                    je       0x6ff8a15

----------------
IN: 
0x06ff89e3:  8b 40 1c                 movl     0x1c(%eax), %eax
0x06ff89e6:  85 c0                    testl    %eax, %eax
0x06ff89e8:  74 38                    je       0x6ff8a22

----------------
IN: 
0x06ff89ea:  80 38 08                 cmpb     $8, (%eax)
0x06ff89ed:  75 33                    jne      0x6ff8a22

----------------
IN: 
0x06ff89ef:  31 d2                    xorl     %edx, %edx
0x06ff89f1:  89 54 24 0c              movl     %edx, 0xc(%esp)
0x06ff89f5:  89 54 24 10              movl     %edx, 0x10(%esp)
0x06ff89f9:  83 c0 05                 addl     $5, %eax
0x06ff89fc:  8d 4c 24 0c              leal     0xc(%esp), %ecx
0x06ff8a00:  31 d2                    xorl     %edx, %edx
0x06ff8a02:  e8 d8 3c ff ff           calll    0x6fec6df

----------------
IN: 
0x06ff8a07:  83 7c 24 10 00           cmpl     $0, 0x10(%esp)
0x06ff8a0c:  75 14                    jne      0x6ff8a22

----------------
IN: 
0x06ff8a0e:  83 7c 24 0c 00           cmpl     $0, 0xc(%esp)
0x06ff8a13:  75 0d                    jne      0x6ff8a22

----------------
IN: 
0x06ff8a22:  ba 87 e9 0f 00           movl     $0xfe987, %edx
0x06ff8a27:  0f b7 d2                 movzwl   %dx, %edx
0x06ff8a2a:  81 ca 00 00 00 f0        orl      $0xf0000000, %edx
0x06ff8a30:  b8 01 00 00 00           movl     $1, %eax
0x06ff8a35:  e8 1f 3e ff ff           calll    0x6fec859

----------------
IN: 
0x06ff8a3a:  ba 2b d4 0f 00           movl     $0xfd42b, %edx
0x06ff8a3f:  0f b7 d2                 movzwl   %dx, %edx
0x06ff8a42:  81 ca 00 00 00 f0        orl      $0xf0000000, %edx
0x06ff8a48:  b8 0c 00 00 00           movl     $0xc, %eax
0x06ff8a4d:  e8 07 3e ff ff           calll    0x6fec859

----------------
IN: 
0x06ff8a52:  31 d2                    xorl     %edx, %edx
0x06ff8a54:  b8 7f 1c ff 06           movl     $0x6ff1c7f, %eax
0x06ff8a59:  e8 f6 52 ff ff           calll    0x6fedd54

----------------
IN: 
0x06fedd54:  55                       pushl    %ebp
0x06fedd55:  57                       pushl    %edi
0x06fedd56:  56                       pushl    %esi
0x06fedd57:  53                       pushl    %ebx
0x06fedd58:  89 c6                    movl     %eax, %esi
0x06fedd5a:  89 d7                    movl     %edx, %edi
0x06fedd5c:  80 3d c0 4d 0f 00 00     cmpb     $0, 0xf4dc0
0x06fedd63:  74 7a                    je       0x6fedddf

----------------
IN: 
0x06fedd65:  b9 00 10 00 00           movl     $0x1000, %ecx
0x06fedd6a:  ba 00 10 00 00           movl     $0x1000, %edx
0x06fedd6f:  b8 58 fe ff 06           movl     $0x6fffe58, %eax
0x06fedd74:  e8 9b ff ff ff           calll    0x6fedd14

----------------
IN: 
0x06fedd79:  89 c3                    movl     %eax, %ebx
0x06fedd7b:  85 c0                    testl    %eax, %eax
0x06fedd7d:  74 60                    je       0x6fedddf

----------------
IN: 
0x06fedd7f:  8d 80 00 10 00 00        leal     0x1000(%eax), %eax
0x06fedd85:  89 03                    movl     %eax, (%ebx)
0x06fedd87:  89 e0                    movl     %esp, %eax
0x06fedd89:  bd c8 61 0f 00           movl     $0xf61c8, %ebp
0x06fedd8e:  3d 00 00 10 00           cmpl     $0x100000, %eax
0x06fedd93:  76 07                    jbe      0x6fedd9c

----------------
IN: 
0x06fedd9c:  8d 55 04                 leal     4(%ebp), %edx
0x06fedd9f:  8d 43 04                 leal     4(%ebx), %eax
0x06fedda2:  e8 e8 d3 ff ff           calll    0x6feb18f

----------------
IN: 
0x06fedda7:  89 f8                    movl     %edi, %eax
0x06fedda9:  89 f1                    movl     %esi, %ecx
0x06feddab:  89 ea                    movl     %ebp, %edx
0x06feddad:  68 ce dd fe 06           pushl    $0x6feddce
0x06feddb2:  55                       pushl    %ebp
0x06feddb3:  89 22                    movl     %esp, (%edx)
0x06feddb5:  8b 23                    movl     (%ebx), %esp
0x06feddb7:  ff d1                    calll    *%ecx

----------------
IN: 
0x06ff1c7f:  56                       pushl    %esi
0x06ff1c80:  53                       pushl    %ebx
0x06ff1c81:  50                       pushl    %eax
0x06ff1c82:  e8 3b c8 ff ff           calll    0x6fee4c2

----------------
IN: 
0x06fee4c2:  e4 64                    inb      $0x64, %al

----------------
IN: 
0x06fee4c4:  a8 01                    testb    $1, %al
0x06fee4c6:  74 33                    je       0x6fee4fb

----------------
IN: 
0x06fee4fb:  31 c0                    xorl     %eax, %eax
0x06fee4fd:  c3                       retl     

----------------
IN: 
0x06ff1c87:  85 c0                    testl    %eax, %eax
0x06ff1c89:  0f 85 38 01 00 00        jne      0x6ff1dc7

----------------
IN: 
0x06ff1c8f:  31 d2                    xorl     %edx, %edx
0x06ff1c91:  b8 ad 00 00 00           movl     $0xad, %eax
0x06ff1c96:  e8 aa c7 ff ff           calll    0x6fee445

----------------
IN: 
0x06fee445:  57                       pushl    %edi
0x06fee446:  56                       pushl    %esi
0x06fee447:  53                       pushl    %ebx
0x06fee448:  89 c6                    movl     %eax, %esi
0x06fee44a:  89 d7                    movl     %edx, %edi
0x06fee44c:  e8 e0 d8 0f f9           calll    0xebd31

----------------
IN: 
0x000ebd31:  e4 64                    inb      $0x64, %al

----------------
IN: 
0x000ebd33:  a8 02                    testb    $2, %al
0x000ebd35:  74 31                    je       0xebd68

----------------
IN: 
0x000ebd68:  31 c0                    xorl     %eax, %eax
0x000ebd6a:  c3                       retl     

----------------
IN: 
0x06fee451:  89 c3                    movl     %eax, %ebx
0x06fee453:  85 c0                    testl    %eax, %eax
0x06fee455:  75 65                    jne      0x6fee4bc

----------------
IN: 
0x06fee457:  89 f0                    movl     %esi, %eax
0x06fee459:  e6 64                    outb     %al, $0x64

----------------
IN: 
0x06fee45b:  89 f3                    movl     %esi, %ebx
0x06fee45d:  c1 fb 0c                 sarl     $0xc, %ebx
0x06fee460:  83 fb 01                 cmpl     $1, %ebx
0x06fee463:  75 11                    jne      0x6fee476

----------------
IN: 
0x06fee476:  81 e6 00 0f 00 00        andl     $0xf00, %esi
0x06fee47c:  81 fe 00 01 00 00        cmpl     $0x100, %esi
0x06fee482:  75 38                    jne      0x6fee4bc

----------------
IN: 
0x06fee4bc:  89 d8                    movl     %ebx, %eax
0x06fee4be:  5b                       popl     %ebx
0x06fee4bf:  5e                       popl     %esi
0x06fee4c0:  5f                       popl     %edi
0x06fee4c1:  c3                       retl     

----------------
IN: 
0x06ff1c9b:  85 c0                    testl    %eax, %eax
0x06ff1c9d:  0f 85 24 01 00 00        jne      0x6ff1dc7

----------------
IN: 
0x06ff1ca3:  31 d2                    xorl     %edx, %edx
0x06ff1ca5:  b8 a7 00 00 00           movl     $0xa7, %eax
0x06ff1caa:  e8 96 c7 ff ff           calll    0x6fee445

----------------
IN: 
0x06ff1caf:  85 c0                    testl    %eax, %eax
0x06ff1cb1:  0f 85 10 01 00 00        jne      0x6ff1dc7

----------------
IN: 
0x06ff1cb7:  e8 06 c8 ff ff           calll    0x6fee4c2

----------------
IN: 
0x06ff1cbc:  85 c0                    testl    %eax, %eax
0x06ff1cbe:  0f 85 03 01 00 00        jne      0x6ff1dc7

----------------
IN: 
0x06ff1cc4:  8d 54 24 02              leal     2(%esp), %edx
0x06ff1cc8:  b8 aa 01 00 00           movl     $0x1aa, %eax
0x06ff1ccd:  e8 73 c7 ff ff           calll    0x6fee445

----------------
IN: 
0x06fee484:  e4 64                    inb      $0x64, %al

----------------
IN: 
0x06fee486:  be 10 27 00 00           movl     $0x2710, %esi
0x06fee48b:  a8 01                    testb    $1, %al
0x06fee48d:  75 29                    jne      0x6fee4b8

----------------
IN: 
0x06fee4b8:  e4 60                    inb      $0x60, %al

----------------
IN: 
0x06fee4ba:  88 07                    movb     %al, (%edi)
0x06fee4bc:  89 d8                    movl     %ebx, %eax
0x06fee4be:  5b                       popl     %ebx
0x06fee4bf:  5e                       popl     %esi
0x06fee4c0:  5f                       popl     %edi
0x06fee4c1:  c3                       retl     

----------------
IN: 
0x06ff1cd2:  85 c0                    testl    %eax, %eax
0x06ff1cd4:  0f 85 ed 00 00 00        jne      0x6ff1dc7

----------------
IN: 
0x06ff1cda:  0f b6 44 24 02           movzbl   2(%esp), %eax
0x06ff1cdf:  3c 55                    cmpb     $0x55, %al
0x06ff1ce1:  74 08                    je       0x6ff1ceb

----------------
IN: 
0x06ff1ceb:  8d 54 24 02              leal     2(%esp), %edx
0x06ff1cef:  b8 ab 01 00 00           movl     $0x1ab, %eax
0x06ff1cf4:  e8 4c c7 ff ff           calll    0x6fee445

----------------
IN: 
0x06ff1cf9:  85 c0                    testl    %eax, %eax
0x06ff1cfb:  0f 85 c6 00 00 00        jne      0x6ff1dc7

----------------
IN: 
0x06ff1d01:  0f b6 44 24 02           movzbl   2(%esp), %eax
0x06ff1d06:  84 c0                    testb    %al, %al
0x06ff1d08:  74 12                    je       0x6ff1d1c

----------------
IN: 
0x06ff1d1c:  31 d2                    xorl     %edx, %edx
0x06ff1d1e:  31 c9                    xorl     %ecx, %ecx
0x06ff1d20:  b8 fc 0b 0f 00           movl     $0xf0bfc, %eax
0x06ff1d25:  e8 35 b6 ff ff           calll    0x6fed35f

----------------
IN: 
0x06ff1d2a:  89 c3                    movl     %eax, %ebx
0x06ff1d2c:  e8 cb 94 0f f9           calll    0xeb1fc

----------------
IN: 
0x000eb1fc:  53                       pushl    %ebx
0x000eb1fd:  89 c3                    movl     %eax, %ebx
0x000eb1ff:  e8 88 ff ff ff           calll    0xeb18c

----------------
IN: 
0x000eb18c:  66 8b 15 98 60 0f 00     movw     0xf6098, %dx
0x000eb193:  66 85 d2                 testw    %dx, %dx
0x000eb196:  75 18                    jne      0xeb1b0

----------------
IN: 
0x000eb1b0:  8b 0d 74 86 0e 00        movl     0xe8674, %ecx
0x000eb1b6:  66 83 fa 40              cmpw     $0x40, %dx
0x000eb1ba:  74 15                    je       0xeb1d1

----------------
IN: 
0x000eb1bc:  ed                       inl      %dx, %eax

----------------
IN: 
0x000eb1bd:  31 c8                    xorl     %ecx, %eax
0x000eb1bf:  25 ff ff ff 00           andl     $0xffffff, %eax
0x000eb1c4:  31 c8                    xorl     %ecx, %eax
0x000eb1c6:  39 c8                    cmpl     %ecx, %eax
0x000eb1c8:  73 2c                    jae      0xeb1f6

----------------
IN: 
0x000eb1f6:  a3 74 86 0e 00           movl     %eax, 0xe8674
0x000eb1fb:  c3                       retl     

----------------
IN: 
0x000eb204:  0f af 1d 9c 60 0f 00     imull    0xf609c, %ebx
0x000eb20b:  01 d8                    addl     %ebx, %eax
0x000eb20d:  5b                       popl     %ebx
0x000eb20e:  c3                       retl     

----------------
IN: 
0x06ff1d31:  89 c6                    movl     %eax, %esi
0x06ff1d33:  8d 54 24 02              leal     2(%esp), %edx
0x06ff1d37:  b8 ff 01 00 00           movl     $0x1ff, %eax
0x06ff1d3c:  e8 55 fe ff ff           calll    0x6ff1b96

----------------
IN: 
0x06ff1b96:  55                       pushl    %ebp
0x06ff1b97:  57                       pushl    %edi
0x06ff1b98:  56                       pushl    %esi
0x06ff1b99:  53                       pushl    %ebx
0x06ff1b9a:  51                       pushl    %ecx
0x06ff1b9b:  89 c6                    movl     %eax, %esi
0x06ff1b9d:  89 d7                    movl     %edx, %edi
0x06ff1b9f:  0f b6 2d 6c 86 0e 00     movzbl   0xe866c, %ebp
0x06ff1ba6:  89 e8                    movl     %ebp, %eax
0x06ff1ba8:  88 44 24 02              movb     %al, 2(%esp)
0x06ff1bac:  83 e0 fc                 andl     $0xfffffffc, %eax
0x06ff1baf:  83 c8 30                 orl      $0x30, %eax
0x06ff1bb2:  88 44 24 03              movb     %al, 3(%esp)
0x06ff1bb6:  8d 54 24 03              leal     3(%esp), %edx
0x06ff1bba:  b8 60 10 00 00           movl     $0x1060, %eax
0x06ff1bbf:  e8 81 c8 ff ff           calll    0x6fee445

----------------
IN: 
0x06fee465:  e8 c7 d8 0f f9           calll    0xebd31

----------------
IN: 
0x06fee46a:  89 c3                    movl     %eax, %ebx
0x06fee46c:  85 c0                    testl    %eax, %eax
0x06fee46e:  75 4c                    jne      0x6fee4bc

----------------
IN: 
0x06fee470:  8a 07                    movb     (%edi), %al
0x06fee472:  e6 60                    outb     %al, $0x60

----------------
IN: 
0x06fee474:  eb 46                    jmp      0x6fee4bc

----------------
IN: 
0x06ff1bc4:  85 c0                    testl    %eax, %eax
0x06ff1bc6:  0f 85 ad 00 00 00        jne      0x6ff1c79

----------------
IN: 
0x06ff1bcc:  e8 9d 9c 0f f9           calll    0xeb86e

----------------
IN: 
0x000eb87d:  25 00 f0 ff ff           andl     $0xfffff000, %eax
0x000eb882:  89 c3                    movl     %eax, %ebx
0x000eb884:  89 d8                    movl     %ebx, %eax
0x000eb886:  e8 b2 d6 ff ff           calll    0xe8f3d

----------------
IN: 
0x000e8f47:  57                       pushl    %edi
0x000e8f48:  56                       pushl    %esi
0x000e8f49:  53                       pushl    %ebx
0x000e8f4a:  68 56 8f 0e 00           pushl    $0xe8f56
0x000e8f4f:  55                       pushl    %ebp
0x000e8f50:  89 20                    movl     %esp, (%eax)
0x000e8f52:  8b 21                    movl     (%ecx), %esp
0x000e8f54:  5d                       popl     %ebp
0x000e8f55:  c3                       retl     

----------------
IN: 
0x06feddce:  81 fd c8 61 0f 00        cmpl     $0xf61c8, %ebp
0x06feddd4:  75 13                    jne      0x6fedde9

----------------
IN: 
0x06feddd6:  5b                       popl     %ebx
0x06feddd7:  5e                       popl     %esi
0x06feddd8:  5f                       popl     %edi
0x06feddd9:  5d                       popl     %ebp
0x06feddda:  e9 75 da 0f f9           jmp      0xeb854

Servicing hardware INT=0x08
----------------
IN: 
0x06ff8a5e:  b8 7c 60 0f 00           movl     $0xf607c, %eax
0x06ff8a63:  bf c7 ef 0f 00           movl     $0xfefc7, %edi
0x06ff8a68:  b9 0b 00 00 00           movl     $0xb, %ecx
0x06ff8a6d:  89 c6                    movl     %eax, %esi
0x06ff8a6f:  f3 a4                    rep movsb (%esi), %es:(%edi)

----------------
IN: 
0x06ff8a6f:  f3 a4                    rep movsb (%esi), %es:(%edi)

----------------
IN: 
0x06ff8a71:  66 a3 78 00 00 00        movw     %ax, 0x78
0x06ff8a77:  66 c7 05 7a 00 00 00 00  movw     $0xf000, 0x7a
0x06ff8a7f:  f0
0x06ff8a80:  b0 90                    movb     $0x90, %al
0x06ff8a82:  e6 70                    outb     %al, $0x70

----------------
IN: 
0x06ff8a84:  e4 71                    inb      $0x71, %al

----------------
IN: 
0x06ff8a86:  88 04 24                 movb     %al, (%esp)
0x06ff8a89:  3c 0f                    cmpb     $0xf, %al
0x06ff8a8b:  76 0f                    jbe      0x6ff8a9c

----------------
IN: 
0x06ff8a8d:  88 c2                    movb     %al, %dl
0x06ff8a8f:  c0 ea 04                 shrb     $4, %dl
0x06ff8a92:  0f b6 d2                 movzbl   %dl, %edx
0x06ff8a95:  31 c0                    xorl     %eax, %eax
0x06ff8a97:  e8 b3 be ff ff           calll    0x6ff494f

----------------
IN: 
0x06ff494f:  57                       pushl    %edi
0x06ff4950:  56                       pushl    %esi
0x06ff4951:  53                       pushl    %ebx
0x06ff4952:  81 ec 00 01 00 00        subl     $0x100, %esp
0x06ff4958:  89 c3                    movl     %eax, %ebx
0x06ff495a:  e8 d8 c8 ff ff           calll    0x6ff1237

----------------
IN: 
0x06ff1237:  56                       pushl    %esi
0x06ff1238:  53                       pushl    %ebx
0x06ff1239:  89 c6                    movl     %eax, %esi
0x06ff123b:  89 d3                    movl     %edx, %ebx
0x06ff123d:  8d 42 ff                 leal     -1(%edx), %eax
0x06ff1240:  83 f8 07                 cmpl     $7, %eax
0x06ff1243:  76 0f                    jbe      0x6ff1254

----------------
IN: 
0x06ff1254:  b8 2c 00 00 00           movl     $0x2c, %eax
0x06ff1259:  e8 d2 cb ff ff           calll    0x6fede30

----------------
IN: 
0x06ff125e:  85 c0                    testl    %eax, %eax
0x06ff1260:  75 13                    jne      0x6ff1275

----------------
IN: 
0x06ff1275:  b9 2c 00 00 00           movl     $0x2c, %ecx
0x06ff127a:  31 d2                    xorl     %edx, %edx
0x06ff127c:  e8 d9 8d 0f f9           calll    0xea05a

----------------
IN: 
0x06ff1281:  89 70 14                 movl     %esi, 0x14(%eax)
0x06ff1284:  c6 00 10                 movb     $0x10, (%eax)
0x06ff1287:  66 c7 40 1a 00 02        movw     $0x200, 0x1a(%eax)
0x06ff128d:  88 58 01                 movb     %bl, 1(%eax)
0x06ff1290:  c7 40 0c ff ff ff ff     movl     $0xffffffff, 0xc(%eax)
0x06ff1297:  c7 40 10 ff ff ff ff     movl     $0xffffffff, 0x10(%eax)
0x06ff129e:  6b db 0a                 imull    $0xa, %ebx, %ebx
0x06ff12a1:  8b 93 20 60 0f 00        movl     0xf6020(%ebx), %edx
0x06ff12a7:  89 50 02                 movl     %edx, 2(%eax)
0x06ff12aa:  8b 93 24 60 0f 00        movl     0xf6024(%ebx), %edx
0x06ff12b0:  89 50 06                 movl     %edx, 6(%eax)
0x06ff12b3:  5b                       popl     %ebx
0x06ff12b4:  5e                       popl     %esi
0x06ff12b5:  c3                       retl     

----------------
IN: 
0x06ff495f:  85 c0                    testl    %eax, %eax
0x06ff4961:  0f 84 85 00 00 00        je       0x6ff49ec

----------------
IN: 
0x06ff4967:  89 c6                    movl     %eax, %esi
0x06ff4969:  8d 43 41                 leal     0x41(%ebx), %eax
0x06ff496c:  50                       pushl    %eax
0x06ff496d:  68 4e 14 0f 00           pushl    $0xf144e
0x06ff4972:  6a 50                    pushl    $0x50
0x06ff4974:  e8 37 f1 ff ff           calll    0x6ff3ab0

----------------
IN: 
0x06ff3ab0:  53                       pushl    %ebx
0x06ff3ab1:  83 ec 0c                 subl     $0xc, %esp
0x06ff3ab4:  8b 44 24 14              movl     0x14(%esp), %eax
0x06ff3ab8:  e8 42 a3 ff ff           calll    0x6feddff

----------------
IN: 
0x06ff3abd:  89 c3                    movl     %eax, %ebx
0x06ff3abf:  85 c0                    testl    %eax, %eax
0x06ff3ac1:  75 11                    jne      0x6ff3ad4

----------------
IN: 
0x06ff3ad4:  c7 04 24 a0 b1 fe 06     movl     $0x6feb1a0, (%esp)
0x06ff3adb:  89 44 24 04              movl     %eax, 4(%esp)
0x06ff3adf:  8b 44 24 14              movl     0x14(%esp), %eax
0x06ff3ae3:  01 d8                    addl     %ebx, %eax
0x06ff3ae5:  89 44 24 08              movl     %eax, 8(%esp)
0x06ff3ae9:  8d 4c 24 1c              leal     0x1c(%esp), %ecx
0x06ff3aed:  8b 54 24 18              movl     0x18(%esp), %edx
0x06ff3af1:  89 e0                    movl     %esp, %eax
0x06ff3af3:  e8 f8 78 0f f9           calll    0xeb3f0

----------------
IN: 
0x000eb48c:  3c 63                    cmpb     $0x63, %al
0x000eb48e:  0f 85 b4 01 00 00        jne      0xeb648

----------------
IN: 
0x000eb494:  8d 7b 04                 leal     4(%ebx), %edi
0x000eb497:  0f be 13                 movsbl   (%ebx), %edx
0x000eb49a:  8b 04 24                 movl     (%esp), %eax
0x000eb49d:  e8 b9 da ff ff           calll    0xe8f5b

----------------
IN: 
0x000eb4a2:  e9 b2 01 00 00           jmp      0xeb659

----------------
IN: 
0x06ff3af8:  8b 44 24 04              movl     4(%esp), %eax
0x06ff3afc:  8b 54 24 08              movl     8(%esp), %edx
0x06ff3b00:  39 d0                    cmpl     %edx, %eax
0x06ff3b02:  72 03                    jb       0x6ff3b07

----------------
IN: 
0x06ff3b07:  c6 00 00                 movb     $0, (%eax)
0x06ff3b0a:  89 d8                    movl     %ebx, %eax
0x06ff3b0c:  83 c4 0c                 addl     $0xc, %esp
0x06ff3b0f:  5b                       popl     %ebx
0x06ff3b10:  c3                       retl     

----------------
IN: 
0x06ff4979:  89 c7                    movl     %eax, %edi
0x06ff497b:  a1 c0 fd ff 06           movl     0x6fffdc0, %eax
0x06ff4980:  8d 48 fc                 leal     -4(%eax), %ecx
0x06ff4983:  83 c4 0c                 addl     $0xc, %esp
0x06ff4986:  83 f9 fc                 cmpl     $-4, %ecx
0x06ff4989:  74 4d                    je       0x6ff49d8

----------------
IN: 
0x06ff498b:  66 81 79 14 01 06        cmpw     $0x601, 0x14(%ecx)
0x06ff4991:  74 08                    je       0x6ff499b

----------------
IN: 
0x06ff4993:  8b 49 04                 movl     4(%ecx), %ecx
0x06ff4996:  83 e9 04                 subl     $4, %ecx
0x06ff4999:  eb eb                    jmp      0x6ff4986

----------------
IN: 
0x06ff4986:  83 f9 fc                 cmpl     $-4, %ecx
0x06ff4989:  74 4d                    je       0x6ff49d8

----------------
IN: 
0x06ff499b:  85 c9                    testl    %ecx, %ecx
0x06ff499d:  74 39                    je       0x6ff49d8

----------------
IN: 
0x06ff499f:  ba 60 14 0f 00           movl     $0xf1460, %edx
0x06ff49a4:  89 e0                    movl     %esp, %eax
0x06ff49a6:  e8 9c ed ff ff           calll    0x6ff3747

----------------
IN: 
0x06ff3747:  55                       pushl    %ebp
0x06ff3748:  57                       pushl    %edi
0x06ff3749:  56                       pushl    %esi
0x06ff374a:  53                       pushl    %ebx
0x06ff374b:  89 c6                    movl     %eax, %esi
0x06ff374d:  89 d7                    movl     %edx, %edi
0x06ff374f:  89 cd                    movl     %ecx, %ebp
0x06ff3751:  8b 49 0c                 movl     0xc(%ecx), %ecx
0x06ff3754:  85 c9                    testl    %ecx, %ecx
0x06ff3756:  74 0e                    je       0x6ff3766

----------------
IN: 
0x06ff3766:  68 42 10 0f 00           pushl    $0xf1042
0x06ff376b:  68 4d 10 0f 00           pushl    $0xf104d
0x06ff3770:  68 00 01 00 00           pushl    $0x100
0x06ff3775:  50                       pushl    %eax
0x06ff3776:  e8 e6 ea ff ff           calll    0x6ff2261

----------------
IN: 
0x06ff377b:  8d 1c 06                 leal     (%esi, %eax), %ebx
0x06ff377e:  0f b6 55 02              movzbl   2(%ebp), %edx
0x06ff3782:  83 c4 10                 addl     $0x10, %esp
0x06ff3785:  84 d2                    testb    %dl, %dl
0x06ff3787:  74 19                    je       0x6ff37a2

----------------
IN: 
0x06ff37a2:  8b 45 00                 movl     (%ebp), %eax
0x06ff37a5:  88 c1                    movb     %al, %cl
0x06ff37a7:  83 e1 07                 andl     $7, %ecx
0x06ff37aa:  89 cd                    movl     %ecx, %ebp
0x06ff37ac:  81 c6 00 01 00 00        addl     $0x100, %esi
0x06ff37b2:  c0 e8 03                 shrb     $3, %al
0x06ff37b5:  0f b6 c0                 movzbl   %al, %eax
0x06ff37b8:  50                       pushl    %eax
0x06ff37b9:  57                       pushl    %edi
0x06ff37ba:  68 54 10 0f 00           pushl    $0xf1054
0x06ff37bf:  89 f0                    movl     %esi, %eax
0x06ff37c1:  29 d8                    subl     %ebx, %eax
0x06ff37c3:  50                       pushl    %eax
0x06ff37c4:  53                       pushl    %ebx
0x06ff37c5:  e8 97 ea ff ff           calll    0x6ff2261

----------------
IN: 
0x06ff37ca:  01 c3                    addl     %eax, %ebx
0x06ff37cc:  83 c4 14                 addl     $0x14, %esp
0x06ff37cf:  89 e8                    movl     %ebp, %eax
0x06ff37d1:  84 c0                    testb    %al, %al
0x06ff37d3:  74 17                    je       0x6ff37ec

----------------
IN: 
0x06ff37ec:  89 d8                    movl     %ebx, %eax
0x06ff37ee:  5b                       popl     %ebx
0x06ff37ef:  5e                       popl     %esi
0x06ff37f0:  5f                       popl     %edi
0x06ff37f1:  5d                       popl     %ebp
0x06ff37f2:  c3                       retl     

----------------
IN: 
0x06ff49ab:  53                       pushl    %ebx
0x06ff49ac:  68 f0 03 00 00           pushl    $0x3f0
0x06ff49b1:  68 64 14 0f 00           pushl    $0xf1464
0x06ff49b6:  8d 94 24 0c 01 00 00     leal     0x10c(%esp), %edx
0x06ff49bd:  29 c2                    subl     %eax, %edx
0x06ff49bf:  52                       pushl    %edx
0x06ff49c0:  50                       pushl    %eax
0x06ff49c1:  e8 9b d8 ff ff           calll    0x6ff2261

----------------
IN: 
0x06ff49c6:  8d 44 24 14              leal     0x14(%esp), %eax
0x06ff49ca:  e8 35 a7 ff ff           calll    0x6fef104

----------------
IN: 
0x06fef104:  55                       pushl    %ebp
0x06fef105:  57                       pushl    %edi
0x06fef106:  56                       pushl    %esi
0x06fef107:  53                       pushl    %ebx
0x06fef108:  89 c6                    movl     %eax, %esi
0x06fef10a:  50                       pushl    %eax
0x06fef10b:  68 4e ff 0e 00           pushl    $0xeff4e
0x06fef110:  e8 4a cb 0f f9           calll    0xebc5f

----------------
IN: 
0x06fef115:  8b 3d 2c ff ff 06        movl     0x6ffff2c, %edi
0x06fef11b:  8b 2d 34 fe ff 06        movl     0x6fffe34, %ebp
0x06fef121:  58                       popl     %eax
0x06fef122:  5a                       popl     %edx
0x06fef123:  31 db                    xorl     %ebx, %ebx
0x06fef125:  39 df                    cmpl     %ebx, %edi
0x06fef127:  7e 12                    jle      0x6fef13b

----------------
IN: 
0x06fef13b:  83 cb ff                 orl      $0xffffffff, %ebx
0x06fef13e:  89 d8                    movl     %ebx, %eax
0x06fef140:  5b                       popl     %ebx
0x06fef141:  5e                       popl     %esi
0x06fef142:  5f                       popl     %edi
0x06fef143:  5d                       popl     %ebp
0x06fef144:  c3                       retl     

----------------
IN: 
0x06ff49cf:  89 c2                    movl     %eax, %edx
0x06ff49d1:  83 c4 14                 addl     $0x14, %esp
0x06ff49d4:  85 c0                    testl    %eax, %eax
0x06ff49d6:  79 06                    jns      0x6ff49de

----------------
IN: 
0x06ff49d8:  8b 15 30 fe ff 06        movl     0x6fffe30, %edx
0x06ff49de:  57                       pushl    %edi
0x06ff49df:  89 f1                    movl     %esi, %ecx
0x06ff49e1:  b8 01 00 00 00           movl     $1, %eax
0x06ff49e6:  e8 b2 95 ff ff           calll    0x6fedf9d

----------------
IN: 
0x06fedf9d:  55                       pushl    %ebp
0x06fedf9e:  57                       pushl    %edi
0x06fedf9f:  56                       pushl    %esi
0x06fedfa0:  53                       pushl    %ebx
0x06fedfa1:  56                       pushl    %esi
0x06fedfa2:  89 c3                    movl     %eax, %ebx
0x06fedfa4:  89 d7                    movl     %edx, %edi
0x06fedfa6:  89 ce                    movl     %ecx, %esi
0x06fedfa8:  8b 6c 24 18              movl     0x18(%esp), %ebp
0x06fedfac:  b8 18 00 00 00           movl     $0x18, %eax
0x06fedfb1:  e8 49 fe ff ff           calll    0x6feddff

----------------
IN: 
0x06fedfb6:  85 c0                    testl    %eax, %eax
0x06fedfb8:  75 14                    jne      0x6fedfce

----------------
IN: 
0x06fedfce:  89 18                    movl     %ebx, (%eax)
0x06fedfd0:  89 78 08                 movl     %edi, 8(%eax)
0x06fedfd3:  89 70 04                 movl     %esi, 4(%eax)
0x06fedfd6:  85 ed                    testl    %ebp, %ebp
0x06fedfd8:  75 05                    jne      0x6fedfdf

----------------
IN: 
0x06fedfdf:  89 68 0c                 movl     %ebp, 0xc(%eax)
0x06fedfe2:  8b 15 20 fe ff 06        movl     0x6fffe20, %edx
0x06fedfe8:  c7 04 24 20 fe ff 06     movl     $0x6fffe20, (%esp)
0x06fedfef:  85 d2                    testl    %edx, %edx
0x06fedff1:  75 10                    jne      0x6fee003

----------------
IN: 
0x06fedff3:  83 c0 10                 addl     $0x10, %eax
0x06fedff6:  8b 14 24                 movl     (%esp), %edx
0x06fedff9:  59                       popl     %ecx
0x06fedffa:  5b                       popl     %ebx
0x06fedffb:  5e                       popl     %esi
0x06fedffc:  5f                       popl     %edi
0x06fedffd:  5d                       popl     %ebp

----------------
IN: 
0x06fedffe:  e9 8c d1 ff ff           jmp      0x6feb18f

----------------
IN: 
0x06ff49eb:  58                       popl     %eax
0x06ff49ec:  81 c4 00 01 00 00        addl     $0x100, %esp
0x06ff49f2:  5b                       popl     %ebx
0x06ff49f3:  5e                       popl     %esi
0x06ff49f4:  5f                       popl     %edi
0x06ff49f5:  c3                       retl     

----------------
IN: 
0x06ff8a9c:  8a 14 24                 movb     (%esp), %dl
0x06ff8a9f:  80 e2 0f                 andb     $0xf, %dl
0x06ff8aa2:  74 0d                    je       0x6ff8ab1

----------------
IN: 
0x06ff8ab1:  ba 57 ef 0f 00           movl     $0xfef57, %edx
0x06ff8ab6:  0f b7 d2                 movzwl   %dx, %edx
0x06ff8ab9:  81 ca 00 00 00 f0        orl      $0xf0000000, %edx
0x06ff8abf:  b8 06 00 00 00           movl     $6, %eax
0x06ff8ac4:  e8 90 3d ff ff           calll    0x6fec859

----------------
IN: 
0x06ff8ac9:  b8 00 7d 00 00           movl     $0x7d00, %eax
0x06ff8ace:  e8 29 27 0f f9           calll    0xeb1fc

----------------
IN: 
0x06ff8ad3:  a3 38 ff ff 06           movl     %eax, 0x6ffff38
0x06ff8ad8:  a1 c0 fd ff 06           movl     0x6fffdc0, %eax
0x06ff8add:  8d 58 fc                 leal     -4(%eax), %ebx
0x06ff8ae0:  85 c0                    testl    %eax, %eax
0x06ff8ae2:  75 36                    jne      0x6ff8b1a

----------------
IN: 
0x06ff8b1a:  83 fb fc                 cmpl     $-4, %ebx
0x06ff8b1d:  74 16                    je       0x6ff8b35

----------------
IN: 
0x06ff8b1f:  31 c9                    xorl     %ecx, %ecx
0x06ff8b21:  89 da                    movl     %ebx, %edx
0x06ff8b23:  b8 c0 fb ff 06           movl     $0x6fffbc0, %eax
0x06ff8b28:  e8 1b 2d ff ff           calll    0x6feb848

----------------
IN: 
0x06ff8b2d:  8b 5b 04                 movl     4(%ebx), %ebx
0x06ff8b30:  83 eb 04                 subl     $4, %ebx
0x06ff8b33:  eb e5                    jmp      0x6ff8b1a

----------------
IN: 
0x06ff1ed2:  55                       pushl    %ebp
0x06ff1ed3:  57                       pushl    %edi
0x06ff1ed4:  56                       pushl    %esi
0x06ff1ed5:  53                       pushl    %ebx
0x06ff1ed6:  89 c3                    movl     %eax, %ebx
0x06ff1ed8:  0f b6 78 16              movzbl   0x16(%eax), %edi
0x06ff1edc:  0f b7 00                 movzwl   (%eax), %eax
0x06ff1edf:  ba 3c 00 00 00           movl     $0x3c, %edx
0x06ff1ee4:  e8 5e 73 0f f9           calll    0xe9247

----------------
IN: 
0x06ff1ee9:  89 c5                    movl     %eax, %ebp
0x06ff1eeb:  f7 c7 01 00 00 00        testl    $1, %edi
0x06ff1ef1:  74 2d                    je       0x6ff1f20

----------------
IN: 
0x06ff1f20:  b9 0e 00 00 00           movl     $0xe, %ecx
0x06ff1f25:  b8 f4 03 00 00           movl     $0x3f4, %eax
0x06ff1f2a:  be f0 01 00 00           movl     $0x1f0, %esi
0x06ff1f2f:  50                       pushl    %eax
0x06ff1f30:  56                       pushl    %esi
0x06ff1f31:  31 d2                    xorl     %edx, %edx
0x06ff1f33:  89 d8                    movl     %ebx, %eax
0x06ff1f35:  e8 f7 fe ff ff           calll    0x6ff1e31

----------------
IN: 
0x06ff1e31:  55                       pushl    %ebp
0x06ff1e32:  57                       pushl    %edi
0x06ff1e33:  56                       pushl    %esi
0x06ff1e34:  53                       pushl    %ebx
0x06ff1e35:  83 ec 08                 subl     $8, %esp
0x06ff1e38:  89 c6                    movl     %eax, %esi
0x06ff1e3a:  89 14 24                 movl     %edx, (%esp)
0x06ff1e3d:  89 cf                    movl     %ecx, %edi
0x06ff1e3f:  8b 6c 24 1c              movl     0x1c(%esp), %ebp
0x06ff1e43:  8b 4c 24 20              movl     0x20(%esp), %ecx
0x06ff1e47:  89 4c 24 04              movl     %ecx, 4(%esp)
0x06ff1e4b:  b8 14 00 00 00           movl     $0x14, %eax
0x06ff1e50:  e8 db bf ff ff           calll    0x6fede30

----------------
IN: 
0x06ff1e55:  85 c0                    testl    %eax, %eax
0x06ff1e57:  8b 4c 24 04              movl     4(%esp), %ecx
0x06ff1e5b:  75 16                    jne      0x6ff1e73

----------------
IN: 
0x06ff1e73:  89 c3                    movl     %eax, %ebx
0x06ff1e75:  8b 15 e0 fe ff 06        movl     0x6fffee0, %edx
0x06ff1e7b:  8d 42 01                 leal     1(%edx), %eax
0x06ff1e7e:  a3 e0 fe ff 06           movl     %eax, 0x6fffee0
0x06ff1e83:  88 53 08                 movb     %dl, 8(%ebx)
0x06ff1e86:  8a 14 24                 movb     (%esp), %dl
0x06ff1e89:  88 53 07                 movb     %dl, 7(%ebx)
0x06ff1e8c:  89 fa                    movl     %edi, %edx
0x06ff1e8e:  88 53 06                 movb     %dl, 6(%ebx)
0x06ff1e91:  83 ca ff                 orl      $0xffffffff, %edx
0x06ff1e94:  85 f6                    testl    %esi, %esi
0x06ff1e96:  74 03                    je       0x6ff1e9b

----------------
IN: 
0x06ff1e98:  0f b7 16                 movzwl   (%esi), %edx
0x06ff1e9b:  89 53 0c                 movl     %edx, 0xc(%ebx)
0x06ff1e9e:  89 73 10                 movl     %esi, 0x10(%ebx)
0x06ff1ea1:  66 89 2b                 movw     %bp, (%ebx)
0x06ff1ea4:  66 89 4b 02              movw     %cx, 2(%ebx)
0x06ff1ea8:  66 c7 43 04 00 00        movw     $0, 4(%ebx)
0x06ff1eae:  52                       pushl    %edx
0x06ff1eaf:  57                       pushl    %edi
0x06ff1eb0:  6a 00                    pushl    $0
0x06ff1eb2:  51                       pushl    %ecx
0x06ff1eb3:  55                       pushl    %ebp
0x06ff1eb4:  50                       pushl    %eax
0x06ff1eb5:  68 82 0c 0f 00           pushl    $0xf0c82
0x06ff1eba:  e8 a0 9d 0f f9           calll    0xebc5f

----------------
IN: 
0x06ff1ebf:  89 da                    movl     %ebx, %edx
0x06ff1ec1:  b8 5d 99 ff 06           movl     $0x6ff995d, %eax
0x06ff1ec6:  83 c4 24                 addl     $0x24, %esp
0x06ff1ec9:  5b                       popl     %ebx
0x06ff1eca:  5e                       popl     %esi
0x06ff1ecb:  5f                       popl     %edi
0x06ff1ecc:  5d                       popl     %ebp
0x06ff1ecd:  e9 82 be ff ff           jmp      0x6fedd54

----------------
IN: 
0x06ff995d:  55                       pushl    %ebp
0x06ff995e:  57                       pushl    %edi
0x06ff995f:  56                       pushl    %esi
0x06ff9960:  53                       pushl    %ebx
0x06ff9961:  81 ec 74 02 00 00        subl     $0x274, %esp
0x06ff9967:  89 44 24 0c              movl     %eax, 0xc(%esp)
0x06ff996b:  b9 34 00 00 00           movl     $0x34, %ecx
0x06ff9970:  31 d2                    xorl     %edx, %edx
0x06ff9972:  8d 44 24 40              leal     0x40(%esp), %eax
0x06ff9976:  e8 df 06 0f f9           calll    0xea05a

----------------
IN: 
0x06ff997b:  8b 44 24 0c              movl     0xc(%esp), %eax
0x06ff997f:  89 44 24 6c              movl     %eax, 0x6c(%esp)
0x06ff9983:  c6 44 24 03 00           movb     $0, 3(%esp)
0x06ff9988:  31 f6                    xorl     %esi, %esi
0x06ff998a:  8b 44 24 0c              movl     0xc(%esp), %eax
0x06ff998e:  0f b7 00                 movzwl   (%eax), %eax
0x06ff9991:  89 c5                    movl     %eax, %ebp
0x06ff9993:  89 44 24 10              movl     %eax, 0x10(%esp)
0x06ff9997:  e8 8d 50 ff ff           calll    0x6feea29

----------------
IN: 
0x06feea29:  56                       pushl    %esi
0x06feea2a:  53                       pushl    %ebx
0x06feea2b:  89 c6                    movl     %eax, %esi
0x06feea2d:  31 db                    xorl     %ebx, %ebx
0x06feea2f:  8d 56 07                 leal     7(%esi), %edx
0x06feea32:  ec                       inb      %dx, %al

----------------
IN: 
0x06feea33:  84 c0                    testb    %al, %al
0x06feea35:  79 30                    jns      0x6feea67

----------------
IN: 
0x06feea67:  0f b6 c0                 movzbl   %al, %eax
0x06feea6a:  eb 05                    jmp      0x6feea71

----------------
IN: 
0x06feea71:  5b                       popl     %ebx
0x06feea72:  5e                       popl     %esi
0x06feea73:  c3                       retl     

----------------
IN: 
0x06ff999c:  85 c0                    testl    %eax, %eax
0x06ff999e:  0f 88 d0 03 00 00        js       0x6ff9d74

----------------
IN: 
0x06ff99a4:  80 7c 24 03 01           cmpb     $1, 3(%esp)
0x06ff99a9:  19 db                    sbbl     %ebx, %ebx
0x06ff99ab:  83 e3 f0                 andl     $0xfffffff0, %ebx
0x06ff99ae:  83 eb 50                 subl     $0x50, %ebx
0x06ff99b1:  8d 45 06                 leal     6(%ebp), %eax
0x06ff99b4:  66 89 44 24 04           movw     %ax, 4(%esp)
0x06ff99b9:  88 d8                    movb     %bl, %al
0x06ff99bb:  8b 54 24 04              movl     4(%esp), %edx
0x06ff99bf:  ee                       outb     %al, %dx

----------------
IN: 
0x06ff99c0:  e8 c7 17 0f f9           calll    0xeb18c

----------------
IN: 
0x06ff99c5:  89 c1                    movl     %eax, %ecx
0x06ff99c7:  69 05 9c 60 0f 00 90 01  imull    $0x190, 0xf609c, %eax
0x06ff99cf:  00 00
0x06ff99d1:  05 3f 42 0f 00           addl     $0xf423f, %eax
0x06ff99d6:  bf 40 42 0f 00           movl     $0xf4240, %edi
0x06ff99db:  31 d2                    xorl     %edx, %edx
0x06ff99dd:  f7 f7                    divl     %edi
0x06ff99df:  01 c8                    addl     %ecx, %eax
0x06ff99e1:  e8 81 18 0f f9           calll    0xeb267

----------------
IN: 
0x000eb267:  53                       pushl    %ebx
0x000eb268:  89 c3                    movl     %eax, %ebx
0x000eb26a:  89 d8                    movl     %ebx, %eax
0x000eb26c:  e8 e2 ff ff ff           calll    0xeb253

----------------
IN: 
0x000eb253:  53                       pushl    %ebx
0x000eb254:  89 c3                    movl     %eax, %ebx
0x000eb256:  e8 31 ff ff ff           calll    0xeb18c

----------------
IN: 
0x000eb25b:  29 d8                    subl     %ebx, %eax
0x000eb25d:  85 c0                    testl    %eax, %eax
0x000eb25f:  0f 9f c0                 setg     %al
0x000eb262:  0f b6 c0                 movzbl   %al, %eax
0x000eb265:  5b                       popl     %ebx
0x000eb266:  c3                       retl     

----------------
IN: 
0x000eb271:  85 c0                    testl    %eax, %eax
0x000eb273:  75 04                    jne      0xeb279

----------------
IN: 
0x000eb279:  5b                       popl     %ebx
0x000eb27a:  c3                       retl     

----------------
IN: 
0x06ff99e6:  0f b7 c5                 movzwl   %bp, %eax
0x06ff99e9:  e8 3b 50 ff ff           calll    0x6feea29

----------------
IN: 
0x06ff99ee:  85 c0                    testl    %eax, %eax
0x06ff99f0:  0f 88 7e 03 00 00        js       0x6ff9d74

----------------
IN: 
0x06ff99f6:  88 d8                    movb     %bl, %al
0x06ff99f8:  8b 54 24 04              movl     4(%esp), %edx
0x06ff99fc:  ee                       outb     %al, %dx

----------------
IN: 
0x06ff99fd:  ec                       inb      %dx, %al

----------------
IN: 
0x06ff99fe:  88 44 24 04              movb     %al, 4(%esp)
0x06ff9a02:  8d 4d 02                 leal     2(%ebp), %ecx
0x06ff9a05:  b0 55                    movb     $0x55, %al
0x06ff9a07:  89 ca                    movl     %ecx, %edx
0x06ff9a09:  ee                       outb     %al, %dx

----------------
IN: 
0x06ff9a0a:  8d 7d 03                 leal     3(%ebp), %edi
0x06ff9a0d:  b0 aa                    movb     $0xaa, %al
0x06ff9a0f:  89 fa                    movl     %edi, %edx
0x06ff9a11:  ee                       outb     %al, %dx

----------------
IN: 
0x06ff9a12:  89 ca                    movl     %ecx, %edx
0x06ff9a14:  ec                       inb      %dx, %al

----------------
IN: 
0x06ff9a15:  88 c1                    movb     %al, %cl
0x06ff9a17:  89 fa                    movl     %edi, %edx
0x06ff9a19:  ec                       inb      %dx, %al

----------------
IN: 
0x06ff9a1a:  3c aa                    cmpb     $0xaa, %al
0x06ff9a1c:  0f 95 c0                 setne    %al
0x06ff9a1f:  80 f9 55                 cmpb     $0x55, %cl
0x06ff9a22:  0f 95 c2                 setne    %dl
0x06ff9a25:  08 d0                    orb      %dl, %al
0x06ff9a27:  0f 85 47 03 00 00        jne      0x6ff9d74

----------------
IN: 
0x06ff9a2d:  3a 5c 24 04              cmpb     4(%esp), %bl
0x06ff9a31:  0f 85 3d 03 00 00        jne      0x6ff9d74

----------------
IN: 
0x06ff9a37:  8a 44 24 03              movb     3(%esp), %al
0x06ff9a3b:  88 44 24 70              movb     %al, 0x70(%esp)
0x06ff9a3f:  85 f6                    testl    %esi, %esi
0x06ff9a41:  0f 85 af 00 00 00        jne      0x6ff9af6

----------------
IN: 
0x06ff9a47:  8b 44 24 6c              movl     0x6c(%esp), %eax
0x06ff9a4b:  0f b7 30                 movzwl   (%eax), %esi
0x06ff9a4e:  89 f7                    movl     %esi, %edi
0x06ff9a50:  66 8b 40 02              movw     2(%eax), %ax
0x06ff9a54:  83 c0 02                 addl     $2, %eax
0x06ff9a57:  66 89 44 24 04           movw     %ax, 4(%esp)
0x06ff9a5c:  b0 0e                    movb     $0xe, %al
0x06ff9a5e:  8b 54 24 04              movl     4(%esp), %edx
0x06ff9a62:  ee                       outb     %al, %dx

----------------
IN: 
0x06ff9a63:  b8 05 00 00 00           movl     $5, %eax
0x06ff9a68:  e8 0e 18 0f f9           calll    0xeb27b

----------------
IN: 
0x000eb27b:  e8 8f ff ff ff           calll    0xeb20f

----------------
IN: 
0x000eb20f:  56                       pushl    %esi
0x000eb210:  53                       pushl    %ebx
0x000eb211:  89 c3                    movl     %eax, %ebx
0x000eb213:  e8 74 ff ff ff           calll    0xeb18c

----------------
IN: 
0x000eb218:  89 c1                    movl     %eax, %ecx
0x000eb21a:  8b 35 9c 60 0f 00        movl     0xf609c, %esi
0x000eb220:  81 fb 20 a1 07 00        cmpl     $0x7a120, %ebx
0x000eb226:  76 14                    jbe      0xeb23c

----------------
IN: 
0x000eb23c:  0f af f3                 imull    %ebx, %esi
0x000eb23f:  8d 86 e7 03 00 00        leal     0x3e7(%esi), %eax
0x000eb245:  bb e8 03 00 00           movl     $0x3e8, %ebx
0x000eb24a:  31 d2                    xorl     %edx, %edx
0x000eb24c:  f7 f3                    divl     %ebx
0x000eb24e:  01 c8                    addl     %ecx, %eax
0x000eb250:  5b                       popl     %ebx
0x000eb251:  5e                       popl     %esi
0x000eb252:  c3                       retl     

----------------
IN: 
0x000eb280:  e9 e2 ff ff ff           jmp      0xeb267

----------------
IN: 
0x06ff9a6d:  b0 0a                    movb     $0xa, %al
0x06ff9a6f:  8b 54 24 04              movl     4(%esp), %edx
0x06ff9a73:  ee                       outb     %al, %dx

----------------
IN: 
0x06ff9a74:  b8 02 00 00 00           movl     $2, %eax
0x06ff9a79:  e8 7c 3a ff ff           calll    0x6fed4fa

----------------
IN: 
0x06fed4fa:  53                       pushl    %ebx
0x06fed4fb:  e8 fc dc 0f f9           calll    0xeb1fc

----------------
IN: 
0x06fed500:  89 c3                    movl     %eax, %ebx
0x06fed502:  89 d8                    movl     %ebx, %eax
0x06fed504:  e8 4a dd 0f f9           calll    0xeb253

----------------
IN: 
0x06fed509:  85 c0                    testl    %eax, %eax
0x06fed50b:  75 07                    jne      0x6fed514

----------------
IN: 
0x06fed50d:  e8 5c e3 0f f9           calll    0xeb86e

----------------
IN: 
0x000e8f56:  5b                       popl     %ebx
0x000e8f57:  5e                       popl     %esi
0x000e8f58:  5f                       popl     %edi
0x000e8f59:  c3                       retl     

----------------
IN: 
0x000eb899:  5b                       popl     %ebx
0x000eb89a:  c3                       retl     

----------------
IN: 
0x06ff1bd1:  8a 44 24 03              movb     3(%esp), %al
0x06ff1bd5:  a2 6c 86 0e 00           movb     %al, 0xe866c
0x06ff1bda:  83 e0 ef                 andl     $0xffffffef, %eax
0x06ff1bdd:  88 44 24 03              movb     %al, 3(%esp)
0x06ff1be1:  8d 54 24 03              leal     3(%esp), %edx
0x06ff1be5:  b8 60 10 00 00           movl     $0x1060, %eax
0x06ff1bea:  e8 56 c8 ff ff           calll    0x6fee445

----------------
IN: 
0x06ff1bef:  89 c3                    movl     %eax, %ebx
0x06ff1bf1:  85 c0                    testl    %eax, %eax
0x06ff1bf3:  75 69                    jne      0x6ff1c5e

----------------
IN: 
0x06ff1bf5:  89 f0                    movl     %esi, %eax
0x06ff1bf7:  0f b6 c0                 movzbl   %al, %eax
0x06ff1bfa:  89 f1                    movl     %esi, %ecx
0x06ff1bfc:  fe c1                    incb     %cl
0x06ff1bfe:  75 15                    jne      0x6ff1c15

----------------
IN: 
0x06ff1c00:  ba e8 03 00 00           movl     $0x3e8, %edx
0x06ff1c05:  e8 57 ff ff ff           calll    0x6ff1b61

----------------
IN: 
0x06ff1b61:  56                       pushl    %esi
0x06ff1b62:  51                       pushl    %ecx
0x06ff1b63:  89 14 24                 movl     %edx, (%esp)
0x06ff1b66:  89 c6                    movl     %eax, %esi
0x06ff1b68:  e8 c4 a1 0f f9           calll    0xebd31

----------------
IN: 
0x06ff1b6d:  85 c0                    testl    %eax, %eax
0x06ff1b6f:  75 22                    jne      0x6ff1b93

----------------
IN: 
0x06ff1b71:  89 f0                    movl     %esi, %eax
0x06ff1b73:  e6 60                    outb     %al, $0x60

----------------
IN: 
0x06ff1b75:  8b 14 24                 movl     (%esp), %edx
0x06ff1b78:  b8 01 00 00 00           movl     $1, %eax
0x06ff1b7d:  e8 5c ff ff ff           calll    0x6ff1ade

----------------
IN: 
0x06ff1ade:  56                       pushl    %esi
0x06ff1adf:  53                       pushl    %ebx
0x06ff1ae0:  89 c6                    movl     %eax, %esi
0x06ff1ae2:  89 d0                    movl     %edx, %eax
0x06ff1ae4:  e8 13 97 0f f9           calll    0xeb1fc

----------------
IN: 
0x06ff1ae9:  89 c3                    movl     %eax, %ebx
0x06ff1aeb:  e4 64                    inb      $0x64, %al

----------------
IN: 
0x06ff1aed:  0f b6 d0                 movzbl   %al, %edx
0x06ff1af0:  f6 c2 01                 testb    $1, %dl
0x06ff1af3:  74 3e                    je       0x6ff1b33

----------------
IN: 
0x06ff1af5:  e4 60                    inb      $0x60, %al

----------------
IN: 
0x06ff1af7:  f6 c2 20                 testb    $0x20, %dl
0x06ff1afa:  75 25                    jne      0x6ff1b21

----------------
IN: 
0x06ff1afc:  85 f6                    testl    %esi, %esi
0x06ff1afe:  75 05                    jne      0x6ff1b05

----------------
IN: 
0x06ff1b05:  3c fa                    cmpb     $0xfa, %al
0x06ff1b07:  74 50                    je       0x6ff1b59

----------------
IN: 
0x06ff1b59:  b8 fa 00 00 00           movl     $0xfa, %eax
0x06ff1b5e:  5b                       popl     %ebx
0x06ff1b5f:  5e                       popl     %esi
0x06ff1b60:  c3                       retl     

----------------
IN: 
0x06ff1b82:  85 c0                    testl    %eax, %eax
0x06ff1b84:  78 0d                    js       0x6ff1b93

----------------
IN: 
0x06ff1b86:  3d fa 00 00 00           cmpl     $0xfa, %eax
0x06ff1b8b:  0f 95 c0                 setne    %al
0x06ff1b8e:  0f b6 c0                 movzbl   %al, %eax
0x06ff1b91:  f7 d8                    negl     %eax
0x06ff1b93:  5a                       popl     %edx
0x06ff1b94:  5e                       popl     %esi
0x06ff1b95:  c3                       retl     

----------------
IN: 
0x06ff1c0a:  ba a0 0f 00 00           movl     $0xfa0, %edx
0x06ff1c0f:  85 c0                    testl    %eax, %eax
0x06ff1c11:  75 49                    jne      0x6ff1c5c

----------------
IN: 
0x06ff1c13:  eb 3a                    jmp      0x6ff1c4f

----------------
IN: 
0x06ff1c4f:  e8 8a fe ff ff           calll    0x6ff1ade

----------------
IN: 
0x06ff1b00:  0f b6 c0                 movzbl   %al, %eax
0x06ff1b03:  eb 59                    jmp      0x6ff1b5e

----------------
IN: 
0x06ff1b5e:  5b                       popl     %ebx
0x06ff1b5f:  5e                       popl     %esi
0x06ff1b60:  c3                       retl     

----------------
IN: 
0x06ff1c54:  85 c0                    testl    %eax, %eax
0x06ff1c56:  78 04                    js       0x6ff1c5c

----------------
IN: 
0x06ff1c58:  88 07                    movb     %al, (%edi)
0x06ff1c5a:  eb 02                    jmp      0x6ff1c5e

----------------
IN: 
0x06ff1c5e:  89 e8                    movl     %ebp, %eax
0x06ff1c60:  a2 6c 86 0e 00           movb     %al, 0xe866c
0x06ff1c65:  8d 54 24 02              leal     2(%esp), %edx
0x06ff1c69:  b8 60 10 00 00           movl     $0x1060, %eax
0x06ff1c6e:  e8 d2 c7 ff ff           calll    0x6fee445

----------------
IN: 
0x06ff1c73:  85 c0                    testl    %eax, %eax
0x06ff1c75:  75 02                    jne      0x6ff1c79

----------------
IN: 
0x06ff1c77:  89 d8                    movl     %ebx, %eax
0x06ff1c79:  5a                       popl     %edx
0x06ff1c7a:  5b                       popl     %ebx
0x06ff1c7b:  5e                       popl     %esi
0x06ff1c7c:  5f                       popl     %edi
0x06ff1c7d:  5d                       popl     %ebp
0x06ff1c7e:  c3                       retl     

----------------
IN: 
0x06ff1d41:  85 c0                    testl    %eax, %eax
0x06ff1d43:  74 28                    je       0x6ff1d6d

----------------
IN: 
0x06ff1d6d:  0f b6 44 24 02           movzbl   2(%esp), %eax
0x06ff1d72:  3c aa                    cmpb     $0xaa, %al
0x06ff1d74:  74 08                    je       0x6ff1d7e

----------------
IN: 
0x06ff1d7e:  31 d2                    xorl     %edx, %edx
0x06ff1d80:  b8 f5 00 00 00           movl     $0xf5, %eax
0x06ff1d85:  e8 0c fe ff ff           calll    0x6ff1b96

----------------
IN: 
0x06ff1f3a:  59                       popl     %ecx
0x06ff1f3b:  5e                       popl     %esi
0x06ff1f3c:  83 e7 04                 andl     $4, %edi
0x06ff1f3f:  74 2d                    je       0x6ff1f6e

----------------
IN: 
0x06ff1f6e:  b9 0f 00 00 00           movl     $0xf, %ecx
0x06ff1f73:  b8 74 03 00 00           movl     $0x374, %eax
0x06ff1f78:  be 70 01 00 00           movl     $0x170, %esi
0x06ff1f7d:  50                       pushl    %eax
0x06ff1f7e:  56                       pushl    %esi
0x06ff1f7f:  ba 01 00 00 00           movl     $1, %edx
0x06ff1f84:  89 d8                    movl     %ebx, %eax
0x06ff1f86:  e8 a6 fe ff ff           calll    0x6ff1e31

----------------
IN: 
0x06fed512:  eb ee                    jmp      0x6fed502

----------------
IN: 
0x06fed502:  89 d8                    movl     %ebx, %eax
0x06fed504:  e8 4a dd 0f f9           calll    0xeb253

----------------
IN: 
0x06fed514:  5b                       popl     %ebx
0x06fed515:  c3                       retl     

----------------
IN: 
0x06ff9a7e:  89 f0                    movl     %esi, %eax
0x06ff9a80:  e8 4e 24 0f f9           calll    0xebed3

----------------
IN: 
0x000ebed3:  0f b7 c8                 movzwl   %ax, %ecx
0x000ebed6:  31 d2                    xorl     %edx, %edx
0x000ebed8:  b8 80 00 00 00           movl     $0x80, %eax
0x000ebedd:  e9 9d ff ff ff           jmp      0xebe7f

----------------
IN: 
0x000ebe7f:  55                       pushl    %ebp
0x000ebe80:  57                       pushl    %edi
0x000ebe81:  56                       pushl    %esi
0x000ebe82:  53                       pushl    %ebx
0x000ebe83:  89 c6                    movl     %eax, %esi
0x000ebe85:  89 d7                    movl     %edx, %edi
0x000ebe87:  89 cd                    movl     %ecx, %ebp
0x000ebe89:  b8 00 7d 00 00           movl     $0x7d00, %eax
0x000ebe8e:  e8 69 f3 ff ff           calll    0xeb1fc

----------------
IN: 
0x000ebe93:  89 c3                    movl     %eax, %ebx
0x000ebe95:  8d 55 07                 leal     7(%ebp), %edx
0x000ebe98:  ec                       inb      %dx, %al

----------------
IN: 
0x000ebe99:  89 f2                    movl     %esi, %edx
0x000ebe9b:  21 c2                    andl     %eax, %edx
0x000ebe9d:  89 f9                    movl     %edi, %ecx
0x000ebe9f:  38 ca                    cmpb     %cl, %dl
0x000ebea1:  75 05                    jne      0xebea8

----------------
IN: 
0x000ebea3:  0f b6 c0                 movzbl   %al, %eax
0x000ebea6:  eb 26                    jmp      0xebece

----------------
IN: 
0x000ebece:  5b                       popl     %ebx
0x000ebecf:  5e                       popl     %esi
0x000ebed0:  5f                       popl     %edi
0x000ebed1:  5d                       popl     %ebp
0x000ebed2:  c3                       retl     

----------------
IN: 
0x06ff9a85:  85 c0                    testl    %eax, %eax
0x06ff9a87:  78 66                    js       0x6ff9aef

----------------
IN: 
0x06ff9a89:  83 c7 06                 addl     $6, %edi
0x06ff9a8c:  80 7c 24 03 00           cmpb     $0, 3(%esp)
0x06ff9a91:  74 3f                    je       0x6ff9ad2

----------------
IN: 
0x06ff9ad2:  b0 a0                    movb     $0xa0, %al
0x06ff9ad4:  89 fa                    movl     %edi, %edx
0x06ff9ad6:  ee                       outb     %al, %dx

----------------
IN: 
0x06ff9ad7:  80 7c 24 40 20           cmpb     $0x20, 0x40(%esp)
0x06ff9adc:  75 11                    jne      0x6ff9aef

----------------
IN: 
0x06ff9aef:  b0 08                    movb     $8, %al
0x06ff9af1:  8b 54 24 04              movl     4(%esp), %edx
0x06ff9af5:  ee                       outb     %al, %dx

----------------
IN: 
0x06ff9af6:  b9 a1 00 00 00           movl     $0xa1, %ecx
0x06ff9afb:  8d 54 24 74              leal     0x74(%esp), %edx
0x06ff9aff:  8d 44 24 40              leal     0x40(%esp), %eax
0x06ff9b03:  e8 7d 4e ff ff           calll    0x6fee985

----------------
IN: 
0x06fee985:  57                       pushl    %edi
0x06fee986:  56                       pushl    %esi
0x06fee987:  53                       pushl    %ebx
0x06fee988:  83 ec 20                 subl     $0x20, %esp
0x06fee98b:  89 c7                    movl     %eax, %edi
0x06fee98d:  89 d3                    movl     %edx, %ebx
0x06fee98f:  89 ce                    movl     %ecx, %esi
0x06fee991:  b9 00 02 00 00           movl     $0x200, %ecx
0x06fee996:  31 d2                    xorl     %edx, %edx
0x06fee998:  89 d8                    movl     %ebx, %eax
0x06fee99a:  e8 bb b6 0f f9           calll    0xea05a

----------------
IN: 
0x06fee99f:  b9 14 00 00 00           movl     $0x14, %ecx
0x06fee9a4:  8d 44 24 0c              leal     0xc(%esp), %eax
0x06fee9a8:  e8 ad b6 0f f9           calll    0xea05a

----------------
IN: 
0x06fee9ad:  89 7c 24 10              movl     %edi, 0x10(%esp)
0x06fee9b1:  66 c7 44 24 16 01 00     movw     $1, 0x16(%esp)
0x06fee9b8:  c7 44 24 18 01 00 00 00  movl     $1, 0x18(%esp)
0x06fee9c0:  31 c0                    xorl     %eax, %eax
0x06fee9c2:  89 44 24 1c              movl     %eax, 0x1c(%esp)
0x06fee9c6:  89 5c 24 0c              movl     %ebx, 0xc(%esp)
0x06fee9ca:  b9 0c 00 00 00           movl     $0xc, %ecx
0x06fee9cf:  89 e0                    movl     %esp, %eax
0x06fee9d1:  e8 84 b6 0f f9           calll    0xea05a

----------------
IN: 
0x06fee9d6:  89 f0                    movl     %esi, %eax
0x06fee9d8:  88 44 24 06              movb     %al, 6(%esp)
0x06fee9dc:  8b 47 2c                 movl     0x2c(%edi), %eax
0x06fee9df:  66 8b 30                 movw     (%eax), %si
0x06fee9e2:  66 8b 58 02              movw     2(%eax), %bx
0x06fee9e6:  83 c3 02                 addl     $2, %ebx
0x06fee9e9:  b0 0a                    movb     $0xa, %al
0x06fee9eb:  89 da                    movl     %ebx, %edx
0x06fee9ed:  ee                       outb     %al, %dx

----------------
IN: 
0x06fee9ee:  89 e2                    movl     %esp, %edx
0x06fee9f0:  89 f8                    movl     %edi, %eax
0x06fee9f2:  e8 41 d5 0f f9           calll    0xebf38

----------------
IN: 
0x000ebf38:  55                       pushl    %ebp
0x000ebf39:  57                       pushl    %edi
0x000ebf3a:  56                       pushl    %esi
0x000ebf3b:  53                       pushl    %ebx
0x000ebf3c:  83 ec 08                 subl     $8, %esp
0x000ebf3f:  89 d6                    movl     %edx, %esi
0x000ebf41:  8a 58 30                 movb     0x30(%eax), %bl
0x000ebf44:  8b 40 2c                 movl     0x2c(%eax), %eax
0x000ebf47:  0f b7 38                 movzwl   (%eax), %edi
0x000ebf4a:  89 f8                    movl     %edi, %eax
0x000ebf4c:  e8 82 ff ff ff           calll    0xebed3

----------------
IN: 
0x000ebf51:  85 c0                    testl    %eax, %eax
0x000ebf53:  0f 88 b5 00 00 00        js       0xec00e

----------------
IN: 
0x000ebf59:  89 fd                    movl     %edi, %ebp
0x000ebf5b:  8a 56 05                 movb     5(%esi), %dl
0x000ebf5e:  83 e2 4f                 andl     $0x4f, %edx
0x000ebf61:  80 fb 01                 cmpb     $1, %bl
0x000ebf64:  19 c0                    sbbl     %eax, %eax
0x000ebf66:  83 e0 f0                 andl     $0xfffffff0, %eax
0x000ebf69:  83 e8 50                 subl     $0x50, %eax
0x000ebf6c:  09 d0                    orl      %edx, %eax
0x000ebf6e:  88 c1                    movb     %al, %cl
0x000ebf70:  8d 57 06                 leal     6(%edi), %edx
0x000ebf73:  ec                       inb      %dx, %al

----------------
IN: 
0x000ebf74:  88 c3                    movb     %al, %bl
0x000ebf76:  88 c8                    movb     %cl, %al
0x000ebf78:  ee                       outb     %al, %dx

----------------
IN: 
0x000ebf79:  31 d8                    xorl     %ebx, %eax
0x000ebf7b:  a8 10                    testb    $0x10, %al
0x000ebf7d:  75 55                    jne      0xebfd4

----------------
IN: 
0x000ebf7f:  8a 4e 06                 movb     6(%esi), %cl
0x000ebf82:  8d 45 01                 leal     1(%ebp), %eax
0x000ebf85:  66 89 44 24 02           movw     %ax, 2(%esp)
0x000ebf8a:  8d 7d 02                 leal     2(%ebp), %edi
0x000ebf8d:  8d 5d 03                 leal     3(%ebp), %ebx
0x000ebf90:  8d 45 04                 leal     4(%ebp), %eax
0x000ebf93:  66 89 44 24 04           movw     %ax, 4(%esp)
0x000ebf98:  8d 45 05                 leal     5(%ebp), %eax
0x000ebf9b:  66 89 44 24 06           movw     %ax, 6(%esp)
0x000ebfa0:  89 c8                    movl     %ecx, %eax
0x000ebfa2:  25 ee 00 00 00           andl     $0xee, %eax
0x000ebfa7:  83 f8 24                 cmpl     $0x24, %eax
0x000ebfaa:  75 35                    jne      0xebfe1

----------------
IN: 
0x000ebfe1:  8a 06                    movb     (%esi), %al
0x000ebfe3:  66 8b 54 24 02           movw     2(%esp), %dx
0x000ebfe8:  ee                       outb     %al, %dx

----------------
IN: 
0x000ebfe9:  8a 46 01                 movb     1(%esi), %al
0x000ebfec:  89 fa                    movl     %edi, %edx
0x000ebfee:  ee                       outb     %al, %dx

----------------
IN: 
0x000ebfef:  8a 46 02                 movb     2(%esi), %al
0x000ebff2:  89 da                    movl     %ebx, %edx
0x000ebff4:  ee                       outb     %al, %dx

----------------
IN: 
0x000ebff5:  8a 46 03                 movb     3(%esi), %al
0x000ebff8:  8b 54 24 04              movl     4(%esp), %edx
0x000ebffc:  ee                       outb     %al, %dx

----------------
IN: 
0x000ebffd:  8a 46 04                 movb     4(%esi), %al

----------------
IN: 
0x000ec000:  66 8b 54 24 06           movw     6(%esp), %dx
0x000ec005:  ee                       outb     %al, %dx

----------------
IN: 
0x000ec006:  8d 55 07                 leal     7(%ebp), %edx
0x000ec009:  88 c8                    movb     %cl, %al
0x000ec00b:  ee                       outb     %al, %dx

----------------
IN: 
0x000ec00c:  31 c0                    xorl     %eax, %eax
0x000ec00e:  83 c4 08                 addl     $8, %esp
0x000ec011:  5b                       popl     %ebx
0x000ec012:  5e                       popl     %esi
0x000ec013:  5f                       popl     %edi
0x000ec014:  5d                       popl     %ebp
0x000ec015:  c3                       retl     

----------------
IN: 
0x06fee9f7:  89 c1                    movl     %eax, %ecx
0x06fee9f9:  85 c0                    testl    %eax, %eax
0x06fee9fb:  75 1e                    jne      0x6feea1b

----------------
IN: 
0x06fee9fd:  0f b7 c6                 movzwl   %si, %eax
0x06feea00:  e8 11 d5 0f f9           calll    0xebf16

----------------
IN: 
0x000ebf16:  0f b7 c0                 movzwl   %ax, %eax
0x000ebf19:  e8 c4 ff ff ff           calll    0xebee2

----------------
IN: 
0x000ebee2:  56                       pushl    %esi
0x000ebee3:  53                       pushl    %ebx
0x000ebee4:  89 c3                    movl     %eax, %ebx
0x000ebee6:  e8 a1 f2 ff ff           calll    0xeb18c

----------------
IN: 
0x000ebeeb:  89 c1                    movl     %eax, %ecx
0x000ebeed:  69 05 9c 60 0f 00 90 01  imull    $0x190, 0xf609c, %eax
0x000ebef5:  00 00
0x000ebef7:  05 3f 42 0f 00           addl     $0xf423f, %eax
0x000ebefc:  be 40 42 0f 00           movl     $0xf4240, %esi
0x000ebf01:  31 d2                    xorl     %edx, %edx
0x000ebf03:  f7 f6                    divl     %esi
0x000ebf05:  01 c8                    addl     %ecx, %eax
0x000ebf07:  e8 5b f3 ff ff           calll    0xeb267

----------------
IN: 
0x000ebf0c:  0f b7 c3                 movzwl   %bx, %eax
0x000ebf0f:  5b                       popl     %ebx
0x000ebf10:  5e                       popl     %esi
0x000ebf11:  e9 bd ff ff ff           jmp      0xebed3

----------------
IN: 
0x000ebf1e:  85 c0                    testl    %eax, %eax
0x000ebf20:  78 15                    js       0xebf37

----------------
IN: 
0x000ebf22:  a8 01                    testb    $1, %al
0x000ebf24:  75 0c                    jne      0xebf32

----------------
IN: 
0x000ebf32:  b8 fc ff ff ff           movl     $0xfffffffc, %eax
0x000ebf37:  c3                       retl     

----------------
IN: 
0x06feea05:  89 c1                    movl     %eax, %ecx
0x06feea07:  85 c0                    testl    %eax, %eax
0x06feea09:  75 10                    jne      0x6feea1b

----------------
IN: 
0x06feea1b:  b0 08                    movb     $8, %al
0x06feea1d:  89 da                    movl     %ebx, %edx
0x06feea1f:  ee                       outb     %al, %dx

----------------
IN: 
0x06feea20:  89 c8                    movl     %ecx, %eax
0x06feea22:  83 c4 20                 addl     $0x20, %esp
0x06feea25:  5b                       popl     %ebx
0x06feea26:  5e                       popl     %esi
0x06feea27:  5f                       popl     %edi
0x06feea28:  c3                       retl     

----------------
IN: 
0x06ff9b08:  85 c0                    testl    %eax, %eax
0x06ff9b0a:  74 11                    je       0x6ff9b1d

----------------
IN: 
0x06ff9b0c:  8d 55 07                 leal     7(%ebp), %edx
0x06ff9b0f:  ec                       inb      %dx, %al

----------------
IN: 
0x06ff9b10:  84 c0                    testb    %al, %al
0x06ff9b12:  0f 84 e9 00 00 00        je       0x6ff9c01

----------------
IN: 
0x06ff9b18:  e9 cd 00 00 00           jmp      0x6ff9bea

----------------
IN: 
0x06ff9bea:  8b 4c 24 10              movl     0x10(%esp), %ecx
0x06ff9bee:  ba 40 00 00 00           movl     $0x40, %edx
0x06ff9bf3:  b8 40 00 00 00           movl     $0x40, %eax
0x06ff9bf8:  e8 82 22 0f f9           calll    0xebe7f

----------------
IN: 
0x06ff9bfd:  85 c0                    testl    %eax, %eax
0x06ff9bff:  79 0a                    jns      0x6ff9c0b

----------------
IN: 
0x06ff9c0b:  b9 ec 00 00 00           movl     $0xec, %ecx
0x06ff9c10:  8d 54 24 74              leal     0x74(%esp), %edx
0x06ff9c14:  8d 44 24 40              leal     0x40(%esp), %eax
0x06ff9c18:  e8 68 4d ff ff           calll    0x6fee985

----------------
IN: 
0x000ebf26:  83 e0 08                 andl     $8, %eax
0x000ebf29:  83 f8 01                 cmpl     $1, %eax
0x000ebf2c:  19 c0                    sbbl     %eax, %eax
0x000ebf2e:  83 e0 fb                 andl     $0xfffffffb, %eax
0x000ebf31:  c3                       retl     

----------------
IN: 
0x06feea0b:  ba 00 02 00 00           movl     $0x200, %edx
0x06feea10:  8d 44 24 0c              leal     0xc(%esp), %eax
0x06feea14:  e8 fd d5 0f f9           calll    0xec016

----------------
IN: 
0x000ec016:  55                       pushl    %ebp
0x000ec017:  57                       pushl    %edi
0x000ec018:  56                       pushl    %esi
0x000ec019:  53                       pushl    %ebx
0x000ec01a:  83 ec 10                 subl     $0x10, %esp
0x000ec01d:  89 c3                    movl     %eax, %ebx
0x000ec01f:  89 14 24                 movl     %edx, (%esp)
0x000ec022:  8b 40 04                 movl     4(%eax), %eax
0x000ec025:  8b 40 2c                 movl     0x2c(%eax), %eax
0x000ec028:  66 8b 38                 movw     (%eax), %di
0x000ec02b:  66 89 7c 24 04           movw     %di, 4(%esp)
0x000ec030:  66 8b 40 02              movw     2(%eax), %ax
0x000ec034:  66 89 44 24 06           movw     %ax, 6(%esp)
0x000ec039:  0f b7 73 0a              movzwl   0xa(%ebx), %esi
0x000ec03d:  8b 2b                    movl     (%ebx), %ebp
0x000ec03f:  b9 02 00 00 00           movl     $2, %ecx
0x000ec044:  89 d0                    movl     %edx, %eax
0x000ec046:  99                       cltd     
0x000ec047:  f7 f9                    idivl    %ecx
0x000ec049:  89 44 24 08              movl     %eax, 8(%esp)
0x000ec04d:  0f b7 c7                 movzwl   %di, %eax
0x000ec050:  89 44 24 0c              movl     %eax, 0xc(%esp)
0x000ec054:  8b 4c 24 08              movl     8(%esp), %ecx
0x000ec058:  89 ef                    movl     %ebp, %edi
0x000ec05a:  8b 54 24 04              movl     4(%esp), %edx
0x000ec05e:  66 f3 6d                 rep insw %dx, %es:(%edi)

----------------
IN: 
0x000ec05e:  66 f3 6d                 rep insw %dx, %es:(%edi)

----------------
IN: 
0x000ec061:  8b 04 24                 movl     (%esp), %eax
0x000ec064:  01 c5                    addl     %eax, %ebp
0x000ec066:  66 8b 44 24 06           movw     6(%esp), %ax
0x000ec06b:  8d 50 02                 leal     2(%eax), %edx
0x000ec06e:  ec                       inb      %dx, %al

----------------
IN: 
0x000ec06f:  8b 44 24 0c              movl     0xc(%esp), %eax
0x000ec073:  e8 5b fe ff ff           calll    0xebed3

----------------
IN: 
0x000ec078:  85 c0                    testl    %eax, %eax
0x000ec07a:  79 06                    jns      0xec082

----------------
IN: 
0x000ec082:  25 89 00 00 00           andl     $0x89, %eax
0x000ec087:  4e                       decl     %esi
0x000ec088:  74 10                    je       0xec09a

----------------
IN: 
0x000ec09a:  85 c0                    testl    %eax, %eax
0x000ec09c:  74 05                    je       0xec0a3

----------------
IN: 
0x000ec0a3:  83 c4 10                 addl     $0x10, %esp
0x000ec0a6:  5b                       popl     %ebx
0x000ec0a7:  5e                       popl     %esi
0x000ec0a8:  5f                       popl     %edi
0x000ec0a9:  5d                       popl     %ebp
0x000ec0aa:  c3                       retl     

----------------
IN: 
0x06feea19:  89 c1                    movl     %eax, %ecx
0x06feea1b:  b0 08                    movb     $8, %al
0x06feea1d:  89 da                    movl     %ebx, %edx
0x06feea1f:  ee                       outb     %al, %dx

----------------
IN: 
0x06ff9c1d:  85 c0                    testl    %eax, %eax
0x06ff9c1f:  75 e0                    jne      0x6ff9c01

----------------
IN: 
0x06ff9c21:  8d 54 24 74              leal     0x74(%esp), %edx
0x06ff9c25:  8d 44 24 40              leal     0x40(%esp), %eax
0x06ff9c29:  e8 b3 45 ff ff           calll    0x6fee1e1

----------------
IN: 
0x06fee1e1:  57                       pushl    %edi
0x06fee1e2:  56                       pushl    %esi
0x06fee1e3:  53                       pushl    %ebx
0x06fee1e4:  89 c7                    movl     %eax, %edi
0x06fee1e6:  89 d6                    movl     %edx, %esi
0x06fee1e8:  b8 34 00 00 00           movl     $0x34, %eax
0x06fee1ed:  e8 3e fc ff ff           calll    0x6fede30

----------------
IN: 
0x06fee1f2:  89 c3                    movl     %eax, %ebx
0x06fee1f4:  85 c0                    testl    %eax, %eax
0x06fee1f6:  75 11                    jne      0x6fee209

----------------
IN: 
0x06fee209:  b9 34 00 00 00           movl     $0x34, %ecx
0x06fee20e:  31 d2                    xorl     %edx, %edx
0x06fee210:  e8 45 be 0f f9           calll    0xea05a

----------------
IN: 
0x06fee215:  8b 47 2c                 movl     0x2c(%edi), %eax
0x06fee218:  89 43 2c                 movl     %eax, 0x2c(%ebx)
0x06fee21b:  0f b6 57 30              movzbl   0x30(%edi), %edx
0x06fee21f:  88 53 30                 movb     %dl, 0x30(%ebx)
0x06fee222:  0f b6 40 08              movzbl   8(%eax), %eax
0x06fee226:  01 c0                    addl     %eax, %eax
0x06fee228:  01 d0                    addl     %edx, %eax
0x06fee22a:  89 43 14                 movl     %eax, 0x14(%ebx)
0x06fee22d:  0f b7 06                 movzwl   (%esi), %eax
0x06fee230:  c0 e8 07                 shrb     $7, %al
0x06fee233:  88 43 18                 movb     %al, 0x18(%ebx)
0x06fee236:  89 d8                    movl     %ebx, %eax
0x06fee238:  5b                       popl     %ebx
0x06fee239:  5e                       popl     %esi
0x06fee23a:  5f                       popl     %edi
0x06fee23b:  c3                       retl     

----------------
IN: 
0x06ff9c2e:  89 c3                    movl     %eax, %ebx
0x06ff9c30:  85 c0                    testl    %eax, %eax
0x06ff9c32:  74 cd                    je       0x6ff9c01

----------------
IN: 
0x06ff9c34:  c6 00 20                 movb     $0x20, (%eax)
0x06ff9c37:  66 c7 40 1a 00 02        movw     $0x200, 0x1a(%eax)
0x06ff9c3d:  66 8b 44 24 76           movw     0x76(%esp), %ax
0x06ff9c42:  66 89 43 1e              movw     %ax, 0x1e(%ebx)
0x06ff9c46:  66 8b 44 24 7a           movw     0x7a(%esp), %ax
0x06ff9c4b:  66 89 43 1c              movw     %ax, 0x1c(%ebx)
0x06ff9c4f:  8b 84 24 80 00 00 00     movl     0x80(%esp), %eax
0x06ff9c56:  66 89 43 20              movw     %ax, 0x20(%ebx)
0x06ff9c5a:  f6 84 24 1b 01 00 00 04  testb    $4, 0x11b(%esp)
0x06ff9c62:  74 10                    je       0x6ff9c74

----------------
IN: 
0x06ff9c64:  8b 84 24 3c 01 00 00     movl     0x13c(%esp), %eax
0x06ff9c6b:  8b 94 24 40 01 00 00     movl     0x140(%esp), %edx
0x06ff9c72:  eb 09                    jmp      0x6ff9c7d

----------------
IN: 
0x06ff9c7d:  89 43 0c                 movl     %eax, 0xc(%ebx)
0x06ff9c80:  89 53 10                 movl     %edx, 0x10(%ebx)
0x06ff9c83:  89 c6                    movl     %eax, %esi
0x06ff9c85:  89 d7                    movl     %edx, %edi
0x06ff9c87:  0f ac fe 0b              shrdl    $0xb, %edi, %esi
0x06ff9c8b:  c1 ef 0b                 shrl     $0xb, %edi
0x06ff9c8e:  89 74 24 04              movl     %esi, 4(%esp)
0x06ff9c92:  89 7c 24 08              movl     %edi, 8(%esp)
0x06ff9c96:  b9 ff ff 00 00           movl     $0xffff, %ecx
0x06ff9c9b:  8b 74 24 04              movl     4(%esp), %esi
0x06ff9c9f:  39 f1                    cmpl     %esi, %ecx
0x06ff9ca1:  b9 00 00 00 00           movl     $0, %ecx
0x06ff9ca6:  1b 4c 24 08              sbbl     8(%esp), %ecx
0x06ff9caa:  bd 4d 00 00 00           movl     $0x4d, %ebp
0x06ff9caf:  73 14                    jae      0x6ff9cc5

----------------
IN: 
0x06ff9cc5:  8d 44 24 74              leal     0x74(%esp), %eax
0x06ff9cc9:  e8 c7 17 ff ff           calll    0x6feb495

----------------
IN: 
0x06feb495:  0f b7 90 a0 00 00 00     movzwl   0xa0(%eax), %edx
0x06feb49c:  89 d0                    movl     %edx, %eax
0x06feb49e:  c1 e8 0f                 shrl     $0xf, %eax
0x06feb4a1:  b8 0e 00 00 00           movl     $0xe, %eax
0x06feb4a6:  75 10                    jne      0x6feb4b8

----------------
IN: 
0x06feb4a8:  85 c0                    testl    %eax, %eax
0x06feb4aa:  74 0e                    je       0x6feb4ba

----------------
IN: 
0x06feb4ac:  8d 48 ff                 leal     -1(%eax), %ecx
0x06feb4af:  0f a3 c2                 btl      %eax, %edx
0x06feb4b2:  72 06                    jb       0x6feb4ba

----------------
IN: 
0x06feb4b4:  89 c8                    movl     %ecx, %eax
0x06feb4b6:  eb f0                    jmp      0x6feb4a8

----------------
IN: 
0x06feb4ba:  0f b6 c0                 movzbl   %al, %eax
0x06feb4bd:  c3                       retl     

----------------
IN: 
0x06ff9cce:  89 c7                    movl     %eax, %edi
0x06ff9cd0:  8d 54 24 74              leal     0x74(%esp), %edx
0x06ff9cd4:  8d 44 24 17              leal     0x17(%esp), %eax
0x06ff9cd8:  e8 dd 29 ff ff           calll    0x6fec6ba

----------------
IN: 
0x06fec6ba:  53                       pushl    %ebx
0x06fec6bb:  89 c3                    movl     %eax, %ebx
0x06fec6bd:  31 c0                    xorl     %eax, %eax
0x06fec6bf:  66 8b 4c 42 36           movw     0x36(%edx, %eax, 2), %cx
0x06fec6c4:  86 e9                    xchgb    %ch, %cl
0x06fec6c6:  66 89 0c 43              movw     %cx, (%ebx, %eax, 2)
0x06fec6ca:  40                       incl     %eax
0x06fec6cb:  83 f8 14                 cmpl     $0x14, %eax
0x06fec6ce:  75 ef                    jne      0x6fec6bf

----------------
IN: 
0x06fec6bf:  66 8b 4c 42 36           movw     0x36(%edx, %eax, 2), %cx
0x06fec6c4:  86 e9                    xchgb    %ch, %cl
0x06fec6c6:  66 89 0c 43              movw     %cx, (%ebx, %eax, 2)
0x06fec6ca:  40                       incl     %eax
0x06fec6cb:  83 f8 14                 cmpl     $0x14, %eax
0x06fec6ce:  75 ef                    jne      0x6fec6bf

----------------
IN: 
0x06fec6d0:  c6 43 28 00              movb     $0, 0x28(%ebx)
0x06fec6d4:  89 d8                    movl     %ebx, %eax
0x06fec6d6:  e8 f3 ea ff ff           calll    0x6feb1ce

----------------
IN: 
0x06feb1ce:  53                       pushl    %ebx
0x06feb1cf:  89 c3                    movl     %eax, %ebx
0x06feb1d1:  e8 e6 de 0f f9           calll    0xe90bc

----------------
IN: 
0x06feb1d6:  8d 44 03 ff              leal     -1(%ebx, %eax), %eax
0x06feb1da:  39 d8                    cmpl     %ebx, %eax
0x06feb1dc:  73 04                    jae      0x6feb1e2

----------------
IN: 
0x06feb1e2:  80 38 20                 cmpb     $0x20, (%eax)
0x06feb1e5:  7f f7                    jg       0x6feb1de

----------------
IN: 
0x06feb1e7:  48                       decl     %eax
0x06feb1e8:  c6 40 01 00              movb     $0, 1(%eax)
0x06feb1ec:  eb ec                    jmp      0x6feb1da

----------------
IN: 
0x06feb1da:  39 d8                    cmpl     %ebx, %eax
0x06feb1dc:  73 04                    jae      0x6feb1e2

----------------
IN: 
0x06feb1de:  89 d8                    movl     %ebx, %eax
0x06feb1e0:  eb 12                    jmp      0x6feb1f4

----------------
IN: 
0x06feb1f4:  8a 10                    movb     (%eax), %dl
0x06feb1f6:  84 d2                    testb    %dl, %dl
0x06feb1f8:  75 f4                    jne      0x6feb1ee

----------------
IN: 
0x06feb1ee:  80 fa 20                 cmpb     $0x20, %dl
0x06feb1f1:  7f 07                    jg       0x6feb1fa

----------------
IN: 
0x06feb1fa:  5b                       popl     %ebx
0x06feb1fb:  c3                       retl     

----------------
IN: 
0x06fec6db:  89 d8                    movl     %ebx, %eax
0x06fec6dd:  5b                       popl     %ebx
0x06fec6de:  c3                       retl     

----------------
IN: 
0x06ff9cdd:  89 e9                    movl     %ebp, %ecx
0x06ff9cdf:  0f be e9                 movsbl   %cl, %ebp
0x06ff9ce2:  55                       pushl    %ebp
0x06ff9ce3:  ff 74 24 08              pushl    8(%esp)
0x06ff9ce7:  57                       pushl    %edi
0x06ff9ce8:  50                       pushl    %eax
0x06ff9ce9:  0f b6 43 30              movzbl   0x30(%ebx), %eax
0x06ff9ced:  50                       pushl    %eax
0x06ff9cee:  8b 43 2c                 movl     0x2c(%ebx), %eax
0x06ff9cf1:  0f b6 40 08              movzbl   8(%eax), %eax
0x06ff9cf5:  50                       pushl    %eax
0x06ff9cf6:  68 df 30 0f 00           pushl    $0xf30df
0x06ff9cfb:  6a 50                    pushl    $0x50
0x06ff9cfd:  e8 ae 9d ff ff           calll    0x6ff3ab0

----------------
IN: 
0x000eb4f0:  8b 03                    movl     (%ebx), %eax
0x000eb4f2:  84 d2                    testb    %dl, %dl
0x000eb4f4:  75 05                    jne      0xeb4fb

----------------
IN: 
0x000eb4f6:  83 c3 04                 addl     $4, %ebx
0x000eb4f9:  eb 03                    jmp      0xeb4fe

----------------
IN: 
0x000eb4fe:  89 c2                    movl     %eax, %edx
0x000eb500:  8b 04 24                 movl     (%esp), %eax
0x000eb503:  e8 58 da ff ff           calll    0xe8f60

----------------
IN: 
0x06ff9d02:  89 c6                    movl     %eax, %esi
0x06ff9d04:  83 c4 20                 addl     $0x20, %esp
0x06ff9d07:  50                       pushl    %eax
0x06ff9d08:  68 db 30 0f 00           pushl    $0xf30db
0x06ff9d0d:  e8 4d 1f 0f f9           calll    0xebc5f

----------------
IN: 
0x06ff9d12:  8b 43 2c                 movl     0x2c(%ebx), %eax
0x06ff9d15:  0f b6 4b 30              movzbl   0x30(%ebx), %ecx
0x06ff9d19:  0f b6 50 07              movzbl   7(%eax), %edx
0x06ff9d1d:  8b 40 10                 movl     0x10(%eax), %eax
0x06ff9d20:  e8 1f 9c ff ff           calll    0x6ff3944

----------------
IN: 
0x06ff3944:  85 c0                    testl    %eax, %eax
0x06ff3946:  74 43                    je       0x6ff398b

----------------
IN: 
0x06ff3948:  56                       pushl    %esi
0x06ff3949:  53                       pushl    %ebx
0x06ff394a:  81 ec 00 01 00 00        subl     $0x100, %esp
0x06ff3950:  89 d3                    movl     %edx, %ebx
0x06ff3952:  89 ce                    movl     %ecx, %esi
0x06ff3954:  89 c1                    movl     %eax, %ecx
0x06ff3956:  ba 89 10 0f 00           movl     $0xf1089, %edx
0x06ff395b:  89 e0                    movl     %esp, %eax
0x06ff395d:  e8 e5 fd ff ff           calll    0x6ff3747

----------------
IN: 
0x06ff37d5:  0f b6 c0                 movzbl   %al, %eax
0x06ff37d8:  50                       pushl    %eax
0x06ff37d9:  68 50 10 0f 00           pushl    $0xf1050
0x06ff37de:  29 de                    subl     %ebx, %esi
0x06ff37e0:  56                       pushl    %esi
0x06ff37e1:  53                       pushl    %ebx
0x06ff37e2:  e8 7a ea ff ff           calll    0x6ff2261

----------------
IN: 
0x06ff37e7:  01 c3                    addl     %eax, %ebx
0x06ff37e9:  83 c4 10                 addl     $0x10, %esp
0x06ff37ec:  89 d8                    movl     %ebx, %eax
0x06ff37ee:  5b                       popl     %ebx
0x06ff37ef:  5e                       popl     %esi
0x06ff37f0:  5f                       popl     %edi
0x06ff37f1:  5d                       popl     %ebp
0x06ff37f2:  c3                       retl     

----------------
IN: 
0x06ff3962:  56                       pushl    %esi
0x06ff3963:  53                       pushl    %ebx
0x06ff3964:  68 8b 10 0f 00           pushl    $0xf108b
0x06ff3969:  8d 94 24 0c 01 00 00     leal     0x10c(%esp), %edx
0x06ff3970:  29 c2                    subl     %eax, %edx
0x06ff3972:  52                       pushl    %edx
0x06ff3973:  50                       pushl    %eax
0x06ff3974:  e8 e8 e8 ff ff           calll    0x6ff2261

----------------
IN: 
0x06ff3979:  8d 44 24 14              leal     0x14(%esp), %eax
0x06ff397d:  e8 82 b7 ff ff           calll    0x6fef104

----------------
IN: 
0x06ff3982:  81 c4 14 01 00 00        addl     $0x114, %esp
0x06ff3988:  5b                       popl     %ebx
0x06ff3989:  5e                       popl     %esi
0x06ff398a:  c3                       retl     

----------------
IN: 
0x06ff9d25:  89 c7                    movl     %eax, %edi
0x06ff9d27:  8b 43 2c                 movl     0x2c(%ebx), %eax
0x06ff9d2a:  0f b6 4b 30              movzbl   0x30(%ebx), %ecx
0x06ff9d2e:  0f b6 50 07              movzbl   7(%eax), %edx
0x06ff9d32:  8b 40 10                 movl     0x10(%eax), %eax
0x06ff9d35:  8d 6b 02                 leal     2(%ebx), %ebp
0x06ff9d38:  55                       pushl    %ebp
0x06ff9d39:  e8 07 9d ff ff           calll    0x6ff3a45

----------------
IN: 
0x06ff3a45:  57                       pushl    %edi
0x06ff3a46:  56                       pushl    %esi
0x06ff3a47:  53                       pushl    %ebx
0x06ff3a48:  81 ec 00 01 00 00        subl     $0x100, %esp
0x06ff3a4e:  8b 9c 24 10 01 00 00     movl     0x110(%esp), %ebx
0x06ff3a55:  85 c0                    testl    %eax, %eax
0x06ff3a57:  74 4d                    je       0x6ff3aa6

----------------
IN: 
0x06ff3a59:  89 d6                    movl     %edx, %esi
0x06ff3a5b:  89 cf                    movl     %ecx, %edi
0x06ff3a5d:  89 c1                    movl     %eax, %ecx
0x06ff3a5f:  ba 89 10 0f 00           movl     $0xf1089, %edx
0x06ff3a64:  89 e0                    movl     %esp, %eax
0x06ff3a66:  e8 dc fc ff ff           calll    0x6ff3747

----------------
IN: 
0x06ff3a6b:  57                       pushl    %edi
0x06ff3a6c:  56                       pushl    %esi
0x06ff3a6d:  68 8b 10 0f 00           pushl    $0xf108b
0x06ff3a72:  8d 94 24 0c 01 00 00     leal     0x10c(%esp), %edx
0x06ff3a79:  29 c2                    subl     %eax, %edx
0x06ff3a7b:  52                       pushl    %edx
0x06ff3a7c:  50                       pushl    %eax
0x06ff3a7d:  e8 df e7 ff ff           calll    0x6ff2261

----------------
IN: 
0x06ff3a82:  8d 44 24 14              leal     0x14(%esp), %eax
0x06ff3a86:  e8 30 b6 ff ff           calll    0x6fef0bb

----------------
IN: 
0x06fef0bb:  55                       pushl    %ebp
0x06fef0bc:  57                       pushl    %edi
0x06fef0bd:  56                       pushl    %esi
0x06fef0be:  53                       pushl    %ebx
0x06fef0bf:  51                       pushl    %ecx
0x06fef0c0:  89 c6                    movl     %eax, %esi
0x06fef0c2:  50                       pushl    %eax
0x06fef0c3:  68 2d ff 0e 00           pushl    $0xeff2d
0x06fef0c8:  e8 92 cb 0f f9           calll    0xebc5f

----------------
IN: 
0x06fef0cd:  a1 30 ff ff 06           movl     0x6ffff30, %eax
0x06fef0d2:  89 44 24 08              movl     %eax, 8(%esp)
0x06fef0d6:  8b 1d 38 fe ff 06        movl     0x6fffe38, %ebx
0x06fef0dc:  5f                       popl     %edi
0x06fef0dd:  5d                       popl     %ebp
0x06fef0de:  31 ff                    xorl     %edi, %edi
0x06fef0e0:  39 3c 24                 cmpl     %edi, (%esp)
0x06fef0e3:  7e 15                    jle      0x6fef0fa

----------------
IN: 
0x06fef0fa:  31 ed                    xorl     %ebp, %ebp
0x06fef0fc:  89 e8                    movl     %ebp, %eax
0x06fef0fe:  5a                       popl     %edx
0x06fef0ff:  5b                       popl     %ebx
0x06fef100:  5e                       popl     %esi
0x06fef101:  5f                       popl     %edi
0x06fef102:  5d                       popl     %ebp
0x06fef103:  c3                       retl     

----------------
IN: 
0x06ff3a8b:  83 c4 14                 addl     $0x14, %esp
0x06ff3a8e:  85 c0                    testl    %eax, %eax
0x06ff3a90:  74 14                    je       0x6ff3aa6

----------------
IN: 
0x06ff3aa6:  81 c4 00 01 00 00        addl     $0x100, %esp
0x06ff3aac:  5b                       popl     %ebx
0x06ff3aad:  5e                       popl     %esi
0x06ff3aae:  5f                       popl     %edi
0x06ff3aaf:  c3                       retl     

----------------
IN: 
0x06ff9d3e:  89 f9                    movl     %edi, %ecx
0x06ff9d40:  89 f2                    movl     %esi, %edx
0x06ff9d42:  89 d8                    movl     %ebx, %eax
0x06ff9d44:  e8 ec 42 ff ff           calll    0x6fee035

----------------
IN: 
0x06fee035:  53                       pushl    %ebx
0x06fee036:  89 d3                    movl     %edx, %ebx
0x06fee038:  89 ca                    movl     %ecx, %edx
0x06fee03a:  8b 0d 28 fe ff 06        movl     0x6fffe28, %ecx
0x06fee040:  85 d2                    testl    %edx, %edx
0x06fee042:  79 02                    jns      0x6fee046

----------------
IN: 
0x06fee044:  89 ca                    movl     %ecx, %edx
0x06fee046:  53                       pushl    %ebx
0x06fee047:  89 c1                    movl     %eax, %ecx
0x06fee049:  b8 02 00 00 00           movl     $2, %eax
0x06fee04e:  e8 4a ff ff ff           calll    0x6fedf9d

----------------
IN: 
0x06fee003:  39 7a f8                 cmpl     %edi, -8(%edx)
0x06fee006:  7f eb                    jg       0x6fedff3

----------------
IN: 
0x06fee053:  58                       popl     %eax
0x06fee054:  5b                       popl     %ebx
0x06fee055:  c3                       retl     

----------------
IN: 
0x06ff9d49:  83 c4 0c                 addl     $0xc, %esp
0x06ff9d4c:  66 8b 84 24 2e 01 00 00  movw     0x12e(%esp), %ax
0x06ff9d54:  be 01 00 00 00           movl     $1, %esi
0x06ff9d59:  80 7c 24 03 00           cmpb     $0, 3(%esp)
0x06ff9d5e:  75 1b                    jne      0x6ff9d7b

----------------
IN: 
0x06ff9d60:  66 25 61 df              andw     $0xdf61, %ax
0x06ff9d64:  66 3d 41 40              cmpw     $0x4041, %ax
0x06ff9d68:  74 11                    je       0x6ff9d7b

----------------
IN: 
0x06ff9d6a:  c6 44 24 03 01           movb     $1, 3(%esp)
0x06ff9d6f:  e9 16 fc ff ff           jmp      0x6ff998a

----------------
IN: 
0x06ff998a:  8b 44 24 0c              movl     0xc(%esp), %eax
0x06ff998e:  0f b7 00                 movzwl   (%eax), %eax
0x06ff9991:  89 c5                    movl     %eax, %ebp
0x06ff9993:  89 44 24 10              movl     %eax, 0x10(%esp)
0x06ff9997:  e8 8d 50 ff ff           calll    0x6feea29

----------------
IN: 
0x06ff9c01:  be 01 00 00 00           movl     $1, %esi
0x06ff9c06:  e9 69 01 00 00           jmp      0x6ff9d74

----------------
IN: 
0x06ff9d74:  80 7c 24 03 00           cmpb     $0, 3(%esp)
0x06ff9d79:  74 ef                    je       0x6ff9d6a

----------------
IN: 
0x06ff9d7b:  81 c4 74 02 00 00        addl     $0x274, %esp
0x06ff9d81:  5b                       popl     %ebx
0x06ff9d82:  5e                       popl     %esi
0x06ff9d83:  5f                       popl     %edi
0x06ff9d84:  5d                       popl     %ebp
0x06ff9d85:  c3                       retl     

----------------
IN: 
0x06feddb9:  89 d8                    movl     %ebx, %eax
0x06feddbb:  8b 5b 04                 movl     4(%ebx), %ebx
0x06feddbe:  8b 25 c8 61 0f 00        movl     0xf61c8, %esp
0x06feddc4:  e8 49 f9 ff ff           calll    0x6fed712

----------------
IN: 
0x06fed712:  89 c1                    movl     %eax, %ecx
0x06fed714:  8d 40 04                 leal     4(%eax), %eax
0x06fed717:  e8 64 da ff ff           calll    0x6feb180

----------------
IN: 
0x06fed71c:  89 c8                    movl     %ecx, %eax
0x06fed71e:  e8 69 ff ff ff           calll    0x6fed68c

----------------
IN: 
0x06fed723:  81 3d cc 61 0f 00 cc 61  cmpl     $0xf61cc, 0xf61cc
0x06fed72b:  0f 00
0x06fed72d:  75 0b                    jne      0x6fed73a

----------------
IN: 
0x06fed73a:  c3                       retl     

----------------
IN: 
0x06feddc9:  8b 63 fc                 movl     -4(%ebx), %esp
0x06feddcc:  5d                       popl     %ebp
0x06feddcd:  c3                       retl     

----------------
IN: 
0x06ff1c15:  ba c8 00 00 00           movl     $0xc8, %edx
0x06ff1c1a:  e8 42 ff ff ff           calll    0x6ff1b61

----------------
IN: 
0x06ff1c1f:  85 c0                    testl    %eax, %eax
0x06ff1c21:  75 39                    jne      0x6ff1c5c

----------------
IN: 
0x06ff1c23:  89 f0                    movl     %esi, %eax
0x06ff1c25:  c1 f8 0c                 sarl     $0xc, %eax
0x06ff1c28:  48                       decl     %eax
0x06ff1c29:  75 0f                    jne      0x6ff1c3a

----------------
IN: 
0x06ff1c3a:  81 e6 00 0f 00 00        andl     $0xf00, %esi
0x06ff1c40:  81 fe 00 01 00 00        cmpl     $0x100, %esi
0x06ff1c46:  75 16                    jne      0x6ff1c5e

----------------
IN: 
0x06ff1d8a:  85 c0                    testl    %eax, %eax
0x06ff1d8c:  75 39                    jne      0x6ff1dc7

----------------
IN: 
0x06ff1d8e:  c6 44 24 02 02           movb     $2, 2(%esp)
0x06ff1d93:  8d 54 24 02              leal     2(%esp), %edx
0x06ff1d97:  b8 f0 10 00 00           movl     $0x10f0, %eax
0x06ff1d9c:  e8 f5 fd ff ff           calll    0x6ff1b96

----------------
IN: 
0x06ff1f8b:  58                       popl     %eax
0x06ff1f8c:  5a                       popl     %edx
0x06ff1f8d:  5b                       popl     %ebx
0x06ff1f8e:  5e                       popl     %esi
0x06ff1f8f:  5f                       popl     %edi
0x06ff1f90:  5d                       popl     %ebp
0x06ff1f91:  c3                       retl     

----------------
IN: 
0x06ff8b35:  c6 05 76 04 00 00 c0     movb     $0xc0, 0x476
0x06ff8b3c:  ba 19 d4 0f 00           movl     $0xfd419, %edx
0x06ff8b41:  0f b7 d2                 movzwl   %dx, %edx
0x06ff8b44:  81 ca 00 00 00 f0        orl      $0xf0000000, %edx
0x06ff8b4a:  b8 0e 00 00 00           movl     $0xe, %eax
0x06ff8b4f:  e8 05 3d ff ff           calll    0x6fec859

----------------
IN: 
0x06ff8b54:  a1 c0 fd ff 06           movl     0x6fffdc0, %eax
0x06ff8b59:  8d 78 fc                 leal     -4(%eax), %edi
0x06ff8b5c:  83 ff fc                 cmpl     $-4, %edi
0x06ff8b5f:  0f 84 f5 01 00 00        je       0x6ff8d5a

----------------
IN: 
0x06ff8b65:  66 81 7f 14 06 01        cmpw     $0x106, 0x14(%edi)
0x06ff8b6b:  0f 85 de 01 00 00        jne      0x6ff8d4f

----------------
IN: 
0x06ff8d4f:  8b 7f 04                 movl     4(%edi), %edi
0x06ff8d52:  83 ef 04                 subl     $4, %edi
0x06ff8d55:  e9 02 fe ff ff           jmp      0x6ff8b5c

----------------
IN: 
0x06ff8b5c:  83 ff fc                 cmpl     $-4, %edi
0x06ff8b5f:  0f 84 f5 01 00 00        je       0x6ff8d5a

----------------
IN: 
0x06ff8d5a:  31 db                    xorl     %ebx, %ebx
0x06ff8d5c:  89 ea                    movl     %ebp, %edx
0x06ff8d5e:  b8 04 2e 0f 00           movl     $0xf2e04, %eax
0x06ff8d63:  e8 af 28 ff ff           calll    0x6feb617

----------------
IN: 
0x06ff8d68:  89 c5                    movl     %eax, %ebp
0x06ff8d6a:  85 c0                    testl    %eax, %eax
0x06ff8d6c:  74 0f                    je       0x6ff8d7d

----------------
IN: 
0x06ff8d7d:  85 db                    testl    %ebx, %ebx
0x06ff8d7f:  74 28                    je       0x6ff8da9

----------------
IN: 
0x06ff8da9:  a1 c0 fd ff 06           movl     0x6fffdc0, %eax
0x06ff8dae:  8d 58 fc                 leal     -4(%eax), %ebx
0x06ff8db1:  83 fb fc                 cmpl     $-4, %ebx
0x06ff8db4:  74 cb                    je       0x6ff8d81

----------------
IN: 
0x06ff8db6:  66 81 7b 14 05 08        cmpw     $0x805, 0x14(%ebx)
0x06ff8dbc:  75 12                    jne      0x6ff8dd0

----------------
IN: 
0x06ff8dd0:  8b 5b 04                 movl     4(%ebx), %ebx
0x06ff8dd3:  83 eb 04                 subl     $4, %ebx
0x06ff8dd6:  eb d9                    jmp      0x6ff8db1

----------------
IN: 
0x06ff8db1:  83 fb fc                 cmpl     $-4, %ebx
0x06ff8db4:  74 cb                    je       0x6ff8d81

----------------
IN: 
0x06ff8d81:  31 d2                    xorl     %edx, %edx
0x06ff8d83:  b8 0f 2e 0f 00           movl     $0xf2e0f, %eax
0x06ff8d88:  e8 8a 28 ff ff           calll    0x6feb617

----------------
IN: 
0x06ff8d8d:  89 c3                    movl     %eax, %ebx
0x06ff8d8f:  85 c0                    testl    %eax, %eax
0x06ff8d91:  0f 84 8d 00 00 00        je       0x6ff8e24

----------------
IN: 
0x06ff8e24:  e8 1c 63 ff ff           calll    0x6fef145

----------------
IN: 
0x06fef145:  83 3d 0c fc ff 06 fe     cmpl     $-2, 0x6fffc0c
0x06fef14c:  75 0f                    jne      0x6fef15d

----------------
IN: 
0x06fef14e:  b8 6b ff 0e 00           movl     $0xeff6b, %eax
0x06fef153:  e8 ac ff ff ff           calll    0x6fef104

----------------
IN: 
0x06fef158:  a3 0c fc ff 06           movl     %eax, 0x6fffc0c
0x06fef15d:  a1 0c fc ff 06           movl     0x6fffc0c, %eax
0x06fef162:  f7 d0                    notl     %eax
0x06fef164:  c1 e8 1f                 shrl     $0x1f, %eax
0x06fef167:  c3                       retl     

----------------
IN: 
0x06ff8e29:  89 c6                    movl     %eax, %esi
0x06ff8e2b:  a1 c0 fd ff 06           movl     0x6fffdc0, %eax
0x06ff8e30:  8d 58 fc                 leal     -4(%eax), %ebx
0x06ff8e33:  83 fb fc                 cmpl     $-4, %ebx
0x06ff8e36:  74 4c                    je       0x6ff8e84

----------------
IN: 
0x06ff8e38:  66 81 7b 10 f4 1a        cmpw     $0x1af4, 0x10(%ebx)
0x06ff8e3e:  75 3c                    jne      0x6ff8e7c

----------------
IN: 
0x06ff8e7c:  8b 5b 04                 movl     4(%ebx), %ebx
0x06ff8e7f:  83 eb 04                 subl     $4, %ebx
0x06ff8e82:  eb af                    jmp      0x6ff8e33

----------------
IN: 
0x06ff8e33:  83 fb fc                 cmpl     $-4, %ebx
0x06ff8e36:  74 4c                    je       0x6ff8e84

----------------
IN: 
0x06ff8e84:  e8 bc 62 ff ff           calll    0x6fef145

----------------
IN: 
0x06fef15d:  a1 0c fc ff 06           movl     0x6fffc0c, %eax
0x06fef162:  f7 d0                    notl     %eax
0x06fef164:  c1 e8 1f                 shrl     $0x1f, %eax
0x06fef167:  c3                       retl     

----------------
IN: 
0x06ff8e89:  89 c6                    movl     %eax, %esi
0x06ff8e8b:  a1 c0 fd ff 06           movl     0x6fffdc0, %eax
0x06ff8e90:  8d 58 fc                 leal     -4(%eax), %ebx
0x06ff8e93:  83 fb fc                 cmpl     $-4, %ebx
0x06ff8e96:  74 4c                    je       0x6ff8ee4

----------------
IN: 
0x06ff8e98:  66 81 7b 10 f4 1a        cmpw     $0x1af4, 0x10(%ebx)
0x06ff8e9e:  75 3c                    jne      0x6ff8edc

----------------
IN: 
0x06ff8edc:  8b 5b 04                 movl     4(%ebx), %ebx
0x06ff8edf:  83 eb 04                 subl     $4, %ebx
0x06ff8ee2:  eb af                    jmp      0x6ff8e93

----------------
IN: 
0x06ff8e93:  83 fb fc                 cmpl     $-4, %ebx
0x06ff8e96:  74 4c                    je       0x6ff8ee4

----------------
IN: 
0x06ff8ee4:  a1 c0 fd ff 06           movl     0x6fffdc0, %eax
0x06ff8ee9:  8d 58 fc                 leal     -4(%eax), %ebx
0x06ff8eec:  83 fb fc                 cmpl     $-4, %ebx
0x06ff8eef:  74 1d                    je       0x6ff8f0e

----------------
IN: 
0x06ff8ef1:  81 7b 10 00 10 12 00     cmpl     $0x121000, 0x10(%ebx)
0x06ff8ef8:  75 0c                    jne      0x6ff8f06

----------------
IN: 
0x06ff8f06:  8b 5b 04                 movl     4(%ebx), %ebx
0x06ff8f09:  83 eb 04                 subl     $4, %ebx
0x06ff8f0c:  eb de                    jmp      0x6ff8eec

----------------
IN: 
0x06ff8eec:  83 fb fc                 cmpl     $-4, %ebx
0x06ff8eef:  74 1d                    je       0x6ff8f0e

----------------
IN: 
0x06ff8f0e:  a1 c0 fd ff 06           movl     0x6fffdc0, %eax
0x06ff8f13:  8d 58 fc                 leal     -4(%eax), %ebx
0x06ff8f16:  83 fb fc                 cmpl     $-4, %ebx
0x06ff8f19:  74 1d                    je       0x6ff8f38

----------------
IN: 
0x06ff8f1b:  81 7b 10 22 10 20 20     cmpl     $0x20201022, 0x10(%ebx)
0x06ff8f22:  75 0c                    jne      0x6ff8f30

----------------
IN: 
0x06ff8f30:  8b 5b 04                 movl     4(%ebx), %ebx
0x06ff8f33:  83 eb 04                 subl     $4, %ebx
0x06ff8f36:  eb de                    jmp      0x6ff8f16

----------------
IN: 
0x06ff8f16:  83 fb fc                 cmpl     $-4, %ebx
0x06ff8f19:  74 1d                    je       0x6ff8f38

----------------
IN: 
0x06ff8f38:  a1 c0 fd ff 06           movl     0x6fffdc0, %eax
0x06ff8f3d:  8d 58 fc                 leal     -4(%eax), %ebx
0x06ff8f40:  83 fb fc                 cmpl     $-4, %ebx
0x06ff8f43:  74 5b                    je       0x6ff8fa0

----------------
IN: 
0x06ff8f45:  8b 43 10                 movl     0x10(%ebx), %eax
0x06ff8f48:  66 3d 28 10              cmpw     $0x1028, %ax
0x06ff8f4c:  74 06                    je       0x6ff8f54

----------------
IN: 
0x06ff8f4e:  66 3d 00 10              cmpw     $0x1000, %ax
0x06ff8f52:  75 44                    jne      0x6ff8f98

----------------
IN: 
0x06ff8f98:  8b 5b 04                 movl     4(%ebx), %ebx
0x06ff8f9b:  83 eb 04                 subl     $4, %ebx
0x06ff8f9e:  eb a0                    jmp      0x6ff8f40

----------------
IN: 
0x06ff8f40:  83 fb fc                 cmpl     $-4, %ebx
0x06ff8f43:  74 5b                    je       0x6ff8fa0

----------------
IN: 
0x06ff8fa0:  a1 c0 fd ff 06           movl     0x6fffdc0, %eax
0x06ff8fa5:  8d 58 fc                 leal     -4(%eax), %ebx
0x06ff8fa8:  83 fb fc                 cmpl     $-4, %ebx
0x06ff8fab:  74 1d                    je       0x6ff8fca

----------------
IN: 
0x06ff8fad:  81 7b 10 ad 15 c0 07     cmpl     $0x7c015ad, 0x10(%ebx)
0x06ff8fb4:  75 0c                    jne      0x6ff8fc2

----------------
IN: 
0x06ff8fc2:  8b 5b 04                 movl     4(%ebx), %ebx
0x06ff8fc5:  83 eb 04                 subl     $4, %ebx
0x06ff8fc8:  eb de                    jmp      0x6ff8fa8

----------------
IN: 
0x06ff8fa8:  83 fb fc                 cmpl     $-4, %ebx
0x06ff8fab:  74 1d                    je       0x6ff8fca

----------------
IN: 
0x06ff8fca:  a1 c0 fd ff 06           movl     0x6fffdc0, %eax
0x06ff8fcf:  8d 58 fc                 leal     -4(%eax), %ebx
0x06ff8fd2:  83 fb fc                 cmpl     $-4, %ebx
0x06ff8fd5:  74 30                    je       0x6ff9007

----------------
IN: 
0x06ff8fd7:  66 81 7b 10 00 10        cmpw     $0x1000, 0x10(%ebx)
0x06ff8fdd:  75 20                    jne      0x6ff8fff

----------------
IN: 
0x06ff8fff:  8b 5b 04                 movl     4(%ebx), %ebx

----------------
IN: 
0x06ff9002:  83 eb 04                 subl     $4, %ebx
0x06ff9005:  eb cb                    jmp      0x6ff8fd2

----------------
IN: 
0x06ff8fd2:  83 fb fc                 cmpl     $-4, %ebx
0x06ff8fd5:  74 30                    je       0x6ff9007

----------------
IN: 
0x06ff9007:  a1 c0 fd ff 06           movl     0x6fffdc0, %eax
0x06ff900c:  8d 58 fc                 leal     -4(%eax), %ebx
0x06ff900f:  83 fb fc                 cmpl     $-4, %ebx
0x06ff9012:  74 22                    je       0x6ff9036

----------------
IN: 
0x06ff9014:  66 81 7b 14 08 01        cmpw     $0x108, 0x14(%ebx)
0x06ff901a:  75 12                    jne      0x6ff902e

----------------
IN: 
0x06ff902e:  8b 5b 04                 movl     4(%ebx), %ebx
0x06ff9031:  83 eb 04                 subl     $4, %ebx
0x06ff9034:  eb d9                    jmp      0x6ff900f

----------------
IN: 
0x06ff900f:  83 fb fc                 cmpl     $-4, %ebx
0x06ff9012:  74 22                    je       0x6ff9036

----------------
IN: 
0x06ff9036:  ba 7a 03 00 00           movl     $0x37a, %edx
0x06ff903b:  ec                       inb      %dx, %al

----------------
IN: 
0x06ff903c:  83 e0 df                 andl     $0xffffffdf, %eax
0x06ff903f:  ee                       outb     %al, %dx

----------------
IN: 
0x06ff9040:  ba 78 03 00 00           movl     $0x378, %edx
0x06ff9045:  b0 aa                    movb     $0xaa, %al
0x06ff9047:  ee                       outb     %al, %dx

----------------
IN: 
0x06ff9048:  ec                       inb      %dx, %al

----------------
IN: 
0x06ff9049:  31 c9                    xorl     %ecx, %ecx
0x06ff904b:  3c aa                    cmpb     $0xaa, %al
0x06ff904d:  75 15                    jne      0x6ff9064

----------------
IN: 
0x06ff904f:  66 c7 05 08 04 00 00 78  movw     $0x378, 0x408
0x06ff9057:  03
0x06ff9058:  c6 05 78 04 00 00 14     movb     $0x14, 0x478
0x06ff905f:  b9 01 00 00 00           movl     $1, %ecx
0x06ff9064:  ba 7a 02 00 00           movl     $0x27a, %edx
0x06ff9069:  ec                       inb      %dx, %al

----------------
IN: 
0x06ff906a:  83 e0 df                 andl     $0xffffffdf, %eax
0x06ff906d:  ee                       outb     %al, %dx

----------------
IN: 
0x06ff906e:  ba 78 02 00 00           movl     $0x278, %edx
0x06ff9073:  b0 aa                    movb     $0xaa, %al
0x06ff9075:  ee                       outb     %al, %dx

----------------
IN: 
0x06ff9076:  ec                       inb      %dx, %al

----------------
IN: 
0x06ff9077:  31 db                    xorl     %ebx, %ebx
0x06ff9079:  3c aa                    cmpb     $0xaa, %al
0x06ff907b:  75 19                    jne      0x6ff9096

----------------
IN: 
0x06ff9096:  01 cb                    addl     %ecx, %ebx
0x06ff9098:  0f b7 c3                 movzwl   %bx, %eax
0x06ff909b:  50                       pushl    %eax
0x06ff909c:  68 ac 2e 0f 00           pushl    $0xf2eac
0x06ff90a1:  e8 b9 2b 0f f9           calll    0xebc5f

----------------
IN: 
0x06ff90a6:  a1 10 04 00 00           movl     0x410, %eax
0x06ff90ab:  66 25 ff 3f              andw     $0x3fff, %ax
0x06ff90af:  c1 e3 0e                 shll     $0xe, %ebx
0x06ff90b2:  09 d8                    orl      %ebx, %eax
0x06ff90b4:  66 a3 10 04 00 00        movw     %ax, 0x410
0x06ff90ba:  31 d2                    xorl     %edx, %edx
0x06ff90bc:  b8 f8 03 00 00           movl     $0x3f8, %eax
0x06ff90c1:  e8 7d 36 ff ff           calll    0x6fec743

----------------
IN: 
0x06fec743:  56                       pushl    %esi
0x06fec744:  53                       pushl    %ebx
0x06fec745:  89 c3                    movl     %eax, %ebx
0x06fec747:  89 d1                    movl     %edx, %ecx
0x06fec749:  8d 70 01                 leal     1(%eax), %esi
0x06fec74c:  b0 02                    movb     $2, %al
0x06fec74e:  89 f2                    movl     %esi, %edx
0x06fec750:  ee                       outb     %al, %dx

----------------
IN: 
0x06fec751:  ec                       inb      %dx, %al

----------------
IN: 
0x06fec752:  3c 02                    cmpb     $2, %al
0x06fec754:  75 2c                    jne      0x6fec782

----------------
IN: 
0x06fec756:  8d 53 02                 leal     2(%ebx), %edx
0x06fec759:  ec                       inb      %dx, %al

----------------
IN: 
0x06fec75a:  83 e0 3f                 andl     $0x3f, %eax
0x06fec75d:  88 c2                    movb     %al, %dl
0x06fec75f:  31 c0                    xorl     %eax, %eax
0x06fec761:  80 fa 02                 cmpb     $2, %dl
0x06fec764:  75 1e                    jne      0x6fec784

----------------
IN: 
0x06fec766:  89 f2                    movl     %esi, %edx
0x06fec768:  ee                       outb     %al, %dx

----------------
IN: 
0x06fec769:  0f b6 c1                 movzbl   %cl, %eax
0x06fec76c:  66 89 9c 00 00 04 00 00  movw     %bx, 0x400(%eax, %eax)
0x06fec774:  c6 80 7c 04 00 00 0a     movb     $0xa, 0x47c(%eax)
0x06fec77b:  b8 01 00 00 00           movl     $1, %eax
0x06fec780:  eb 02                    jmp      0x6fec784

----------------
IN: 
0x06fec784:  5b                       popl     %ebx
0x06fec785:  5e                       popl     %esi
0x06fec786:  c3                       retl     

----------------
IN: 
0x06ff90c6:  89 c3                    movl     %eax, %ebx
0x06ff90c8:  0f b6 d0                 movzbl   %al, %edx
0x06ff90cb:  b8 f8 02 00 00           movl     $0x2f8, %eax
0x06ff90d0:  e8 6e 36 ff ff           calll    0x6fec743

----------------
IN: 
0x06fec782:  31 c0                    xorl     %eax, %eax
0x06fec784:  5b                       popl     %ebx
0x06fec785:  5e                       popl     %esi
0x06fec786:  c3                       retl     

----------------
IN: 
0x06ff90d5:  01 c3                    addl     %eax, %ebx
0x06ff90d7:  0f b6 d3                 movzbl   %bl, %edx
0x06ff90da:  b8 e8 03 00 00           movl     $0x3e8, %eax
0x06ff90df:  e8 5f 36 ff ff           calll    0x6fec743

----------------
IN: 
0x06ff90e4:  01 c3                    addl     %eax, %ebx
0x06ff90e6:  0f b6 d3                 movzbl   %bl, %edx
0x06ff90e9:  b8 e8 02 00 00           movl     $0x2e8, %eax
0x06ff90ee:  e8 50 36 ff ff           calll    0x6fec743

----------------
IN: 
0x06ff90f3:  01 c3                    addl     %eax, %ebx
0x06ff90f5:  0f b7 c3                 movzwl   %bx, %eax
0x06ff90f8:  50                       pushl    %eax
0x06ff90f9:  68 c0 2e 0f 00           pushl    $0xf2ec0
0x06ff90fe:  e8 5c 2b 0f f9           calll    0xebc5f

----------------
IN: 
0x06ff9103:  a1 10 04 00 00           movl     0x410, %eax
0x06ff9108:  80 e4 f1                 andb     $0xf1, %ah
0x06ff910b:  c1 e3 09                 shll     $9, %ebx
0x06ff910e:  09 d8                    orl      %ebx, %eax
0x06ff9110:  66 a3 10 04 00 00        movw     %ax, 0x410
0x06ff9116:  83 c4 24                 addl     $0x24, %esp
0x06ff9119:  5b                       popl     %ebx
0x06ff911a:  5e                       popl     %esi
0x06ff911b:  5f                       popl     %edi
0x06ff911c:  5d                       popl     %ebp
0x06ff911d:  c3                       retl     

----------------
IN: 
0x06ffbcc4:  e8 25 17 ff ff           calll    0x6fed3ee

----------------
IN: 
0x06fed3ee:  81 3d cc 61 0f 00 cc 61  cmpl     $0xf61cc, 0xf61cc
0x06fed3f6:  0f 00
0x06fed3f8:  74 07                    je       0x6fed401

----------------
IN: 
0x06fed3fa:  e8 6f e4 0f f9           calll    0xeb86e

----------------
IN: 
0x06ff9b1d:  8d 54 24 74              leal     0x74(%esp), %edx
0x06ff9b21:  8d 44 24 40              leal     0x40(%esp), %eax
0x06ff9b25:  e8 b7 46 ff ff           calll    0x6fee1e1

----------------
IN: 
0x06ff9b2a:  89 c3                    movl     %eax, %ebx
0x06ff9b2c:  85 c0                    testl    %eax, %eax
0x06ff9b2e:  74 dc                    je       0x6ff9b0c

----------------
IN: 
0x06ff9b30:  c6 00 21                 movb     $0x21, (%eax)
0x06ff9b33:  66 c7 40 1a 00 08        movw     $0x800, 0x1a(%eax)
0x06ff9b39:  c7 40 0c ff ff ff ff     movl     $0xffffffff, 0xc(%eax)
0x06ff9b40:  c7 40 10 ff ff ff ff     movl     $0xffffffff, 0x10(%eax)
0x06ff9b47:  0f b6 7c 24 75           movzbl   0x75(%esp), %edi
0x06ff9b4c:  83 e7 1f                 andl     $0x1f, %edi
0x06ff9b4f:  bd b2 30 0f 00           movl     $0xf30b2, %ebp
0x06ff9b54:  66 83 ff 05              cmpw     $5, %di
0x06ff9b58:  75 05                    jne      0x6ff9b5f

----------------
IN: 
0x06ff9b5a:  bd ab 30 0f 00           movl     $0xf30ab, %ebp
0x06ff9b5f:  8d 44 24 74              leal     0x74(%esp), %eax
0x06ff9b63:  e8 2d 19 ff ff           calll    0x6feb495

----------------
IN: 
0x06ff9b68:  89 c6                    movl     %eax, %esi
0x06ff9b6a:  8d 54 24 74              leal     0x74(%esp), %edx
0x06ff9b6e:  8d 44 24 17              leal     0x17(%esp), %eax
0x06ff9b72:  e8 43 2b ff ff           calll    0x6fec6ba

----------------
IN: 
0x06ff9b77:  55                       pushl    %ebp
0x06ff9b78:  56                       pushl    %esi
0x06ff9b79:  50                       pushl    %eax
0x06ff9b7a:  0f b6 43 30              movzbl   0x30(%ebx), %eax
0x06ff9b7e:  50                       pushl    %eax
0x06ff9b7f:  8b 43 2c                 movl     0x2c(%ebx), %eax
0x06ff9b82:  0f b6 40 08              movzbl   8(%eax), %eax
0x06ff9b86:  50                       pushl    %eax
0x06ff9b87:  68 b9 30 0f 00           pushl    $0xf30b9
0x06ff9b8c:  6a 50                    pushl    $0x50
0x06ff9b8e:  e8 1d 9f ff ff           calll    0x6ff3ab0

----------------
IN: 
0x06ff9b93:  89 c6                    movl     %eax, %esi
0x06ff9b95:  50                       pushl    %eax
0x06ff9b96:  68 db 30 0f 00           pushl    $0xf30db
0x06ff9b9b:  e8 bf 20 0f f9           calll    0xebc5f

----------------
IN: 
0x06ff9ba0:  83 c4 24                 addl     $0x24, %esp
0x06ff9ba3:  66 83 ff 05              cmpw     $5, %di
0x06ff9ba7:  0f 85 9f 01 00 00        jne      0x6ff9d4c

----------------
IN: 
0x06ff9bad:  8b 43 2c                 movl     0x2c(%ebx), %eax
0x06ff9bb0:  0f b6 4b 30              movzbl   0x30(%ebx), %ecx
0x06ff9bb4:  0f b6 50 07              movzbl   7(%eax), %edx
0x06ff9bb8:  8b 40 10                 movl     0x10(%eax), %eax
0x06ff9bbb:  e8 84 9d ff ff           calll    0x6ff3944

----------------
IN: 
0x06ff9bc0:  89 c7                    movl     %eax, %edi
0x06ff9bc2:  8b 43 2c                 movl     0x2c(%ebx), %eax
0x06ff9bc5:  0f b6 4b 30              movzbl   0x30(%ebx), %ecx
0x06ff9bc9:  0f b6 50 07              movzbl   7(%eax), %edx
0x06ff9bcd:  8b 40 10                 movl     0x10(%eax), %eax
0x06ff9bd0:  8d 6b 02                 leal     2(%ebx), %ebp
0x06ff9bd3:  55                       pushl    %ebp
0x06ff9bd4:  e8 6c 9e ff ff           calll    0x6ff3a45

----------------
IN: 
0x06ff9bd9:  89 f9                    movl     %edi, %ecx
0x06ff9bdb:  89 f2                    movl     %esi, %edx
0x06ff9bdd:  89 d8                    movl     %ebx, %eax
0x06ff9bdf:  e8 21 fd ff ff           calll    0x6ff9905

----------------
IN: 
0x06ff9905:  55                       pushl    %ebp
0x06ff9906:  57                       pushl    %edi
0x06ff9907:  56                       pushl    %esi
0x06ff9908:  53                       pushl    %ebx
0x06ff9909:  89 c5                    movl     %eax, %ebp
0x06ff990b:  89 d3                    movl     %edx, %ebx
0x06ff990d:  89 ce                    movl     %ecx, %esi
0x06ff990f:  f6 05 e0 55 0f 00 01     testb    $1, 0xf55e0
0x06ff9916:  74 25                    je       0x6ff993d

----------------
IN: 
0x06ff9918:  e8 2b ff ff ff           calll    0x6ff9848

----------------
IN: 
0x06ff9848:  53                       pushl    %ebx
0x06ff9849:  81 ec 14 08 00 00        subl     $0x814, %esp
0x06ff984f:  89 c3                    movl     %eax, %ebx
0x06ff9851:  b9 14 00 00 00           movl     $0x14, %ecx
0x06ff9856:  31 d2                    xorl     %edx, %edx
0x06ff9858:  89 e0                    movl     %esp, %eax
0x06ff985a:  e8 fb 07 0f f9           calll    0xea05a

----------------
IN: 
0x06ff985f:  89 5c 24 04              movl     %ebx, 4(%esp)
0x06ff9863:  e8 2c 53 0f f9           calll    0xeeb94

----------------
IN: 
0x000eeb94:  55                       pushl    %ebp
0x000eeb95:  57                       pushl    %edi
0x000eeb96:  56                       pushl    %esi
0x000eeb97:  53                       pushl    %ebx
0x000eeb98:  83 ec 28                 subl     $0x28, %esp
0x000eeb9b:  89 c3                    movl     %eax, %ebx
0x000eeb9d:  b8 88 13 00 00           movl     $0x1388, %eax
0x000eeba2:  e8 55 c6 ff ff           calll    0xeb1fc

----------------
IN: 
0x000eeba7:  89 04 24                 movl     %eax, (%esp)
0x000eebaa:  31 ed                    xorl     %ebp, %ebp
0x000eebac:  be 03 00 00 00           movl     $3, %esi
0x000eebb1:  8b 04 24                 movl     (%esp), %eax
0x000eebb4:  e8 9a c6 ff ff           calll    0xeb253

----------------
IN: 
0x000eebb9:  85 c0                    testl    %eax, %eax
0x000eebbb:  74 10                    je       0xeebcd

----------------
IN: 
0x000eebcd:  8d 7c 24 16              leal     0x16(%esp), %edi
0x000eebd1:  b9 10 00 00 00           movl     $0x10, %ecx
0x000eebd6:  31 d2                    xorl     %edx, %edx
0x000eebd8:  89 f8                    movl     %edi, %eax
0x000eebda:  e8 7b b4 ff ff           calll    0xea05a

----------------
IN: 
0x000eebdf:  c6 44 24 16 00           movb     $0, 0x16(%esp)
0x000eebe4:  c6 43 08 20              movb     $0x20, 8(%ebx)
0x000eebe8:  31 c0                    xorl     %eax, %eax
0x000eebea:  89 03                    movl     %eax, (%ebx)
0x000eebec:  89 7b 10                 movl     %edi, 0x10(%ebx)
0x000eebef:  31 c0                    xorl     %eax, %eax
0x000eebf1:  89 43 0a                 movl     %eax, 0xa(%ebx)
0x000eebf4:  89 d8                    movl     %ebx, %eax
0x000eebf6:  e8 57 ff ff ff           calll    0xeeb52

----------------
IN: 
0x000eeb52:  56                       pushl    %esi
0x000eeb53:  53                       pushl    %ebx
0x000eeb54:  89 c3                    movl     %eax, %ebx
0x000eeb56:  0f b7 70 0a              movzwl   0xa(%eax), %esi
0x000eeb5a:  8b 40 04                 movl     4(%eax), %eax
0x000eeb5d:  0f b7 40 1a              movzwl   0x1a(%eax), %eax
0x000eeb61:  0f af c6                 imull    %esi, %eax
0x000eeb64:  3d 00 00 01 00           cmpl     $0x10000, %eax
0x000eeb69:  7e 0d                    jle      0xeeb78

----------------
IN: 
0x000eeb78:  89 d8                    movl     %ebx, %eax
0x000eeb7a:  e8 75 f3 ff ff           calll    0xedef4

----------------
IN: 
0x000edef4:  55                       pushl    %ebp
0x000edef5:  57                       pushl    %edi
0x000edef6:  56                       pushl    %esi
0x000edef7:  53                       pushl    %ebx
0x000edef8:  81 ec f0 00 00 00        subl     $0xf0, %esp
0x000edefe:  89 04 24                 movl     %eax, (%esp)
0x000edf01:  8b 68 04                 movl     4(%eax), %ebp
0x000edf04:  8a 45 00                 movb     (%ebp), %al
0x000edf07:  3c 71                    cmpb     $0x71, %al
0x000edf09:  0f 84 7d 01 00 00        je       0xee08c

----------------
IN: 
0x000edf0f:  77 24                    ja       0xedf35

----------------
IN: 
0x000edf11:  3c 60                    cmpb     $0x60, %al
0x000edf13:  0f 84 ad 01 00 00        je       0xee0c6

----------------
IN: 
0x000edf19:  77 11                    ja       0xedf2c

----------------
IN: 
0x000edf1b:  3c 50                    cmpb     $0x50, %al
0x000edf1d:  74 6f                    je       0xedf8e

----------------
IN: 
0x000edf1f:  3c 51                    cmpb     $0x51, %al
0x000edf21:  0f 84 94 00 00 00        je       0xedfbb

----------------
IN: 
0x000edf27:  e9 c4 05 00 00           jmp      0xee4f0

----------------
IN: 
0x000ee4f0:  3c 21                    cmpb     $0x21, %al
0x000ee4f2:  74 24                    je       0xee518

----------------
IN: 
0x000ee518:  8b 04 24                 movl     (%esp), %eax
0x000ee51b:  8b 70 08                 movl     8(%eax), %esi
0x000ee51e:  8d 46 fd                 leal     -3(%esi), %eax
0x000ee521:  a8 fd                    testb    $0xfd, %al
0x000ee523:  0f 84 17 06 00 00        je       0xeeb40

----------------
IN: 
0x000ee529:  b9 0c 00 00 00           movl     $0xc, %ecx
0x000ee52e:  8d 54 24 51              leal     0x51(%esp), %edx
0x000ee532:  8b 04 24                 movl     (%esp), %eax
0x000ee535:  e8 5b bd ff ff           calll    0xea295

----------------
IN: 
0x000ea295:  55                       pushl    %ebp
0x000ea296:  57                       pushl    %edi
0x000ea297:  56                       pushl    %esi
0x000ea298:  53                       pushl    %ebx
0x000ea299:  89 c3                    movl     %eax, %ebx
0x000ea29b:  89 d5                    movl     %edx, %ebp
0x000ea29d:  8a 40 08                 movb     8(%eax), %al
0x000ea2a0:  3c 03                    cmpb     $3, %al
0x000ea2a2:  77 06                    ja       0xea2aa

----------------
IN: 
0x000ea2aa:  3c 20                    cmpb     $0x20, %al
0x000ea2ac:  74 3a                    je       0xea2e8

----------------
IN: 
0x000ea2e8:  8b 73 10                 movl     0x10(%ebx), %esi
0x000ea2eb:  89 d7                    movl     %edx, %edi
0x000ea2ed:  f3 a4                    rep movsb (%esi), %es:(%edi)

----------------
IN: 
0x000ea2ed:  f3 a4                    rep movsb (%esi), %es:(%edi)

----------------
IN: 
0x000ea2ef:  0f b7 43 0c              movzwl   0xc(%ebx), %eax
0x000ea2f3:  5b                       popl     %ebx
0x000ea2f4:  5e                       popl     %esi
0x000ea2f5:  5f                       popl     %edi
0x000ea2f6:  5d                       popl     %ebp
0x000ea2f7:  c3                       retl     

----------------
IN: 
0x000ee53a:  89 c3                    movl     %eax, %ebx
0x000ee53c:  89 f0                    movl     %esi, %eax
0x000ee53e:  85 db                    testl    %ebx, %ebx
0x000ee540:  0f 88 b7 04 00 00        js       0xee9fd

----------------
IN: 
0x000ee546:  8b 45 2c                 movl     0x2c(%ebp), %eax
0x000ee549:  66 8b 38                 movw     (%eax), %di
0x000ee54c:  66 8b 70 02              movw     2(%eax), %si
0x000ee550:  b9 0c 00 00 00           movl     $0xc, %ecx
0x000ee555:  31 d2                    xorl     %edx, %edx
0x000ee557:  8d 84 24 84 00 00 00     leal     0x84(%esp), %eax
0x000ee55e:  e8 f7 ba ff ff           calll    0xea05a

----------------
IN: 
0x000ee563:  66 89 9c 24 87 00 00 00  movw     %bx, 0x87(%esp)
0x000ee56b:  c6 84 24 8a 00 00 00 a0  movb     $0xa0, 0x8a(%esp)
0x000ee573:  8d 46 02                 leal     2(%esi), %eax
0x000ee576:  66 89 44 24 04           movw     %ax, 4(%esp)
0x000ee57b:  b0 0a                    movb     $0xa, %al
0x000ee57d:  8b 54 24 04              movl     4(%esp), %edx
0x000ee581:  ee                       outb     %al, %dx

----------------
IN: 
0x000ee582:  8d 94 24 84 00 00 00     leal     0x84(%esp), %edx
0x000ee589:  89 e8                    movl     %ebp, %eax
0x000ee58b:  e8 a8 d9 ff ff           calll    0xebf38

----------------
IN: 
0x000ee590:  85 c0                    testl    %eax, %eax
0x000ee592:  75 4e                    jne      0xee5e2

----------------
IN: 
0x000ee594:  0f b7 ef                 movzwl   %di, %ebp
0x000ee597:  89 e8                    movl     %ebp, %eax
0x000ee599:  e8 78 d9 ff ff           calll    0xebf16

----------------
IN: 
0x000ee59e:  85 c0                    testl    %eax, %eax
0x000ee5a0:  75 40                    jne      0xee5e2

----------------
IN: 
0x000ee5a2:  b9 06 00 00 00           movl     $6, %ecx
0x000ee5a7:  8d 74 24 51              leal     0x51(%esp), %esi
0x000ee5ab:  89 fa                    movl     %edi, %edx
0x000ee5ad:  26 66 f3 6f              rep outsw %es:(%esi), %dx

----------------
IN: 
0x000ee5ad:  26 66 f3 6f              rep outsw %es:(%esi), %dx

----------------
IN: 
0x000ee5b1:  8b 54 24 04              movl     4(%esp), %edx
0x000ee5b5:  ec                       inb      %dx, %al

----------------
IN: 
0x000ee5b6:  89 e8                    movl     %ebp, %eax
0x000ee5b8:  e8 16 d9 ff ff           calll    0xebed3

----------------
IN: 
0x000ee5bd:  85 c0                    testl    %eax, %eax
0x000ee5bf:  78 21                    js       0xee5e2

----------------
IN: 
0x000ee5c1:  89 c6                    movl     %eax, %esi
0x000ee5c3:  83 e6 01                 andl     $1, %esi
0x000ee5c6:  74 06                    je       0xee5ce

----------------
IN: 
0x000ee5c8:  8d 57 01                 leal     1(%edi), %edx
0x000ee5cb:  ec                       inb      %dx, %al

----------------
IN: 
0x000ee5cc:  eb 14                    jmp      0xee5e2

----------------
IN: 
0x000ee5e2:  b0 08                    movb     $8, %al
0x000ee5e4:  8b 54 24 04              movl     4(%esp), %edx
0x000ee5e8:  ee                       outb     %al, %dx

----------------
IN: 
0x000ee5e9:  e9 38 05 00 00           jmp      0xeeb26

----------------
IN: 
0x000eeb26:  be 0c 00 00 00           movl     $0xc, %esi
0x000eeb2b:  eb 18                    jmp      0xeeb45

----------------
IN: 
0x000eeb45:  89 f0                    movl     %esi, %eax
0x000eeb47:  81 c4 f0 00 00 00        addl     $0xf0, %esp
0x000eeb4d:  5b                       popl     %ebx
0x000eeb4e:  5e                       popl     %esi
0x000eeb4f:  5f                       popl     %edi
0x000eeb50:  5d                       popl     %ebp
0x000eeb51:  c3                       retl     

----------------
IN: 
0x000eeb7f:  85 c0                    testl    %eax, %eax
0x000eeb81:  74 0e                    je       0xeeb91

----------------
IN: 
0x000eeb83:  0f b7 53 0a              movzwl   0xa(%ebx), %edx
0x000eeb87:  39 d6                    cmpl     %edx, %esi
0x000eeb89:  75 06                    jne      0xeeb91

----------------
IN: 
0x000eeb8b:  66 c7 43 0a 00 00        movw     $0, 0xa(%ebx)
0x000eeb91:  5b                       popl     %ebx
0x000eeb92:  5e                       popl     %esi
0x000eeb93:  c3                       retl     

----------------
IN: 
0x000eebfb:  85 c0                    testl    %eax, %eax
0x000eebfd:  0f 84 96 00 00 00        je       0xeec99

----------------
IN: 
0x000eec03:  8d 44 24 06              leal     6(%esp), %eax
0x000eec07:  b9 10 00 00 00           movl     $0x10, %ecx
0x000eec0c:  31 d2                    xorl     %edx, %edx
0x000eec0e:  e8 47 b4 ff ff           calll    0xea05a

----------------
IN: 
0x000eec13:  c6 44 24 06 03           movb     $3, 6(%esp)
0x000eec18:  c6 44 24 0a 12           movb     $0x12, 0xa(%esp)
0x000eec1d:  c6 43 08 20              movb     $0x20, 8(%ebx)
0x000eec21:  89 3b                    movl     %edi, (%ebx)
0x000eec23:  89 43 10                 movl     %eax, 0x10(%ebx)
0x000eec26:  c7 43 0a 01 00 12 00     movl     $0x120001, 0xa(%ebx)
0x000eec2d:  89 d8                    movl     %ebx, %eax
0x000eec2f:  e8 1e ff ff ff           calll    0xeeb52

----------------
IN: 
0x000ee5ce:  85 db                    testl    %ebx, %ebx
0x000ee5d0:  75 0c                    jne      0xee5de

----------------
IN: 
0x000ee5de:  a8 08                    testb    $8, %al
0x000ee5e0:  75 0c                    jne      0xee5ee

----------------
IN: 
0x000ee5ee:  89 da                    movl     %ebx, %edx
0x000ee5f0:  8b 04 24                 movl     (%esp), %eax
0x000ee5f3:  e8 1e da ff ff           calll    0xec016

----------------
IN: 
0x000ee5f8:  89 c1                    movl     %eax, %ecx
0x000ee5fa:  b0 08                    movb     $8, %al
0x000ee5fc:  8b 54 24 04              movl     4(%esp), %edx
0x000ee600:  ee                       outb     %al, %dx

----------------
IN: 
0x000ee601:  85 c9                    testl    %ecx, %ecx
0x000ee603:  e9 cd 03 00 00           jmp      0xee9d5

----------------
IN: 
0x000ee9d5:  0f 85 4b 01 00 00        jne      0xeeb26

----------------
IN: 
0x000ee9db:  e9 65 01 00 00           jmp      0xeeb45

----------------
IN: 
0x000eeb91:  5b                       popl     %ebx
0x000eeb92:  5e                       popl     %esi
0x000eeb93:  c3                       retl     

----------------
IN: 
0x000eec34:  85 c0                    testl    %eax, %eax
0x000eec36:  0f 85 75 ff ff ff        jne      0xeebb1

----------------
IN: 
0x000eec3c:  80 7c 24 22 3a           cmpb     $0x3a, 0x22(%esp)
0x000eec41:  75 12                    jne      0xeec55

----------------
IN: 
0x000eec43:  4e                       decl     %esi
0x000eec44:  56                       pushl    %esi
0x000eec45:  68 60 2f 0f 00           pushl    $0xf2f60
0x000eec4a:  e8 10 d0 ff ff           calll    0xebc5f

----------------
IN: 
0x000eec4f:  5a                       popl     %edx
0x000eec50:  59                       popl     %ecx
0x000eec51:  85 f6                    testl    %esi, %esi
0x000eec53:  74 41                    je       0xeec96

----------------
IN: 
0x000eec55:  80 7c 24 22 04           cmpb     $4, 0x22(%esp)
0x000eec5a:  0f 85 51 ff ff ff        jne      0xeebb1

----------------
IN: 
0x000eebb1:  8b 04 24                 movl     (%esp), %eax
0x000eebb4:  e8 9a c6 ff ff           calll    0xeb253

----------------
IN: 
0x000eec96:  83 c8 ff                 orl      $0xffffffff, %eax
0x000eec99:  83 c4 28                 addl     $0x28, %esp
0x000eec9c:  5b                       popl     %ebx
0x000eec9d:  5e                       popl     %esi
0x000eec9e:  5f                       popl     %edi
0x000eec9f:  5d                       popl     %ebp
0x000eeca0:  c3                       retl     

----------------
IN: 
0x06ff9868:  85 c0                    testl    %eax, %eax
0x06ff986a:  74 07                    je       0x6ff9873

----------------
IN: 
0x06ff986c:  31 db                    xorl     %ebx, %ebx
0x06ff986e:  e9 88 00 00 00           jmp      0x6ff98fb

----------------
IN: 
0x06ff98fb:  89 d8                    movl     %ebx, %eax
0x06ff98fd:  81 c4 14 08 00 00        addl     $0x814, %esp
0x06ff9903:  5b                       popl     %ebx
0x06ff9904:  c3                       retl     

----------------
IN: 
0x06ff991d:  89 c7                    movl     %eax, %edi
0x06ff991f:  85 c0                    testl    %eax, %eax
0x06ff9921:  74 1a                    je       0x6ff993d

----------------
IN: 
0x06ff993d:  a1 2c fe ff 06           movl     0x6fffe2c, %eax
0x06ff9942:  85 f6                    testl    %esi, %esi
0x06ff9944:  79 02                    jns      0x6ff9948

----------------
IN: 
0x06ff9946:  89 c6                    movl     %eax, %esi
0x06ff9948:  53                       pushl    %ebx
0x06ff9949:  89 e9                    movl     %ebp, %ecx
0x06ff994b:  89 f2                    movl     %esi, %edx
0x06ff994d:  b8 03 00 00 00           movl     $3, %eax
0x06ff9952:  e8 46 46 ff ff           calll    0x6fedf9d

----------------
IN: 
0x06fee008:  7c 24                    jl       0x6fee02e

----------------
IN: 
0x06fee02e:  89 14 24                 movl     %edx, (%esp)
0x06fee031:  8b 12                    movl     (%edx), %edx
0x06fee033:  eb ba                    jmp      0x6fedfef

----------------
IN: 
0x06fedfef:  85 d2                    testl    %edx, %edx
0x06fedff1:  75 10                    jne      0x6fee003

----------------
IN: 
0x06ff9957:  58                       popl     %eax
0x06ff9958:  5b                       popl     %ebx
0x06ff9959:  5e                       popl     %esi
0x06ff995a:  5f                       popl     %edi
0x06ff995b:  5d                       popl     %ebp
0x06ff995c:  c3                       retl     

----------------
IN: 
0x06ff9be4:  58                       popl     %eax
0x06ff9be5:  e9 62 01 00 00           jmp      0x6ff9d4c

----------------
IN: 
0x06ff9d4c:  66 8b 84 24 2e 01 00 00  movw     0x12e(%esp), %ax
0x06ff9d54:  be 01 00 00 00           movl     $1, %esi
0x06ff9d59:  80 7c 24 03 00           cmpb     $0, 3(%esp)
0x06ff9d5e:  75 1b                    jne      0x6ff9d7b

----------------
IN: 
0x06ff1c2b:  0f b6 07                 movzbl   (%edi), %eax
0x06ff1c2e:  ba c8 00 00 00           movl     $0xc8, %edx
0x06ff1c33:  e8 29 ff ff ff           calll    0x6ff1b61

----------------
IN: 
0x06ff1c38:  eb 22                    jmp      0x6ff1c5c

----------------
IN: 
0x06ff1c5c:  89 c3                    movl     %eax, %ebx
0x06ff1c5e:  89 e8                    movl     %ebp, %eax
0x06ff1c60:  a2 6c 86 0e 00           movb     %al, 0xe866c
0x06ff1c65:  8d 54 24 02              leal     2(%esp), %edx
0x06ff1c69:  b8 60 10 00 00           movl     $0x1060, %eax
0x06ff1c6e:  e8 d2 c7 ff ff           calll    0x6fee445

----------------
IN: 
0x06ff1da1:  85 c0                    testl    %eax, %eax
0x06ff1da3:  75 22                    jne      0x6ff1dc7

----------------
IN: 
0x06ff1da5:  c6 05 6c 86 0e 00 61     movb     $0x61, 0xe866c
0x06ff1dac:  31 d2                    xorl     %edx, %edx
0x06ff1dae:  b8 f4 00 00 00           movl     $0xf4, %eax
0x06ff1db3:  e8 de fd ff ff           calll    0x6ff1b96

Servicing hardware INT=0x08
----------------
IN: 
0x06fed3ff:  eb ed                    jmp      0x6fed3ee

----------------
IN: 
0x06ff1db8:  85 c0                    testl    %eax, %eax
0x06ff1dba:  75 0b                    jne      0x6ff1dc7

----------------
IN: 
0x06ff1dbc:  68 41 0c 0f 00           pushl    $0xf0c41
0x06ff1dc1:  e8 99 9e 0f f9           calll    0xebc5f

----------------
IN: 
0x06ff1dc6:  5a                       popl     %edx
0x06ff1dc7:  58                       popl     %eax
0x06ff1dc8:  5b                       popl     %ebx
0x06ff1dc9:  5e                       popl     %esi
0x06ff1dca:  c3                       retl     

----------------
IN: 
0x06fed72f:  68 2d fd 0e 00           pushl    $0xefd2d
0x06fed734:  e8 26 e5 0f f9           calll    0xebc5f

----------------
IN: 
0x06fed739:  58                       popl     %eax
0x06fed73a:  c3                       retl     

----------------
IN: 
0x06fed401:  c3                       retl     

----------------
IN: 
0x06ffbcc9:  e8 bf 94 ff ff           calll    0x6ff518d

----------------
IN: 
0x06ff518d:  57                       pushl    %edi
0x06ff518e:  8d 7c 24 08              leal     8(%esp), %edi
0x06ff5192:  83 e4 f8                 andl     $0xfffffff8, %esp
0x06ff5195:  ff 77 fc                 pushl    -4(%edi)
0x06ff5198:  55                       pushl    %ebp
0x06ff5199:  89 e5                    movl     %esp, %ebp
0x06ff519b:  57                       pushl    %edi
0x06ff519c:  56                       pushl    %esi
0x06ff519d:  53                       pushl    %ebx
0x06ff519e:  81 ec 14 03 00 00        subl     $0x314, %esp
0x06ff51a4:  68 8a 15 0f 00           pushl    $0xf158a
0x06ff51a9:  e8 b1 6a 0f f9           calll    0xebc5f

----------------
IN: 
0x06ff51ae:  b9 00 03 00 00           movl     $0x300, %ecx
0x06ff51b3:  31 d2                    xorl     %edx, %edx
0x06ff51b5:  8d 85 f0 fc ff ff        leal     -0x310(%ebp), %eax
0x06ff51bb:  e8 9a 4e 0f f9           calll    0xea05a

----------------
IN: 
0x06ff51c0:  8b 35 40 fe ff 06        movl     0x6fffe40, %esi
0x06ff51c6:  a1 c0 fd ff 06           movl     0x6fffdc0, %eax
0x06ff51cb:  8d 58 fc                 leal     -4(%eax), %ebx
0x06ff51ce:  59                       popl     %ecx
0x06ff51cf:  83 fb fc                 cmpl     $-4, %ebx
0x06ff51d2:  74 28                    je       0x6ff51fc

----------------
IN: 
0x06ff51d4:  8b 43 14                 movl     0x14(%ebx), %eax
0x06ff51d7:  24 7f                    andb     $0x7f, %al
0x06ff51d9:  66 3d 00 03              cmpw     $0x300, %ax
0x06ff51dd:  74 15                    je       0x6ff51f4

----------------
IN: 
0x06ff51df:  83 7b 1c 00              cmpl     $0, 0x1c(%ebx)
0x06ff51e3:  75 0f                    jne      0x6ff51f4

----------------
IN: 
0x06ff51e5:  8d 8d f0 fc ff ff        leal     -0x310(%ebp), %ecx
0x06ff51eb:  31 d2                    xorl     %edx, %edx
0x06ff51ed:  89 d8                    movl     %ebx, %eax
0x06ff51ef:  e8 6d fe ff ff           calll    0x6ff5061

----------------
IN: 
0x06fef0a2:  89 f1                    movl     %esi, %ecx
0x06fef0a4:  ba 30 00 00 00           movl     $0x30, %edx
0x06fef0a9:  8b 04 24                 movl     (%esp), %eax
0x06fef0ac:  e8 5d a0 0f f9           calll    0xe910e

----------------
IN: 
0x06fef0b1:  31 db                    xorl     %ebx, %ebx
0x06fef0b3:  89 d8                    movl     %ebx, %eax
0x06fef0b5:  5a                       popl     %edx
0x06fef0b6:  5b                       popl     %ebx
0x06fef0b7:  5e                       popl     %esi
0x06fef0b8:  5f                       popl     %edi
0x06fef0b9:  5d                       popl     %ebp
0x06fef0ba:  c3                       retl     

----------------
IN: 
0x06ff51f4:  8b 5b 04                 movl     4(%ebx), %ebx
0x06ff51f7:  83 eb 04                 subl     $4, %ebx
0x06ff51fa:  eb d3                    jmp      0x6ff51cf

----------------
IN: 
0x06ff51cf:  83 fb fc                 cmpl     $-4, %ebx
0x06ff51d2:  74 28                    je       0x6ff51fc

----------------
IN: 
0x06feb5b9:  89 c8                    movl     %ecx, %eax
0x06feb5bb:  83 c0 10                 addl     $0x10, %eax
0x06feb5be:  89 43 08                 movl     %eax, 8(%ebx)
0x06feb5c1:  89 d0                    movl     %edx, %eax
0x06feb5c3:  eb 02                    jmp      0x6feb5c7

----------------
IN: 
0x06ff50fe:  85 ff                    testl    %edi, %edi
0x06ff5100:  74 14                    je       0x6ff5116

----------------
IN: 
0x06ff5102:  8d 90 00 00 f4 ff        leal     -0xc0000(%eax), %edx
0x06ff5108:  c1 ea 0b                 shrl     $0xb, %edx
0x06ff510b:  89 1c d7                 movl     %ebx, (%edi, %edx, 8)
0x06ff510e:  c7 44 d7 04 02 00 00 00  movl     $2, 4(%edi, %edx, 8)
0x06ff5116:  0f b7 13                 movzwl   (%ebx), %edx
0x06ff5119:  8b 4c 24 04              movl     4(%esp), %ecx
0x06ff511d:  89 44 24 14              movl     %eax, 0x14(%esp)
0x06ff5121:  e8 ea fd ff ff           calll    0x6ff4f10

----------------
IN: 
0x06ff4fb4:  0f b7 43 1a              movzwl   0x1a(%ebx), %eax
0x06ff4fb8:  81 3c 03 24 50 6e 50     cmpl     $0x506e5024, (%ebx, %eax)
0x06ff4fbf:  75 10                    jne      0x6ff4fd1

Servicing hardware INT=0x08
----------------
IN: 
0x000ca003:  e9 a2 00                 jmp      0xca0a8

----------------
IN: 
0x000ca0a8:  60                       pushaw   
0x000ca0a9:  1e                       pushw    %ds
0x000ca0aa:  06                       pushw    %es
0x000ca0ab:  0f a0                    pushw    %fs
0x000ca0ad:  0f a8                    pushw    %gs
0x000ca0af:  fc                       cld      
0x000ca0b0:  0e                       pushw    %cs
0x000ca0b1:  1f                       popw     %ds
0x000ca0b2:  be 27 03                 movw     $0x327, %si
0x000ca0b5:  31 ff                    xorw     %di, %di
0x000ca0b7:  e8 4c 04                 callw    0xca506

----------------
IN: 
0x000ca506:  50                       pushw    %ax
0x000ca507:  ac                       lodsb    (%si), %al
0x000ca508:  84 c0                    testb    %al, %al
0x000ca50a:  74 05                    je       0xca511

----------------
IN: 
0x000ca50c:  e8 d0 ff                 callw    0xca4df

----------------
IN: 
0x000ca4df:  50                       pushw    %ax
0x000ca4e0:  53                       pushw    %bx
0x000ca4e1:  55                       pushw    %bp
0x000ca4e2:  85 ff                    testw    %di, %di
0x000ca4e4:  74 05                    je       0xca4eb

----------------
IN: 
0x000ca4eb:  bb 07 00                 movw     $7, %bx
0x000ca4ee:  b4 0e                    movb     $0xe, %ah
0x000ca4f0:  3c 0a                    cmpb     $0xa, %al
0x000ca4f2:  75 04                    jne      0xca4f8

----------------
IN: 
0x000ca4f4:  cd 10                    int      $0x10

----------------
IN: 
0x000ca4f6:  b0 0d                    movb     $0xd, %al
0x000ca4f8:  cd 10                    int      $0x10

----------------
IN: 
0x000ca4fa:  5d                       popw     %bp
0x000ca4fb:  5b                       popw     %bx
0x000ca4fc:  58                       popw     %ax
0x000ca4fd:  c3                       retw     

----------------
IN: 
0x000ca50f:  eb f6                    jmp      0xca507

----------------
IN: 
0x000ca507:  ac                       lodsb    (%si), %al
0x000ca508:  84 c0                    testb    %al, %al
0x000ca50a:  74 05                    je       0xca511

----------------
IN: 
0x000ca4f8:  cd 10                    int      $0x10

----------------
IN: 
0x000ca511:  58                       popw     %ax
0x000ca512:  c3                       retw     

----------------
IN: 
0x000ca0ba:  8e eb                    movw     %bx, %gs
0x000ca0bc:  31 ff                    xorw     %di, %di
0x000ca0be:  e8 3d 04                 callw    0xca4fe

----------------
IN: 
0x000ca4fe:  50                       pushw    %ax
0x000ca4ff:  b0 20                    movb     $0x20, %al
0x000ca501:  e8 db ff                 callw    0xca4df

----------------
IN: 
0x000ca504:  58                       popw     %ax
0x000ca505:  c3                       retw     

----------------
IN: 
0x000ca0c1:  a3 79 03                 movw     %ax, 0x379
0x000ca0c4:  e8 74 04                 callw    0xca53b

----------------
IN: 
0x000ca53b:  50                       pushw    %ax
0x000ca53c:  86 c4                    xchgb    %al, %ah
0x000ca53e:  e8 e4 ff                 callw    0xca525

----------------
IN: 
0x000ca525:  c0 c8 04                 rorb     $4, %al
0x000ca528:  e8 03 00                 callw    0xca52e

----------------
IN: 
0x000ca52e:  50                       pushw    %ax
0x000ca52f:  24 0f                    andb     $0xf, %al
0x000ca531:  3c 0a                    cmpb     $0xa, %al
0x000ca533:  1c 69                    sbbb     $0x69, %al
0x000ca535:  2f                       das      
0x000ca536:  e8 a6 ff                 callw    0xca4df

----------------
IN: 
0x000ca539:  58                       popw     %ax
0x000ca53a:  c3                       retw     

----------------
IN: 
0x000ca52b:  c0 c8 04                 rorb     $4, %al
0x000ca52e:  50                       pushw    %ax
0x000ca52f:  24 0f                    andb     $0xf, %al
0x000ca531:  3c 0a                    cmpb     $0xa, %al
0x000ca533:  1c 69                    sbbb     $0x69, %al
0x000ca535:  2f                       das      
0x000ca536:  e8 a6 ff                 callw    0xca4df

----------------
IN: 
0x000ca541:  b0 3a                    movb     $0x3a, %al
0x000ca543:  e8 99 ff                 callw    0xca4df

----------------
IN: 
0x000ca546:  88 e0                    movb     %ah, %al
0x000ca548:  c0 e8 03                 shrb     $3, %al
0x000ca54b:  e8 d7 ff                 callw    0xca525

----------------
IN: 
0x000ca54e:  b0 2e                    movb     $0x2e, %al
0x000ca550:  e8 8c ff                 callw    0xca4df

----------------
IN: 
0x000ca553:  88 e0                    movb     %ah, %al
0x000ca555:  24 07                    andb     $7, %al
0x000ca557:  e8 d4 ff                 callw    0xca52e

----------------
IN: 
0x000ca55a:  58                       popw     %ax
0x000ca55b:  c3                       retw     

----------------
IN: 
0x000ca0c7:  bf 7a 00                 movw     $0x7a, %di
0x000ca0ca:  e8 6e 04                 callw    0xca53b

----------------
IN: 
0x000ca4e6:  88 05                    movb     %al, (%di)
0x000ca4e8:  47                       incw     %di
0x000ca4e9:  eb 0f                    jmp      0xca4fa

----------------
IN: 
0x000ca0cd:  c6 06 74 00 20           movb     $0x20, 0x74
0x000ca0d2:  31 ff                    xorw     %di, %di
0x000ca0d4:  e8 27 04                 callw    0xca4fe

----------------
IN: 
0x000ca0d7:  8c c8                    movw     %cs, %ax
0x000ca0d9:  e8 42 04                 callw    0xca51e

----------------
IN: 
0x000ca51e:  86 c4                    xchgb    %al, %ah
0x000ca520:  e8 02 00                 callw    0xca525

----------------
IN: 
0x000ca523:  86 c4                    xchgb    %al, %ah
0x000ca525:  c0 c8 04                 rorb     $4, %al
0x000ca528:  e8 03 00                 callw    0xca52e

----------------
IN: 
0x000ca0dc:  66 53                    pushl    %ebx
0x000ca0de:  66 52                    pushl    %edx
0x000ca0e0:  66 57                    pushl    %edi
0x000ca0e2:  f9                       stc      
0x000ca0e3:  b8 01 b1                 movw     $0xb101, %ax
0x000ca0e6:  cd 1a                    int      $0x1a

----------------
IN: 
0x000ffe6e:  80 fc b1                 cmpb     $0xb1, %ah
0x000ffe71:  0f 84 92 d3              je       0xfd207

----------------
IN: 
0x000fd207:  fa                       cli      
0x000fd208:  fc                       cld      
0x000fd209:  66 50                    pushl    %eax
0x000fd20b:  66 51                    pushl    %ecx
0x000fd20d:  66 52                    pushl    %edx
0x000fd20f:  66 53                    pushl    %ebx
0x000fd211:  66 55                    pushl    %ebp
0x000fd213:  66 56                    pushl    %esi
0x000fd215:  66 57                    pushl    %edi
0x000fd217:  06                       pushw    %es
0x000fd218:  1e                       pushw    %ds
0x000fd219:  8c d0                    movw     %ss, %ax
0x000fd21b:  8e d8                    movw     %ax, %ds
0x000fd21d:  66 89 e3                 movl     %esp, %ebx
0x000fd220:  66 0f b7 e4              movzwl   %sp, %esp
0x000fd224:  66 89 e0                 movl     %esp, %eax
0x000fd227:  66 e8 54 f9 ff ff        calll    0xfcb81

----------------
IN: 
0x000fcb81:  66 55                    pushl    %ebp
0x000fcb83:  66 57                    pushl    %edi
0x000fcb85:  66 56                    pushl    %esi
0x000fcb87:  66 53                    pushl    %ebx
0x000fcb89:  66 89 c3                 movl     %eax, %ebx
0x000fcb8c:  67 8a 40 1c              movb     0x1c(%eax), %al
0x000fcb90:  3c 0a                    cmpb     $0xa, %al
0x000fcb92:  0f 84 20 02              je       0xfcdb6

----------------
IN: 
0x000fcb96:  77 7d                    ja       0xfcc15

----------------
IN: 
0x000fcb98:  3c 03                    cmpb     $3, %al
0x000fcb9a:  0f 84 54 01              je       0xfccf2

----------------
IN: 
0x000fcb9e:  77 2c                    ja       0xfcbcc

----------------
IN: 
0x000fcba0:  3c 01                    cmpb     $1, %al
0x000fcba2:  0f 84 c3 00              je       0xfcc69

----------------
IN: 
0x000fcc69:  67 c7 43 10 10 02        movw     $0x210, 0x10(%ebx)
0x000fcc6f:  2e 66 a1 ec 55           movl     %cs:0x55ec, %eax
0x000fcc74:  67 88 43 18              movb     %al, 0x18(%ebx)
0x000fcc78:  67 66 c7 43 14 50 43 49  movl     $0x20494350, 0x14(%ebx)
0x000fcc80:  20
0x000fcc81:  67 66 c7 43 04 d9 d1 0f  movl     $0xfd1d9, 4(%ebx)
0x000fcc89:  00
0x000fcc8a:  e9 33 02                 jmp      0xfcec0

----------------
IN: 
0x000fcec0:  66 89 d8                 movl     %ebx, %eax
0x000fcec3:  66 5b                    popl     %ebx
0x000fcec5:  66 5e                    popl     %esi
0x000fcec7:  66 5f                    popl     %edi
0x000fcec9:  66 5d                    popl     %ebp
0x000fcecb:  e9 b2 9c                 jmp      0xf6b80

----------------
IN: 
0x000f6b80:  67 c6 40 1d 00           movb     $0, 0x1d(%eax)
0x000f6b85:  67 83 60 24 fe           andw     $0xfffe, 0x24(%eax)
0x000f6b8a:  66 c3                    retl     

----------------
IN: 
0x000fd22d:  66 89 dc                 movl     %ebx, %esp
0x000fd230:  1f                       popw     %ds
0x000fd231:  07                       popw     %es
0x000fd232:  66 5f                    popl     %edi
0x000fd234:  66 5e                    popl     %esi
0x000fd236:  66 5d                    popl     %ebp
0x000fd238:  66 5b                    popl     %ebx
0x000fd23a:  66 5a                    popl     %edx
0x000fd23c:  66 59                    popl     %ecx
0x000fd23e:  66 58                    popl     %eax
0x000fd240:  cf                       iretw    

----------------
IN: 
0x000ca0e8:  72 56                    jb       0xca140

----------------
IN: 
0x000ca0ea:  66 81 fa 50 43 49 20     cmpl     $0x20494350, %edx
0x000ca0f1:  75 4d                    jne      0xca140

----------------
IN: 
0x000ca0f3:  84 e4                    testb    %ah, %ah
0x000ca0f5:  75 49                    jne      0xca140

----------------
IN: 
0x000ca0f7:  be 40 03                 movw     $0x340, %si
0x000ca0fa:  31 ff                    xorw     %di, %di
0x000ca0fc:  e8 07 04                 callw    0xca506

----------------
IN: 
0x000ca0ff:  88 f8                    movb     %bh, %al
0x000ca101:  e8 2a 04                 callw    0xca52e

----------------
IN: 
0x000ca104:  b0 2e                    movb     $0x2e, %al
0x000ca106:  e8 d6 03                 callw    0xca4df

----------------
IN: 
0x000ca109:  88 d8                    movb     %bl, %al
0x000ca10b:  e8 17 04                 callw    0xca525

----------------
IN: 
0x000ca10e:  80 ff 03                 cmpb     $3, %bh
0x000ca111:  72 2d                    jb       0xca140

----------------
IN: 
0x000ca140:  0e                       pushw    %cs
0x000ca141:  0f a9                    popw     %gs
0x000ca143:  66 5f                    popl     %edi
0x000ca145:  66 5a                    popl     %edx
0x000ca147:  66 5b                    popl     %ebx
0x000ca149:  bb ff ef                 movw     $0xefff, %bx
0x000ca14c:  43                       incw     %bx
0x000ca14d:  74 2a                    je       0xca179

----------------
IN: 
0x000ca14f:  8e c3                    movw     %bx, %es
0x000ca151:  26 66 81 3e 00 00 24 50  cmpl     $0x506e5024, %es:0
0x000ca159:  6e 50
0x000ca15b:  75 ef                    jne      0xca14c

----------------
IN: 
0x000ca14c:  43                       incw     %bx
0x000ca14d:  74 2a                    je       0xca179

----------------
IN: 
0x000ca15d:  31 d2                    xorw     %dx, %dx
0x000ca15f:  31 f6                    xorw     %si, %si
0x000ca161:  26 0f b6 0e 05 00        movzbw   %es:5, %cx
0x000ca167:  26 ac                    lodsb    %es:(%si), %al
0x000ca169:  00 c2                    addb     %al, %dl
0x000ca16b:  e2 fa                    loop     0xca167

----------------
IN: 
0x000ca167:  26 ac                    lodsb    %es:(%si), %al
0x000ca169:  00 c2                    addb     %al, %dl
0x000ca16b:  e2 fa                    loop     0xca167

----------------
IN: 
0x000ca16d:  75 dd                    jne      0xca14c

----------------
IN: 
0x000ca16f:  be 45 03                 movw     $0x345, %si
0x000ca172:  31 ff                    xorw     %di, %di
0x000ca174:  e8 8f 03                 callw    0xca506

----------------
IN: 
0x000ca177:  eb 00                    jmp      0xca179

----------------
IN: 
0x000ca179:  bb ff df                 movw     $0xdfff, %bx
0x000ca17c:  43                       incw     %bx
0x000ca17d:  0f 84 ad 00              je       0xca22e

----------------
IN: 
0x000ca181:  8e c3                    movw     %bx, %es
0x000ca183:  26 66 81 3e 00 00 24 50  cmpl     $0x4d4d5024, %es:0
0x000ca18b:  4d 4d
0x000ca18d:  75 ed                    jne      0xca17c

----------------
IN: 
0x000ca17c:  43                       incw     %bx
0x000ca17d:  0f 84 ad 00              je       0xca22e

----------------
IN: 
0x000ca18f:  31 d2                    xorw     %dx, %dx
0x000ca191:  31 f6                    xorw     %si, %si
0x000ca193:  26 0f b6 0e 05 00        movzbw   %es:5, %cx
0x000ca199:  26 ac                    lodsb    %es:(%si), %al
0x000ca19b:  00 c2                    addb     %al, %dl
0x000ca19d:  e2 fa                    loop     0xca199

----------------
IN: 
0x000ca199:  26 ac                    lodsb    %es:(%si), %al
0x000ca19b:  00 c2                    addb     %al, %dl
0x000ca19d:  e2 fa                    loop     0xca199

----------------
IN: 
0x000ca19f:  75 db                    jne      0xca17c

----------------
IN: 
0x000ca1a1:  be 4a 03                 movw     $0x34a, %si
0x000ca1a4:  31 ff                    xorw     %di, %di
0x000ca1a6:  e8 5d 03                 callw    0xca506

----------------
IN: 
0x000ca1a9:  66 60                    pushal   
0x000ca1ab:  66 0f b6 0e 02 00        movzbl   2, %ecx
0x000ca1b1:  03 0e 7f 03              addw     0x37f, %cx
0x000ca1b5:  83 c1 07                 addw     $7, %cx
0x000ca1b8:  83 e1 f8                 andw     $0xfff8, %cx
0x000ca1bb:  66 c1 e1 05              shll     $5, %ecx
0x000ca1bf:  66 bb 00 10 ae 18        movl     $0x18ae1000, %ebx
0x000ca1c5:  bd 0e 03                 movw     $0x30e, %bp
0x000ca1c8:  e8 ef 00                 callw    0xca2ba

----------------
IN: 
0x000ca2ba:  66 50                    pushl    %eax
0x000ca2bc:  57                       pushw    %di
0x000ca2bd:  bf 20 00                 movw     $0x20, %di
0x000ca2c0:  66 53                    pushl    %ebx
0x000ca2c2:  6a 01                    pushw    $1
0x000ca2c4:  26 ff 1e 07 00           lcallw   *%es:7

SMM: enter
EAX=000000b5 EBX=000f7e0e ECX=00001234 EDX=000069ff
ESI=00006996 EDI=06ffeca6 EBP=00006956 ESP=00006956
EIP=00007e0b EFL=00000006 [-----P-] CPL=0 II=0 A20=1 SMM=0 HLT=0
ES =d900 000d9000 ffffffff 008f9300
CS =f000 000f0000 ffffffff 008f9b00
SS =0000 00000000 ffffffff 008f9300
DS =0000 00000000 ffffffff 008f9300
FS =0000 00000000 ffffffff 008f9300
GS =ca00 000ca000 ffffffff 008f9300
LDT=0000 00000000 0000ffff 00008200
TR =0000 00000000 0000ffff 00008b00
GDT=     00000000 00000000
IDT=     00000000 000003ff
CR0=00000010 CR2=00000000 CR3=00000000 CR4=00000000
DR0=0000000000000000 DR1=0000000000000000 DR2=0000000000000000 DR3=0000000000000000 
DR6=00000000ffff0ff0 DR7=0000000000000400
CCS=00000000 CCD=00006956 CCO=ADDL
EFER=0000000000000000
SMM: after RSM
EAX=000000b5 EBX=000f7e0e ECX=00001234 EDX=000069ff
ESI=00006996 EDI=06ffeca6 EBP=00006956 ESP=00006956
EIP=000f7e0e EFL=00000046 [---Z-P-] CPL=0 II=0 A20=1 SMM=0 HLT=0
ES =0010 00000000 ffffffff 00c09300 DPL=0 DS   [-WA]
CS =0008 00000000 ffffffff 00c09b00 DPL=0 CS32 [-RA]
SS =0010 00000000 ffffffff 00c09300 DPL=0 DS   [-WA]
DS =0010 00000000 ffffffff 00c09300 DPL=0 DS   [-WA]
FS =0010 00000000 ffffffff 00c09300 DPL=0 DS   [-WA]
GS =0010 00000000 ffffffff 00c09300 DPL=0 DS   [-WA]
LDT=0000 00000000 0000ffff 00008200 DPL=0 LDT
TR =0000 00000000 0000ffff 00008b00 DPL=0 TSS32-busy
GDT=     000f61e0 00000037
IDT=     000f621e 00000000
CR0=00000011 CR2=00000000 CR3=00000000 CR4=00000000
DR0=0000000000000000 DR1=0000000000000000 DR2=0000000000000000 DR3=0000000000000000 
DR6=00000000ffff0ff0 DR7=0000000000000400
CCS=00000044 CCD=00000000 CCO=EFLAGS
EFER=0000000000000000
----------------
IN: 
0x06ffee26:  8b 4b 02                 movl     2(%ebx), %ecx
0x06ffee29:  83 f9 ff                 cmpl     $-1, %ecx
0x06ffee2c:  0f 84 ec fe ff ff        je       0x6ffed1e

----------------
IN: 
0x06ffee32:  31 d2                    xorl     %edx, %edx
0x06ffee34:  8b 04 95 44 fe ff 06     movl     0x6fffe44(, %edx, 4), %eax
0x06ffee3b:  8b 00                    movl     (%eax), %eax
0x06ffee3d:  85 c0                    testl    %eax, %eax
0x06ffee3f:  74 0f                    je       0x6ffee50

----------------
IN: 
0x06ffee41:  3b 40 08                 cmpl     8(%eax), %eax
0x06ffee44:  75 f5                    jne      0x6ffee3b

----------------
IN: 
0x06ffee3b:  8b 00                    movl     (%eax), %eax
0x06ffee3d:  85 c0                    testl    %eax, %eax
0x06ffee3f:  74 0f                    je       0x6ffee50

----------------
IN: 
0x06ffee50:  42                       incl     %edx
0x06ffee51:  83 fa 05                 cmpl     $5, %edx
0x06ffee54:  75 de                    jne      0x6ffee34

----------------
IN: 
0x06ffee34:  8b 04 95 44 fe ff 06     movl     0x6fffe44(, %edx, 4), %eax
0x06ffee3b:  8b 00                    movl     (%eax), %eax
0x06ffee3d:  85 c0                    testl    %eax, %eax
0x06ffee3f:  74 0f                    je       0x6ffee50

----------------
IN: 
0x06ffee46:  3b 48 28                 cmpl     0x28(%eax), %ecx
0x06ffee49:  75 f0                    jne      0x6ffee3b

----------------
IN: 
0x06ffee56:  e9 c3 fe ff ff           jmp      0x6ffed1e

----------------
IN: 
0x06ffed1e:  31 c0                    xorl     %eax, %eax
0x06ffed20:  e9 4b 01 00 00           jmp      0x6ffee70

SMM: enter
EAX=000000b5 EBX=00007e28 ECX=00005678 EDX=00000005
ESI=00000000 EDI=06ffeca6 EBP=00006956 ESP=00006956
EIP=000f7e25 EFL=00000016 [----AP-] CPL=0 II=0 A20=1 SMM=0 HLT=0
ES =0010 00000000 ffffffff 00c09300 DPL=0 DS   [-WA]
CS =0008 00000000 ffffffff 00c09b00 DPL=0 CS32 [-RA]
SS =0010 00000000 ffffffff 00c09300 DPL=0 DS   [-WA]
DS =0010 00000000 ffffffff 00c09300 DPL=0 DS   [-WA]
FS =0010 00000000 ffffffff 00c09300 DPL=0 DS   [-WA]
GS =0010 00000000 ffffffff 00c09300 DPL=0 DS   [-WA]
LDT=0000 00000000 0000ffff 00008200 DPL=0 LDT
TR =0000 00000000 0000ffff 00008b00 DPL=0 TSS32-busy
GDT=     000f61e0 00000037
IDT=     000f621e 00000000
CR0=00000011 CR2=00000000 CR3=00000000 CR4=00000000
DR0=0000000000000000 DR1=0000000000000000 DR2=0000000000000000 DR3=0000000000000000 
DR6=00000000ffff0ff0 DR7=0000000000000400
CCS=00000008 CCD=00006942 CCO=ADDL
EFER=0000000000000000
SMM: after RSM
EAX=000000b5 EBX=00007e28 ECX=00005678 EDX=00000005
ESI=00000000 EDI=06ffeca6 EBP=00006956 ESP=00006956
EIP=00007e28 EFL=00000006 [-----P-] CPL=0 II=0 A20=1 SMM=0 HLT=0
ES =d900 000d9000 ffffffff 00809300
CS =f000 000f0000 ffffffff 00809b00
SS =0000 00000000 ffffffff 00809300
DS =0000 00000000 ffffffff 00809300
FS =0000 00000000 ffffffff 00809300
GS =ca00 000ca000 ffffffff 00809300
LDT=0000 00000000 0000ffff 00008200
TR =0000 00000000 0000ffff 00008b00
GDT=     00000000 00000000
IDT=     00000000 000003ff
CR0=00000010 CR2=00000000 CR3=00000000 CR4=00000000
DR0=0000000000000000 DR1=0000000000000000 DR2=0000000000000000 DR3=0000000000000000 
DR6=00000000ffff0ff0 DR7=0000000000000400
CCS=00000004 CCD=00000001 CCO=EFLAGS
EFER=0000000000000000
----------------
IN: 
0x000ca2c9:  83 c4 06                 addw     $6, %sp
0x000ca2cc:  52                       pushw    %dx
0x000ca2cd:  50                       pushw    %ax
0x000ca2ce:  66 5e                    popl     %esi
0x000ca2d0:  66 46                    incl     %esi
0x000ca2d2:  74 0c                    je       0xca2e0

----------------
IN: 
0x000ca2d4:  66 4e                    decl     %esi
0x000ca2d6:  74 08                    je       0xca2e0

----------------
IN: 
0x000ca2e0:  6a 02                    pushw    $2
0x000ca2e2:  66 53                    pushl    %ebx
0x000ca2e4:  66 51                    pushl    %ecx
0x000ca2e6:  6a 00                    pushw    $0
0x000ca2e8:  26 ff 1e 07 00           lcallw   *%es:7

SMM: enter
EAX=000000b5 EBX=000f7e0e ECX=00001234 EDX=000069ff
ESI=00006990 EDI=06ffeca6 EBP=00006950 ESP=00006950
EIP=00007e0b EFL=00000006 [-----P-] CPL=0 II=0 A20=1 SMM=0 HLT=0
ES =d900 000d9000 ffffffff 00809300
CS =f000 000f0000 ffffffff 00809b00
SS =0000 00000000 ffffffff 00809300
DS =0000 00000000 ffffffff 00809300
FS =0000 00000000 ffffffff 00809300
GS =ca00 000ca000 ffffffff 00809300
LDT=0000 00000000 0000ffff 00008200
TR =0000 00000000 0000ffff 00008b00
GDT=     00000000 00000000
IDT=     00000000 000003ff
CR0=00000010 CR2=00000000 CR3=00000000 CR4=00000000
DR0=0000000000000000 DR1=0000000000000000 DR2=0000000000000000 DR3=0000000000000000 
DR6=00000000ffff0ff0 DR7=0000000000000400
CCS=00000000 CCD=00006950 CCO=ADDL
EFER=0000000000000000
SMM: after RSM
EAX=000000b5 EBX=000f7e0e ECX=00001234 EDX=000069ff
ESI=00006990 EDI=06ffeca6 EBP=00006950 ESP=00006950
EIP=000f7e0e EFL=00000046 [---Z-P-] CPL=0 II=0 A20=1 SMM=0 HLT=0
ES =0010 00000000 ffffffff 00c09300 DPL=0 DS   [-WA]
CS =0008 00000000 ffffffff 00c09b00 DPL=0 CS32 [-RA]
SS =0010 00000000 ffffffff 00c09300 DPL=0 DS   [-WA]
DS =0010 00000000 ffffffff 00c09300 DPL=0 DS   [-WA]
FS =0010 00000000 ffffffff 00c09300 DPL=0 DS   [-WA]
GS =0010 00000000 ffffffff 00c09300 DPL=0 DS   [-WA]
LDT=0000 00000000 0000ffff 00008200 DPL=0 LDT
TR =0000 00000000 0000ffff 00008b00 DPL=0 TSS32-busy
GDT=     000f61e0 00000037
IDT=     000f621e 00000000
CR0=00000011 CR2=00000000 CR3=00000000 CR4=00000000
DR0=0000000000000000 DR1=0000000000000000 DR2=0000000000000000 DR3=0000000000000000 
DR6=00000000ffff0ff0 DR7=0000000000000400
CCS=00000044 CCD=00000000 CCO=EFLAGS
EFER=0000000000000000
----------------
IN: 
0x06ffecf1:  bf 58 fe ff 06           movl     $0x6fffe58, %edi
0x06ffecf6:  b8 5c fe ff 06           movl     $0x6fffe5c, %eax
0x06ffecfb:  eb 0a                    jmp      0x6ffed07

----------------
IN: 
0x06ffed07:  85 f6                    testl    %esi, %esi
0x06ffed09:  75 49                    jne      0x6ffed54

----------------
IN: 
0x06ffed95:  89 4c 24 04              movl     %ecx, 4(%esp)
0x06ffed99:  89 f2                    movl     %esi, %edx
0x06ffed9b:  89 f8                    movl     %edi, %eax
0x06ffed9d:  e8 72 ef fe ff           calll    0x6fedd14

----------------
IN: 
0x06ffeda2:  89 c3                    movl     %eax, %ebx
0x06ffeda4:  85 c0                    testl    %eax, %eax
0x06ffeda6:  75 5d                    jne      0x6ffee05

----------------
IN: 
0x06ffee0a:  89 d8                    movl     %ebx, %eax
0x06ffee0c:  e8 c7 c6 fe ff           calll    0x6feb4d8

----------------
IN: 
0x06ffee11:  85 c0                    testl    %eax, %eax
0x06ffee13:  74 0d                    je       0x6ffee22

----------------
IN: 
0x06ffee15:  39 c3                    cmpl     %eax, %ebx
0x06ffee17:  74 57                    je       0x6ffee70

----------------
IN: 
0x06ffee19:  83 78 10 00              cmpl     $0, 0x10(%eax)
0x06ffee1d:  74 03                    je       0x6ffee22

----------------
IN: 
0x06ffee1f:  89 68 14                 movl     %ebp, 0x14(%eax)
0x06ffee22:  89 d8                    movl     %ebx, %eax
0x06ffee24:  eb 4a                    jmp      0x6ffee70

SMM: enter
EAX=000000b5 EBX=00007e28 ECX=00005678 EDX=00000003
ESI=06fd1180 EDI=06ffeca6 EBP=00006950 ESP=00006950
EIP=000f7e25 EFL=00000006 [-----P-] CPL=0 II=0 A20=1 SMM=0 HLT=0
ES =0010 00000000 ffffffff 00c09300 DPL=0 DS   [-WA]
CS =0008 00000000 ffffffff 00c09b00 DPL=0 CS32 [-RA]
SS =0010 00000000 ffffffff 00c09300 DPL=0 DS   [-WA]
DS =0010 00000000 ffffffff 00c09300 DPL=0 DS   [-WA]
FS =0010 00000000 ffffffff 00c09300 DPL=0 DS   [-WA]
GS =0010 00000000 ffffffff 00c09300 DPL=0 DS   [-WA]
LDT=0000 00000000 0000ffff 00008200 DPL=0 LDT
TR =0000 00000000 0000ffff 00008b00 DPL=0 TSS32-busy
GDT=     000f61e0 00000037
IDT=     000f621e 00000000
CR0=00000011 CR2=00000000 CR3=00000000 CR4=00000000
DR0=0000000000000000 DR1=0000000000000000 DR2=0000000000000000 DR3=0000000000000000 
DR6=00000000ffff0ff0 DR7=0000000000000400
CCS=00000008 CCD=0000693c CCO=ADDL
EFER=0000000000000000
SMM: after RSM
EAX=000000b5 EBX=00007e28 ECX=00005678 EDX=00000003
ESI=06fd1180 EDI=06ffeca6 EBP=00006950 ESP=00006950
EIP=00007e28 EFL=00000006 [-----P-] CPL=0 II=0 A20=1 SMM=0 HLT=0
ES =d900 000d9000 ffffffff 00809300
CS =f000 000f0000 ffffffff 00809b00
SS =0000 00000000 ffffffff 00809300
DS =0000 00000000 ffffffff 00809300
FS =0000 00000000 ffffffff 00809300
GS =ca00 000ca000 ffffffff 00809300
LDT=0000 00000000 0000ffff 00008200
TR =0000 00000000 0000ffff 00008b00
GDT=     00000000 00000000
IDT=     00000000 000003ff
CR0=00000010 CR2=00000000 CR3=00000000 CR4=00000000
DR0=0000000000000000 DR1=0000000000000000 DR2=0000000000000000 DR3=0000000000000000 
DR6=00000000ffff0ff0 DR7=0000000000000400
CCS=00000004 CCD=00000001 CCO=EFLAGS
EFER=0000000000000000
----------------
IN: 
0x000ca2ed:  83 c4 0c                 addw     $0xc, %sp
0x000ca2f0:  52                       pushw    %dx
0x000ca2f1:  50                       pushw    %ax
0x000ca2f2:  66 5e                    popl     %esi
0x000ca2f4:  bf 2b 00                 movw     $0x2b, %di
0x000ca2f7:  89 f8                    movw     %di, %ax
0x000ca2f9:  31 ff                    xorw     %di, %di
0x000ca2fb:  e8 e1 01                 callw    0xca4df

----------------
IN: 
0x000ca2fe:  66 89 f0                 movl     %esi, %eax
0x000ca301:  e8 0f 02                 callw    0xca513

----------------
IN: 
0x000ca513:  66 c1 c8 10              rorl     $0x10, %eax
0x000ca517:  e8 04 00                 callw    0xca51e

----------------
IN: 
0x000ca51a:  66 c1 c8 10              rorl     $0x10, %eax
0x000ca51e:  86 c4                    xchgb    %al, %ah
0x000ca520:  e8 02 00                 callw    0xca525

----------------
IN: 
0x000ca304:  66 46                    incl     %esi
0x000ca306:  74 02                    je       0xca30a

----------------
IN: 
0x000ca308:  66 4e                    decl     %esi
0x000ca30a:  5f                       popw     %di
0x000ca30b:  66 58                    popl     %eax
0x000ca30d:  c3                       retw     

----------------
IN: 
0x000ca1cb:  66 89 36 7b 03           movl     %esi, 0x37b
0x000ca1d0:  74 20                    je       0xca1f2

----------------
IN: 
0x000ca1d2:  06                       pushw    %es
0x000ca1d3:  31 c0                    xorw     %ax, %ax
0x000ca1d5:  8e c0                    movw     %ax, %es
0x000ca1d7:  66 89 f7                 movl     %esi, %edi
0x000ca1da:  66 31 f6                 xorl     %esi, %esi
0x000ca1dd:  66 0f b6 0e 02 00        movzbl   2, %ecx
0x000ca1e3:  66 c1 e1 07              shll     $7, %ecx
0x000ca1e7:  67 66 f3 a5              rep movsl (%esi), %es:(%edi)

----------------
IN: 
0x000ca1e7:  67 66 f3 a5              rep movsl (%esi), %es:(%edi)

----------------
IN: 
0x000ca1eb:  07                       popw     %es
0x000ca1ec:  a0 a2 00                 movb     0xa2, %al
0x000ca1ef:  a2 02 00                 movb     %al, 2
0x000ca1f2:  66 b9 b7 9e 00 00        movl     $0x9eb7, %ecx
0x000ca1f8:  66 81 c1 ff 20 00 00     addl     $0x20ff, %ecx
0x000ca1ff:  66 81 e1 00 e0 ff ff     andl     $0xffffe000, %ecx
0x000ca206:  66 89 cb                 movl     %ecx, %ebx
0x000ca209:  c1 eb 0c                 shrw     $0xc, %bx
0x000ca20c:  66 81 cb 00 20 ae 18     orl      $0x18ae2000, %ebx
0x000ca213:  bd 25 03                 movw     $0x325, %bp
0x000ca216:  e8 a1 00                 callw    0xca2ba

SMM: enter
EAX=000000b5 EBX=000f7e0e ECX=00001234 EDX=000069ff
ESI=00006996 EDI=06ffeca6 EBP=00006956 ESP=00006956
EIP=00007e0b EFL=00000006 [-----P-] CPL=0 II=0 A20=1 SMM=0 HLT=0
ES =d900 000d9000 ffffffff 00809300
CS =f000 000f0000 ffffffff 00809b00
SS =0000 00000000 ffffffff 00809300
DS =0000 00000000 ffffffff 00809300
FS =0000 00000000 ffffffff 00809300
GS =ca00 000ca000 ffffffff 00809300
LDT=0000 00000000 0000ffff 00008200
TR =0000 00000000 0000ffff 00008b00
GDT=     00000000 00000000
IDT=     00000000 000003ff
CR0=00000010 CR2=00000000 CR3=00000000 CR4=00000000
DR0=0000000000000000 DR1=0000000000000000 DR2=0000000000000000 DR3=0000000000000000 
DR6=00000000ffff0ff0 DR7=0000000000000400
CCS=00000000 CCD=00006956 CCO=ADDL
EFER=0000000000000000
SMM: after RSM
EAX=000000b5 EBX=000f7e0e ECX=00001234 EDX=000069ff
ESI=00006996 EDI=06ffeca6 EBP=00006956 ESP=00006956
EIP=000f7e0e EFL=00000046 [---Z-P-] CPL=0 II=0 A20=1 SMM=0 HLT=0
ES =0010 00000000 ffffffff 00c09300 DPL=0 DS   [-WA]
CS =0008 00000000 ffffffff 00c09b00 DPL=0 CS32 [-RA]
SS =0010 00000000 ffffffff 00c09300 DPL=0 DS   [-WA]
DS =0010 00000000 ffffffff 00c09300 DPL=0 DS   [-WA]
FS =0010 00000000 ffffffff 00c09300 DPL=0 DS   [-WA]
GS =0010 00000000 ffffffff 00c09300 DPL=0 DS   [-WA]
LDT=0000 00000000 0000ffff 00008200 DPL=0 LDT
TR =0000 00000000 0000ffff 00008b00 DPL=0 TSS32-busy
GDT=     000f61e0 00000037
IDT=     000f621e 00000000
CR0=00000011 CR2=00000000 CR3=00000000 CR4=00000000
DR0=0000000000000000 DR1=0000000000000000 DR2=0000000000000000 DR3=0000000000000000 
DR6=00000000ffff0ff0 DR7=0000000000000400
CCS=00000044 CCD=00000000 CCO=EFLAGS
EFER=0000000000000000
SMM: enter
EAX=000000b5 EBX=00007e28 ECX=00005678 EDX=00000005
ESI=00000000 EDI=06ffeca6 EBP=00006956 ESP=00006956
EIP=000f7e25 EFL=00000016 [----AP-] CPL=0 II=0 A20=1 SMM=0 HLT=0
ES =0010 00000000 ffffffff 00c09300 DPL=0 DS   [-WA]
CS =0008 00000000 ffffffff 00c09b00 DPL=0 CS32 [-RA]
SS =0010 00000000 ffffffff 00c09300 DPL=0 DS   [-WA]
DS =0010 00000000 ffffffff 00c09300 DPL=0 DS   [-WA]
FS =0010 00000000 ffffffff 00c09300 DPL=0 DS   [-WA]
GS =0010 00000000 ffffffff 00c09300 DPL=0 DS   [-WA]
LDT=0000 00000000 0000ffff 00008200 DPL=0 LDT
TR =0000 00000000 0000ffff 00008b00 DPL=0 TSS32-busy
GDT=     000f61e0 00000037
IDT=     000f621e 00000000
CR0=00000011 CR2=00000000 CR3=00000000 CR4=00000000
DR0=0000000000000000 DR1=0000000000000000 DR2=0000000000000000 DR3=0000000000000000 
DR6=00000000ffff0ff0 DR7=0000000000000400
CCS=00000008 CCD=00006942 CCO=ADDL
EFER=0000000000000000
SMM: after RSM
EAX=000000b5 EBX=00007e28 ECX=00005678 EDX=00000005
ESI=00000000 EDI=06ffeca6 EBP=00006956 ESP=00006956
EIP=00007e28 EFL=00000006 [-----P-] CPL=0 II=0 A20=1 SMM=0 HLT=0
ES =d900 000d9000 ffffffff 00809300
CS =f000 000f0000 ffffffff 00809b00
SS =0000 00000000 ffffffff 00809300
DS =0000 00000000 ffffffff 00809300
FS =0000 00000000 ffffffff 00809300
GS =ca00 000ca000 ffffffff 00809300
LDT=0000 00000000 0000ffff 00008200
TR =0000 00000000 0000ffff 00008b00
GDT=     00000000 00000000
IDT=     00000000 000003ff
CR0=00000010 CR2=00000000 CR3=00000000 CR4=00000000
DR0=0000000000000000 DR1=0000000000000000 DR2=0000000000000000 DR3=0000000000000000 
DR6=00000000ffff0ff0 DR7=0000000000000400
CCS=00000004 CCD=00000001 CCO=EFLAGS
EFER=0000000000000000
SMM: enter
EAX=000000b5 EBX=000f7e0e ECX=00001234 EDX=000069ff
ESI=00006990 EDI=06ffeca6 EBP=00006950 ESP=00006950
EIP=00007e0b EFL=00000006 [-----P-] CPL=0 II=0 A20=1 SMM=0 HLT=0
ES =d900 000d9000 ffffffff 00809300
CS =f000 000f0000 ffffffff 00809b00
SS =0000 00000000 ffffffff 00809300
DS =0000 00000000 ffffffff 00809300
FS =0000 00000000 ffffffff 00809300
GS =ca00 000ca000 ffffffff 00809300
LDT=0000 00000000 0000ffff 00008200
TR =0000 00000000 0000ffff 00008b00
GDT=     00000000 00000000
IDT=     00000000 000003ff
CR0=00000010 CR2=00000000 CR3=00000000 CR4=00000000
DR0=0000000000000000 DR1=0000000000000000 DR2=0000000000000000 DR3=0000000000000000 
DR6=00000000ffff0ff0 DR7=0000000000000400
CCS=00000000 CCD=00006950 CCO=ADDL
EFER=0000000000000000
SMM: after RSM
EAX=000000b5 EBX=000f7e0e ECX=00001234 EDX=000069ff
ESI=00006990 EDI=06ffeca6 EBP=00006950 ESP=00006950
EIP=000f7e0e EFL=00000046 [---Z-P-] CPL=0 II=0 A20=1 SMM=0 HLT=0
ES =0010 00000000 ffffffff 00c09300 DPL=0 DS   [-WA]
CS =0008 00000000 ffffffff 00c09b00 DPL=0 CS32 [-RA]
SS =0010 00000000 ffffffff 00c09300 DPL=0 DS   [-WA]
DS =0010 00000000 ffffffff 00c09300 DPL=0 DS   [-WA]
FS =0010 00000000 ffffffff 00c09300 DPL=0 DS   [-WA]
GS =0010 00000000 ffffffff 00c09300 DPL=0 DS   [-WA]
LDT=0000 00000000 0000ffff 00008200 DPL=0 LDT
TR =0000 00000000 0000ffff 00008b00 DPL=0 TSS32-busy
GDT=     000f61e0 00000037
IDT=     000f621e 00000000
CR0=00000011 CR2=00000000 CR3=00000000 CR4=00000000
DR0=0000000000000000 DR1=0000000000000000 DR2=0000000000000000 DR3=0000000000000000 
DR6=00000000ffff0ff0 DR7=0000000000000400
CCS=00000044 CCD=00000000 CCO=EFLAGS
EFER=0000000000000000
SMM: enter
EAX=000000b5 EBX=00007e28 ECX=00005678 EDX=00000003
ESI=06f31180 EDI=06ffeca6 EBP=00006950 ESP=00006950
EIP=000f7e25 EFL=00000006 [-----P-] CPL=0 II=0 A20=1 SMM=0 HLT=0
ES =0010 00000000 ffffffff 00c09300 DPL=0 DS   [-WA]
CS =0008 00000000 ffffffff 00c09b00 DPL=0 CS32 [-RA]
SS =0010 00000000 ffffffff 00c09300 DPL=0 DS   [-WA]
DS =0010 00000000 ffffffff 00c09300 DPL=0 DS   [-WA]
FS =0010 00000000 ffffffff 00c09300 DPL=0 DS   [-WA]
GS =0010 00000000 ffffffff 00c09300 DPL=0 DS   [-WA]
LDT=0000 00000000 0000ffff 00008200 DPL=0 LDT
TR =0000 00000000 0000ffff 00008b00 DPL=0 TSS32-busy
GDT=     000f61e0 00000037
IDT=     000f621e 00000000
CR0=00000011 CR2=00000000 CR3=00000000 CR4=00000000
DR0=0000000000000000 DR1=0000000000000000 DR2=0000000000000000 DR3=0000000000000000 
DR6=00000000ffff0ff0 DR7=0000000000000400
CCS=00000008 CCD=0000693c CCO=ADDL
EFER=0000000000000000
SMM: after RSM
EAX=000000b5 EBX=00007e28 ECX=00005678 EDX=00000003
ESI=06f31180 EDI=06ffeca6 EBP=00006950 ESP=00006950
EIP=00007e28 EFL=00000006 [-----P-] CPL=0 II=0 A20=1 SMM=0 HLT=0
ES =d900 000d9000 ffffffff 00809300
CS =f000 000f0000 ffffffff 00809b00
SS =0000 00000000 ffffffff 00809300
DS =0000 00000000 ffffffff 00809300
FS =0000 00000000 ffffffff 00809300
GS =ca00 000ca000 ffffffff 00809300
LDT=0000 00000000 0000ffff 00008200
TR =0000 00000000 0000ffff 00008b00
GDT=     00000000 00000000
IDT=     00000000 000003ff
CR0=00000010 CR2=00000000 CR3=00000000 CR4=00000000
DR0=0000000000000000 DR1=0000000000000000 DR2=0000000000000000 DR3=0000000000000000 
DR6=00000000ffff0ff0 DR7=0000000000000400
CCS=00000004 CCD=00000001 CCO=EFLAGS
EFER=0000000000000000
----------------
IN: 
0x000ca219:  66 81 c6 ff 0f 00 00     addl     $0xfff, %esi
0x000ca220:  66 81 e6 00 f0 ff ff     andl     $0xfffff000, %esi
0x000ca227:  66 89 36 81 03           movl     %esi, 0x381
0x000ca22c:  66 61                    popal    
0x000ca22e:  31 db                    xorw     %bx, %bx
0x000ca230:  31 f6                    xorw     %si, %si
0x000ca232:  0f b6 0e 02 00           movzbw   2, %cx
0x000ca237:  c1 e1 09                 shlw     $9, %cx
0x000ca23a:  ac                       lodsb    (%si), %al
0x000ca23b:  00 c3                    addb     %al, %bl
0x000ca23d:  e2 fb                    loop     0xca23a

----------------
IN: 
0x000ca23a:  ac                       lodsb    (%si), %al
0x000ca23b:  00 c3                    addb     %al, %bl
0x000ca23d:  e2 fb                    loop     0xca23a

----------------
IN: 
0x000ca23f:  28 1e 06 00              subb     %bl, 6
0x000ca243:  8c e8                    movw     %gs, %ax
0x000ca245:  8e c0                    movw     %ax, %es
0x000ca247:  0f b6 0e 02 00           movzbw   2, %cx
0x000ca24c:  31 ff                    xorw     %di, %di
0x000ca24e:  e8 ad 02                 callw    0xca4fe

----------------
IN: 
0x000ca251:  e8 ca 02                 callw    0xca51e

----------------
IN: 
0x000ca254:  8c ce                    movw     %cs, %si
0x000ca256:  39 f0                    cmpw     %si, %ax
0x000ca258:  74 0d                    je       0xca267

----------------
IN: 
0x000ca267:  c1 e1 09                 shlw     $9, %cx
0x000ca26a:  31 f6                    xorw     %si, %si
0x000ca26c:  31 ff                    xorw     %di, %di
0x000ca26e:  2e f3 a4                 rep movsb %cs:(%si), %es:(%di)

----------------
IN: 
0x000ca26e:  2e f3 a4                 rep movsb %cs:(%si), %es:(%di)

Servicing hardware INT=0x08
----------------
IN: 
0x000ca26e:  2e f3 a4                 rep movsb %cs:(%si), %es:(%di)

----------------
IN: 
0x000ca26e:  2e f3 a4                 rep movsb %cs:(%si), %es:(%di)

----------------
IN: 
0x000ca26e:  2e f3 a4                 rep movsb %cs:(%si), %es:(%di)

----------------
IN: 
0x000ca26e:  2e f3 a4                 rep movsb %cs:(%si), %es:(%di)

----------------
IN: 
0x000ca26e:  2e f3 a4                 rep movsb %cs:(%si), %es:(%di)

----------------
IN: 
0x000ca26e:  2e f3 a4                 rep movsb %cs:(%si), %es:(%di)

----------------
IN: 
0x000ca271:  f6 06 79 03 07           testb    $7, 0x379
0x000ca276:  75 30                    jne      0xca2a8

----------------
IN: 
0x000ca278:  be 56 03                 movw     $0x356, %si
0x000ca27b:  31 ff                    xorw     %di, %di
0x000ca27d:  e8 86 02                 callw    0xca506

----------------
IN: 
0x000ca506:  50                       pushw    %ax
0x000ca507:  ac                       lodsb    (%si), %al
0x000ca508:  84 c0                    testb    %al, %al
0x000ca50a:  74 05                    je       0xca511

----------------
IN: 
0x000ca50c:  e8 d0 ff                 callw    0xca4df

----------------
IN: 
0x000ca4df:  50                       pushw    %ax
0x000ca4e0:  53                       pushw    %bx
0x000ca4e1:  55                       pushw    %bp
0x000ca4e2:  85 ff                    testw    %di, %di
0x000ca4e4:  74 05                    je       0xca4eb

----------------
IN: 
0x000ca4eb:  bb 07 00                 movw     $7, %bx
0x000ca4ee:  b4 0e                    movb     $0xe, %ah
0x000ca4f0:  3c 0a                    cmpb     $0xa, %al
0x000ca4f2:  75 04                    jne      0xca4f8

----------------
IN: 
0x000ca4f4:  cd 10                    int      $0x10

----------------
IN: 
0x000ca4f6:  b0 0d                    movb     $0xd, %al
0x000ca4f8:  cd 10                    int      $0x10

----------------
IN: 
0x000ca4fa:  5d                       popw     %bp
0x000ca4fb:  5b                       popw     %bx
0x000ca4fc:  58                       popw     %ax
0x000ca4fd:  c3                       retw     

----------------
IN: 
0x000ca50f:  eb f6                    jmp      0xca507

----------------
IN: 
0x000ca507:  ac                       lodsb    (%si), %al
0x000ca508:  84 c0                    testb    %al, %al
0x000ca50a:  74 05                    je       0xca511

----------------
IN: 
0x000ca4f8:  cd 10                    int      $0x10

----------------
IN: 
0x000ca511:  58                       popw     %ax
0x000ca512:  c3                       retw     

----------------
IN: 
0x000ca280:  be 70 00                 movw     $0x70, %si
0x000ca283:  e8 80 02                 callw    0xca506

----------------
IN: 
0x000ca286:  be 72 03                 movw     $0x372, %si
0x000ca289:  e8 7a 02                 callw    0xca506

----------------
IN: 
0x000ca28c:  bb 02 ff                 movw     $0xff02, %bx
0x000ca28f:  e8 c7 01                 callw    0xca459

----------------
IN: 
0x000ca459:  51                       pushw    %cx
0x000ca45a:  50                       pushw    %ax
0x000ca45b:  b4 01                    movb     $1, %ah
0x000ca45d:  cd 16                    int      $0x16

----------------
IN: 
0x000fe82e:  66 68 b5 bb 00 00        pushl    $0xbbb5
0x000fe834:  e9 37 eb                 jmp      0xfd36e

----------------
IN: 
0x000fd36e:  fa                       cli      
0x000fd36f:  fc                       cld      
0x000fd370:  1e                       pushw    %ds
0x000fd371:  66 50                    pushl    %eax
0x000fd373:  66 b8 00 d9 00 00        movl     $0xd900, %eax
0x000fd379:  8e d8                    movw     %ax, %ds
0x000fd37b:  66 a1 d0 f6              movl     0xf6d0, %eax
0x000fd37f:  66 83 e8 30              subl     $0x30, %eax
0x000fd383:  67 66 8f 40 1c           popl     0x1c(%eax)
0x000fd388:  67 8f 00                 popw     (%eax)
0x000fd38b:  67 66 89 78 04           movl     %edi, 4(%eax)
0x000fd390:  67 66 89 70 08           movl     %esi, 8(%eax)
0x000fd395:  67 66 89 68 0c           movl     %ebp, 0xc(%eax)
0x000fd39a:  67 66 89 58 10           movl     %ebx, 0x10(%eax)
0x000fd39f:  67 66 89 50 14           movl     %edx, 0x14(%eax)
0x000fd3a4:  67 66 89 48 18           movl     %ecx, 0x18(%eax)
0x000fd3a9:  67 8c 40 02              movw     %es, 2(%eax)
0x000fd3ad:  66 59                    popl     %ecx
0x000fd3af:  67 66 89 60 28           movl     %esp, 0x28(%eax)
0x000fd3b4:  67 8c 50 2c              movw     %ss, 0x2c(%eax)
0x000fd3b8:  67 66 8f 40 20           popl     0x20(%eax)
0x000fd3bd:  67 8f 40 24              popw     0x24(%eax)
0x000fd3c1:  8c da                    movw     %ds, %dx
0x000fd3c3:  8e d2                    movw     %dx, %ss

----------------
IN: 
0x000fd3c5:  66 89 c4                 movl     %eax, %esp

----------------
IN: 
0x000fd3c8:  66 ff d1                 calll    *%ecx

----------------
IN: 
0x000fbbb5:  66 53                    pushl    %ebx
0x000fbbb7:  66 89 c3                 movl     %eax, %ebx
0x000fbbba:  66 e8 a0 33 00 00        calll    0xfef60

----------------
IN: 
0x000fef60:  66 56                    pushl    %esi
0x000fef62:  66 53                    pushl    %ebx
0x000fef64:  66 52                    pushl    %edx
0x000fef66:  66 be 40 00 00 00        movl     $0x40, %esi
0x000fef6c:  8e c6                    movw     %si, %es
0x000fef6e:  26 a1 17 00              movw     %es:0x17, %ax
0x000fef72:  c1 e8 04                 shrw     $4, %ax
0x000fef75:  66 83 e0 07              andl     $7, %eax
0x000fef79:  67 88 44 24 03           movb     %al, 3(%esp)
0x000fef7e:  26 8a 1e 97 00           movb     %es:0x97, %bl
0x000fef83:  88 da                    movb     %bl, %dl
0x000fef85:  66 83 e2 07              andl     $7, %edx
0x000fef89:  38 d0                    cmpb     %dl, %al
0x000fef8b:  74 31                    je       0xfefbe

----------------
IN: 
0x000fefbe:  66 58                    popl     %eax
0x000fefc0:  66 5b                    popl     %ebx
0x000fefc2:  66 5e                    popl     %esi
0x000fefc4:  66 c3                    retl     

----------------
IN: 
0x000fbbc0:  67 8a 43 1d              movb     0x1d(%ebx), %al
0x000fbbc4:  3c 0a                    cmpb     $0xa, %al
0x000fbbc6:  0f 84 80 00              je       0xfbc4a

----------------
IN: 
0x000fbbca:  77 26                    ja       0xfbbf2

----------------
IN: 
0x000fbbcc:  3c 02                    cmpb     $2, %al
0x000fbbce:  74 4d                    je       0xfbc1d

----------------
IN: 
0x000fbbd0:  77 0e                    ja       0xfbbe0

----------------
IN: 
0x000fbbd2:  66 31 c9                 xorl     %ecx, %ecx
0x000fbbd5:  84 c0                    testb    %al, %al
0x000fbbd7:  0f 85 85 00              jne      0xfbc60

----------------
IN: 
0x000fbc60:  66 31 d2                 xorl     %edx, %edx
0x000fbc63:  66 89 d8                 movl     %ebx, %eax
0x000fbc66:  66 5b                    popl     %ebx
0x000fbc68:  e9 5b fb                 jmp      0xfb7c6

----------------
IN: 
0x000fb7c6:  66 55                    pushl    %ebp
0x000fb7c8:  66 57                    pushl    %edi
0x000fb7ca:  66 56                    pushl    %esi
0x000fb7cc:  66 53                    pushl    %ebx
0x000fb7ce:  66 89 c3                 movl     %eax, %ebx
0x000fb7d1:  66 89 d6                 movl     %edx, %esi
0x000fb7d4:  66 89 cf                 movl     %ecx, %edi
0x000fb7d7:  66 e8 31 d2 ff ff        calll    0xf8a0e

----------------
IN: 
0x000f8a19:  66 b9 0e 8a 00 00        movl     $0x8a0e, %ecx
0x000f8a1f:  66 31 d2                 xorl     %edx, %edx
0x000f8a22:  66 31 c0                 xorl     %eax, %eax
0x000f8a25:  e9 8e f2                 jmp      0xf7cb6

----------------
IN: 
0x000fb7dd:  66 bd 40 00 00 00        movl     $0x40, %ebp
0x000fb7e3:  8e c5                    movw     %bp, %es
0x000fb7e5:  26 8b 16 1a 00           movw     %es:0x1a, %dx
0x000fb7ea:  26 a1 1c 00              movw     %es:0x1c, %ax
0x000fb7ee:  39 d0                    cmpw     %dx, %ax
0x000fb7f0:  75 15                    jne      0xfb807

----------------
IN: 
0x000fb7f2:  66 85 f6                 testl    %esi, %esi
0x000fb7f5:  75 08                    jne      0xfb7ff

----------------
IN: 
0x000fb7f7:  67 83 4b 24 40           orw      $0x40, 0x24(%ebx)
0x000fb7fc:  e9 96 00                 jmp      0xfb895

----------------
IN: 
0x000fb895:  66 5b                    popl     %ebx
0x000fb897:  66 5e                    popl     %esi
0x000fb899:  66 5f                    popl     %edi
0x000fb89b:  66 5d                    popl     %ebp
0x000fb89d:  66 c3                    retl     

----------------
IN: 
0x000fd3cb:  66 89 e0                 movl     %esp, %eax
0x000fd3ce:  67 8e 50 2c              movw     0x2c(%eax), %ss

----------------
IN: 
0x000fd3d2:  67 66 8b 60 28           movl     0x28(%eax), %esp

----------------
IN: 
0x000fd3d7:  66 5a                    popl     %edx
0x000fd3d9:  5a                       popw     %dx
0x000fd3da:  67 ff 70 24              pushw    0x24(%eax)
0x000fd3de:  67 66 ff 70 20           pushl    0x20(%eax)
0x000fd3e3:  67 66 8b 78 04           movl     4(%eax), %edi
0x000fd3e8:  67 66 8b 70 08           movl     8(%eax), %esi
0x000fd3ed:  67 66 8b 68 0c           movl     0xc(%eax), %ebp
0x000fd3f2:  67 66 8b 58 10           movl     0x10(%eax), %ebx
0x000fd3f7:  67 66 8b 50 14           movl     0x14(%eax), %edx
0x000fd3fc:  67 66 8b 48 18           movl     0x18(%eax), %ecx
0x000fd401:  67 8e 40 02              movw     2(%eax), %es
0x000fd405:  67 66 ff 70 1c           pushl    0x1c(%eax)
0x000fd40a:  67 8e 18                 movw     (%eax), %ds
0x000fd40d:  66 58                    popl     %eax
0x000fd40f:  cf                       iretw    

----------------
IN: 
0x000ca45f:  74 06                    je       0xca467

----------------
IN: 
0x000ca467:  b9 00 00                 movw     $0, %cx
0x000ca46a:  49                       decw     %cx
0x000ca46b:  78 15                    js       0xca482

----------------
IN: 
0x000ca482:  58                       popw     %ax
0x000ca483:  59                       popw     %cx
0x000ca484:  c3                       retw     

----------------
IN: 
0x000ca292:  9c                       pushfw   
0x000ca293:  31 ff                    xorw     %di, %di
0x000ca295:  e8 c4 02                 callw    0xca55c

----------------
IN: 
0x000ca55c:  50                       pushw    %ax
0x000ca55d:  51                       pushw    %cx
0x000ca55e:  b0 0d                    movb     $0xd, %al
0x000ca560:  e8 7c ff                 callw    0xca4df

----------------
IN: 
0x000ca563:  b9 4f 00                 movw     $0x4f, %cx
0x000ca566:  e8 95 ff                 callw    0xca4fe

----------------
IN: 
0x000ca4fe:  50                       pushw    %ax
0x000ca4ff:  b0 20                    movb     $0x20, %al
0x000ca501:  e8 db ff                 callw    0xca4df

----------------
IN: 
0x000ca504:  58                       popw     %ax
0x000ca505:  c3                       retw     

----------------
IN: 
0x000ca569:  e2 fb                    loop     0xca566

----------------
IN: 
0x000ca566:  e8 95 ff                 callw    0xca4fe

Servicing hardware INT=0x08
----------------
IN: 
0x000ca56b:  e8 71 ff                 callw    0xca4df

----------------
IN: 
0x000ca56e:  59                       popw     %cx
0x000ca56f:  58                       popw     %ax
0x000ca570:  c3                       retw     

----------------
IN: 
0x000ca298:  be 76 03                 movw     $0x376, %si
0x000ca29b:  e8 68 02                 callw    0xca506

----------------
IN: 
0x000ca29e:  9d                       popfw    

----------------
IN: 
0x000ca29f:  75 07                    jne      0xca2a8

----------------
IN: 
0x000ca2a8:  b0 0a                    movb     $0xa, %al
0x000ca2aa:  31 ff                    xorw     %di, %di
0x000ca2ac:  e8 30 02                 callw    0xca4df

----------------
IN: 
0x000ca2af:  0f a9                    popw     %gs
0x000ca2b1:  0f a1                    popw     %fs
0x000ca2b3:  07                       popw     %es
0x000ca2b4:  1f                       popw     %ds
0x000ca2b5:  61                       popaw    
0x000ca2b6:  b8 20 00                 movw     $0x20, %ax
0x000ca2b9:  cb                       lretw    

----------------
IN: 
0x06ff51fc:  8d 8d f0 fc ff ff        leal     -0x310(%ebp), %ecx
0x06ff5202:  31 d2                    xorl     %edx, %edx
0x06ff5204:  b8 a0 15 0f 00           movl     $0xf15a0, %eax
0x06ff5209:  e8 09 fe ff ff           calll    0x6ff5017

----------------
IN: 
0x06ff5032:  e8 25 87 ff ff           calll    0x6fed75c

----------------
IN: 
0x06fed75c:  57                       pushl    %edi
0x06fed75d:  56                       pushl    %esi
0x06fed75e:  53                       pushl    %ebx
0x06fed75f:  89 c6                    movl     %eax, %esi
0x06fed761:  8b b8 84 00 00 00        movl     0x84(%eax), %edi
0x06fed767:  89 f8                    movl     %edi, %eax
0x06fed769:  e8 1f de ff ff           calll    0x6feb58d

----------------
IN: 
0x06fed76e:  85 c0                    testl    %eax, %eax
0x06fed770:  75 11                    jne      0x6fed783

----------------
IN: 
0x06fed783:  89 c3                    movl     %eax, %ebx
0x06fed785:  89 f9                    movl     %edi, %ecx
0x06fed787:  89 c2                    movl     %eax, %edx
0x06fed789:  89 f0                    movl     %esi, %eax
0x06fed78b:  ff 96 88 00 00 00        calll    *0x88(%esi)

----------------
IN: 
0x06fed791:  85 c0                    testl    %eax, %eax
0x06fed793:  7f 02                    jg       0x6fed797

----------------
IN: 
0x06fed797:  89 d8                    movl     %ebx, %eax
0x06fed799:  5b                       popl     %ebx
0x06fed79a:  5e                       popl     %esi
0x06fed79b:  5f                       popl     %edi
0x06fed79c:  c3                       retl     

----------------
IN: 
0x06ff5037:  85 c0                    testl    %eax, %eax
0x06ff5039:  74 e8                    je       0x6ff5023

----------------
IN: 
0x06ff503b:  85 f6                    testl    %esi, %esi
0x06ff503d:  74 12                    je       0x6ff5051

----------------
IN: 
0x06ff503f:  8d 90 00 00 f4 ff        leal     -0xc0000(%eax), %edx
0x06ff5045:  c1 ea 0b                 shrl     $0xb, %edx
0x06ff5048:  89 1c d6                 movl     %ebx, (%esi, %edx, 8)
0x06ff504b:  31 c9                    xorl     %ecx, %ecx
0x06ff504d:  89 4c d6 04              movl     %ecx, 4(%esi, %edx, 8)
0x06ff5051:  89 f9                    movl     %edi, %ecx
0x06ff5053:  31 d2                    xorl     %edx, %edx
0x06ff5055:  e8 b6 fe ff ff           calll    0x6ff4f10

----------------
IN: 
0x06ff505a:  eb c7                    jmp      0x6ff5023

----------------
IN: 
0x06ff5023:  89 da                    movl     %ebx, %edx
0x06ff5025:  89 e8                    movl     %ebp, %eax
0x06ff5027:  e8 eb 65 ff ff           calll    0x6feb617

----------------
IN: 
0x06ff520e:  31 c0                    xorl     %eax, %eax
0x06ff5210:  e8 78 63 ff ff           calll    0x6feb58d

----------------
IN: 
0x06ff5215:  3b 35 40 fe ff 06        cmpl     0x6fffe40, %esi
0x06ff521b:  0f 83 6f 01 00 00        jae      0x6ff5390

----------------
IN: 
0x06ff5221:  89 f0                    movl     %esi, %eax
0x06ff5223:  e8 95 7f 0f f9           calll    0xed1bd

----------------
IN: 
0x06ff5228:  85 c0                    testl    %eax, %eax
0x06ff522a:  75 08                    jne      0x6ff5234

----------------
IN: 
0x06ff5234:  8a 46 02                 movb     2(%esi), %al
0x06ff5237:  88 85 e7 fc ff ff        movb     %al, -0x319(%ebp)
0x06ff523d:  0f b7 5e 1a              movzwl   0x1a(%esi), %ebx
0x06ff5241:  01 f3                    addl     %esi, %ebx
0x06ff5243:  89 f7                    movl     %esi, %edi
0x06ff5245:  c1 ef 04                 shrl     $4, %edi
0x06ff5248:  89 f8                    movl     %edi, %eax
0x06ff524a:  81 3b 24 50 6e 50        cmpl     $0x506e5024, (%ebx)
0x06ff5250:  75 1b                    jne      0x6ff526d

----------------
IN: 
0x06ff5252:  c7 85 ec fc ff ff 01 00  movl     $1, -0x314(%ebp)
0x06ff525a:  00 00
0x06ff525c:  c1 e0 10                 shll     $0x10, %eax
0x06ff525f:  89 85 e8 fc ff ff        movl     %eax, -0x318(%ebp)
0x06ff5265:  85 db                    testl    %ebx, %ebx
0x06ff5267:  0f 85 a6 00 00 00        jne      0x6ff5313

----------------
IN: 
0x06ff5313:  8b 85 ec fc ff ff        movl     -0x314(%ebp), %eax
0x06ff5319:  8d 48 ff                 leal     -1(%eax), %ecx
0x06ff531c:  66 83 7b 1a 00           cmpw     $0, 0x1a(%ebx)
0x06ff5321:  75 83                    jne      0x6ff52a6

----------------
IN: 
0x06ff52a6:  89 f2                    movl     %esi, %edx
0x06ff52a8:  8d 85 f0 fc ff ff        leal     -0x310(%ebp), %eax
0x06ff52ae:  e8 f6 e5 ff ff           calll    0x6ff38a9

----------------
IN: 
0x06ff38a9:  56                       pushl    %esi
0x06ff38aa:  53                       pushl    %ebx
0x06ff38ab:  81 ec 00 01 00 00        subl     $0x100, %esp
0x06ff38b1:  89 ce                    movl     %ecx, %esi
0x06ff38b3:  81 ea 00 00 0c 00        subl     $0xc0000, %edx
0x06ff38b9:  c1 ea 0b                 shrl     $0xb, %edx
0x06ff38bc:  8b 0c d0                 movl     (%eax, %edx, 8), %ecx
0x06ff38bf:  8b 5c d0 04              movl     4(%eax, %edx, 8), %ebx
0x06ff38c3:  85 db                    testl    %ebx, %ebx
0x06ff38c5:  75 04                    jne      0x6ff38cb

----------------
IN: 
0x06ff38cb:  89 c8                    movl     %ecx, %eax
0x06ff38cd:  83 e3 02                 andl     $2, %ebx
0x06ff38d0:  74 32                    je       0x6ff3904

----------------
IN: 
0x06ff38d2:  ba 89 10 0f 00           movl     $0xf1089, %edx
0x06ff38d7:  89 e0                    movl     %esp, %eax
0x06ff38d9:  e8 69 fe ff ff           calll    0x6ff3747

----------------
IN: 
0x06ff38de:  85 f6                    testl    %esi, %esi
0x06ff38e0:  74 19                    je       0x6ff38fb

----------------
IN: 
0x06ff38fb:  89 e0                    movl     %esp, %eax
0x06ff38fd:  e8 02 b8 ff ff           calll    0x6fef104

----------------
IN: 
0x06ff3902:  eb 15                    jmp      0x6ff3919

----------------
IN: 
0x06ff3919:  81 c4 00 01 00 00        addl     $0x100, %esp
0x06ff391f:  5b                       popl     %ebx
0x06ff3920:  5e                       popl     %esi
0x06ff3921:  c3                       retl     

----------------
IN: 
0x06ff52b3:  89 c2                    movl     %eax, %edx
0x06ff52b5:  0f b7 7b 10              movzwl   0x10(%ebx), %edi
0x06ff52b9:  0f b7 4b 1a              movzwl   0x1a(%ebx), %ecx
0x06ff52bd:  b8 70 15 0f 00           movl     $0xf1570, %eax
0x06ff52c2:  66 85 ff                 testw    %di, %di
0x06ff52c5:  74 09                    je       0x6ff52d0

----------------
IN: 
0x06ff52c7:  89 f0                    movl     %esi, %eax
0x06ff52c9:  25 f0 ff 0f 00           andl     $0xffff0, %eax
0x06ff52ce:  01 f8                    addl     %edi, %eax
0x06ff52d0:  8b bd e8 fc ff ff        movl     -0x318(%ebp), %edi
0x06ff52d6:  09 f9                    orl      %edi, %ecx
0x06ff52d8:  8b 3d 24 fe ff 06        movl     0x6fffe24, %edi
0x06ff52de:  85 d2                    testl    %edx, %edx
0x06ff52e0:  79 02                    jns      0x6ff52e4

----------------
IN: 
0x06ff52e2:  89 fa                    movl     %edi, %edx
0x06ff52e4:  50                       pushl    %eax
0x06ff52e5:  b8 80 00 00 00           movl     $0x80, %eax
0x06ff52ea:  e8 ae 8c ff ff           calll    0x6fedf9d

----------------
IN: 
0x06ff52ef:  c7 05 24 fe ff 06 0f 27  movl     $0x270f, 0x6fffe24
0x06ff52f7:  00 00
0x06ff52f9:  58                       popl     %eax
0x06ff52fa:  0f b7 5b 06              movzwl   6(%ebx), %ebx
0x06ff52fe:  66 85 db                 testw    %bx, %bx
0x06ff5301:  74 72                    je       0x6ff5375

----------------
IN: 
0x06ff5375:  0f b6 85 e7 fc ff ff     movzbl   -0x319(%ebp), %eax
0x06ff537c:  c1 e0 09                 shll     $9, %eax
0x06ff537f:  05 ff 07 00 00           addl     $0x7ff, %eax
0x06ff5384:  25 00 f8 ff ff           andl     $0xfffff800, %eax
0x06ff5389:  01 c6                    addl     %eax, %esi
0x06ff538b:  e9 85 fe ff ff           jmp      0x6ff5215

----------------
IN: 
0x06ff526d:  31 c9                    xorl     %ecx, %ecx
0x06ff526f:  89 f2                    movl     %esi, %edx
0x06ff5271:  8d 85 f0 fc ff ff        leal     -0x310(%ebp), %eax
0x06ff5277:  e8 2d e6 ff ff           calll    0x6ff38a9

----------------
IN: 
0x06ff38c7:  85 c9                    testl    %ecx, %ecx
0x06ff38c9:  74 4b                    je       0x6ff3916

----------------
IN: 
0x06ff3904:  83 c0 04                 addl     $4, %eax
0x06ff3907:  89 f2                    movl     %esi, %edx
0x06ff3909:  81 c4 00 01 00 00        addl     $0x100, %esp
0x06ff390f:  5b                       popl     %ebx
0x06ff3910:  5e                       popl     %esi
0x06ff3911:  e9 96 e9 ff ff           jmp      0x6ff22ac

----------------
IN: 
0x06ff22ac:  56                       pushl    %esi
0x06ff22ad:  53                       pushl    %ebx
0x06ff22ae:  81 ec 00 01 00 00        subl     $0x100, %esp
0x06ff22b4:  89 d6                    movl     %edx, %esi
0x06ff22b6:  50                       pushl    %eax
0x06ff22b7:  68 ff 0d 0f 00           pushl    $0xf0dff
0x06ff22bc:  68 00 01 00 00           pushl    $0x100
0x06ff22c1:  8d 5c 24 0c              leal     0xc(%esp), %ebx
0x06ff22c5:  53                       pushl    %ebx
0x06ff22c6:  e8 96 ff ff ff           calll    0x6ff2261

----------------
IN: 
0x06ff22cb:  89 dc                    movl     %ebx, %esp
0x06ff22cd:  85 f6                    testl    %esi, %esi
0x06ff22cf:  74 18                    je       0x6ff22e9

----------------
IN: 
0x06ff22e9:  89 d8                    movl     %ebx, %eax
0x06ff22eb:  e8 14 ce ff ff           calll    0x6fef104

----------------
IN: 
0x06ff22f0:  81 c4 00 01 00 00        addl     $0x100, %esp
0x06ff22f6:  5b                       popl     %ebx
0x06ff22f7:  5e                       popl     %esi
0x06ff22f8:  c3                       retl     

----------------
IN: 
0x06ff527c:  89 c2                    movl     %eax, %edx
0x06ff527e:  c1 e7 10                 shll     $0x10, %edi
0x06ff5281:  89 f9                    movl     %edi, %ecx
0x06ff5283:  83 c9 03                 orl      $3, %ecx
0x06ff5286:  a1 28 fe ff 06           movl     0x6fffe28, %eax
0x06ff528b:  85 d2                    testl    %edx, %edx
0x06ff528d:  79 02                    jns      0x6ff5291

----------------
IN: 
0x06ff528f:  89 c2                    movl     %eax, %edx
0x06ff5291:  68 78 15 0f 00           pushl    $0xf1578
0x06ff5296:  b8 81 00 00 00           movl     $0x81, %eax
0x06ff529b:  e8 fd 8c ff ff           calll    0x6fedf9d

----------------
IN: 
0x06fee00a:  8b 6a f0                 movl     -0x10(%edx), %ebp
0x06fee00d:  39 dd                    cmpl     %ebx, %ebp
0x06fee00f:  7f e2                    jg       0x6fedff3

----------------
IN: 
0x06fee011:  83 fb 03                 cmpl     $3, %ebx
0x06fee014:  7f 18                    jg       0x6fee02e

----------------
IN: 
0x06ff52a0:  5a                       popl     %edx
0x06ff52a1:  e9 cf 00 00 00           jmp      0x6ff5375

----------------
IN: 
0x06ff5390:  8d 65 f4                 leal     -0xc(%ebp), %esp
0x06ff5393:  5b                       popl     %ebx
0x06ff5394:  5e                       popl     %esi
0x06ff5395:  5f                       popl     %edi
0x06ff5396:  5d                       popl     %ebp
0x06ff5397:  8d 67 f8                 leal     -8(%edi), %esp
0x06ff539a:  5f                       popl     %edi
0x06ff539b:  c3                       retl     

----------------
IN: 
0x06ffbcce:  ba 01 00 00 00           movl     $1, %edx
0x06ffbcd3:  31 c9                    xorl     %ecx, %ecx
0x06ffbcd5:  b8 ed 0e 0f 00           movl     $0xf0eed, %eax
0x06ffbcda:  e8 80 16 ff ff           calll    0x6fed35f

----------------
IN: 
0x06ffbcdf:  85 c0                    testl    %eax, %eax
0x06ffbce1:  0f 84 79 1f 00 00        je       0x6ffdc60

----------------
IN: 
0x06ffdc60:  e8 89 f7 fe ff           calll    0x6fed3ee

----------------
IN: 
0x06ffdc65:  a0 e4 4c 0f 00           movb     0xf4ce4, %al
0x06ffdc6a:  3c 01                    cmpb     $1, %al
0x06ffdc6c:  74 09                    je       0x6ffdc77

----------------
IN: 
0x06ffdc6e:  3c 02                    cmpb     $2, %al
0x06ffdc70:  74 2e                    je       0x6ffdca0

----------------
IN: 
0x06ffdc72:  e9 cd 01 00 00           jmp      0x6ffde44

----------------
IN: 
0x06ffde44:  ba da 3e 0f 00           movl     $0xf3eda, %edx
0x06ffde49:  b8 04 00 00 00           movl     $4, %eax
0x06ffde4e:  e8 4d cc 0e f9           calll    0xeaaa0

----------------
IN: 
0x000eaaa0:  56                       pushl    %esi
0x000eaaa1:  53                       pushl    %ebx
0x000eaaa2:  89 c6                    movl     %eax, %esi
0x000eaaa4:  89 d3                    movl     %edx, %ebx
0x000eaaa6:  89 d0                    movl     %edx, %eax
0x000eaaa8:  e8 0f e6 ff ff           calll    0xe90bc

----------------
IN: 
0x000eaaad:  50                       pushl    %eax
0x000eaaae:  53                       pushl    %ebx
0x000eaaaf:  50                       pushl    %eax
0x000eaab0:  89 d9                    movl     %ebx, %ecx
0x000eaab2:  ba 05 00 00 00           movl     $5, %edx
0x000eaab7:  89 f0                    movl     %esi, %eax
0x000eaab9:  e8 48 ff ff ff           calll    0xeaa06

----------------
IN: 
0x000eaa06:  80 3d 41 86 0e 00 00     cmpb     $0, 0xe8641
0x000eaa0d:  0f 84 8c 00 00 00        je       0xeaa9f

----------------
IN: 
0x000eaa9f:  c3                       retl     

----------------
IN: 
0x000eaabe:  83 c4 0c                 addl     $0xc, %esp
0x000eaac1:  5b                       popl     %ebx
0x000eaac2:  5e                       popl     %esi
0x000eaac3:  c3                       retl     

----------------
IN: 
0x06ffde53:  31 db                    xorl     %ebx, %ebx
0x06ffde55:  6a 04                    pushl    $4
0x06ffde57:  68 04 f5 ff 06           pushl    $0x6fff504
0x06ffde5c:  6a 04                    pushl    $4
0x06ffde5e:  b9 04 f5 ff 06           movl     $0x6fff504, %ecx
0x06ffde63:  ba 04 00 00 00           movl     $4, %edx
0x06ffde68:  89 d8                    movl     %ebx, %eax
0x06ffde6a:  e8 97 cb 0e f9           calll    0xeaa06

----------------
IN: 
0x06ffde6f:  43                       incl     %ebx
0x06ffde70:  83 c4 0c                 addl     $0xc, %esp
0x06ffde73:  83 fb 08                 cmpl     $8, %ebx
0x06ffde76:  75 dd                    jne      0x6ffde55

----------------
IN: 
0x06ffde55:  6a 04                    pushl    $4
0x06ffde57:  68 04 f5 ff 06           pushl    $0x6fff504
0x06ffde5c:  6a 04                    pushl    $4
0x06ffde5e:  b9 04 f5 ff 06           movl     $0x6fff504, %ecx
0x06ffde63:  ba 04 00 00 00           movl     $4, %edx
0x06ffde68:  89 d8                    movl     %ebx, %eax
0x06ffde6a:  e8 97 cb 0e f9           calll    0xeaa06

----------------
IN: 
0x06ffde78:  b8 6b ff 0e 00           movl     $0xeff6b, %eax
0x06ffde7d:  e8 82 12 ff ff           calll    0x6fef104

----------------
IN: 
0x06ffde82:  89 c2                    movl     %eax, %edx
0x06ffde84:  85 c0                    testl    %eax, %eax
0x06ffde86:  78 12                    js       0x6ffde9a

----------------
IN: 
0x06ffde9a:  a1 20 fe ff 06           movl     0x6fffe20, %eax
0x06ffde9f:  8d 70 f0                 leal     -0x10(%eax), %esi
0x06ffdea2:  83 fe f0                 cmpl     $-0x10, %esi
0x06ffdea5:  0f 84 29 04 00 00        je       0x6ffe2d4

----------------
IN: 
0x06ffdeab:  8b 06                    movl     (%esi), %eax
0x06ffdead:  83 f8 03                 cmpl     $3, %eax
0x06ffdeb0:  0f 84 fa 03 00 00        je       0x6ffe2b0

----------------
IN: 
0x06ffdeb6:  7f 0f                    jg       0x6ffdec7

----------------
IN: 
0x06ffdeb8:  83 f8 01                 cmpl     $1, %eax
0x06ffdebb:  74 2c                    je       0x6ffdee9

----------------
IN: 
0x06ffdebd:  83 f8 02                 cmpl     $2, %eax
0x06ffdec0:  74 79                    je       0x6ffdf3b

----------------
IN: 
0x06ffdf3b:  8b 5e 04                 movl     4(%esi), %ebx
0x06ffdf3e:  0f b6 05 75 04 00 00     movzbl   0x475, %eax
0x06ffdf45:  88 44 24 14              movb     %al, 0x14(%esp)
0x06ffdf49:  89 44 24 18              movl     %eax, 0x18(%esp)
0x06ffdf4d:  89 d9                    movl     %ebx, %ecx
0x06ffdf4f:  ba 75 04 00 00           movl     $0x475, %edx
0x06ffdf54:  b8 40 61 0f 00           movl     $0xf6140, %eax
0x06ffdf59:  e8 dd f7 fe ff           calll    0x6fed73b

----------------
IN: 
0x06fed73b:  53                       pushl    %ebx
0x06fed73c:  89 c3                    movl     %eax, %ebx
0x06fed73e:  0f b6 02                 movzbl   (%edx), %eax
0x06fed741:  3c 0f                    cmpb     $0xf, %al
0x06fed743:  76 10                    jbe      0x6fed755

----------------
IN: 
0x06fed755:  89 0c 83                 movl     %ecx, (%ebx, %eax, 4)
0x06fed758:  fe 02                    incb     (%edx)
0x06fed75a:  5b                       popl     %ebx
0x06fed75b:  c3                       retl     

----------------
IN: 
0x06ffdf5e:  66 8b 6b 02              movw     2(%ebx), %bp
0x06ffdf62:  66 81 fd ff 00           cmpw     $0xff, %bp
0x06ffdf67:  77 13                    ja       0x6ffdf7c

----------------
IN: 
0x06ffdf69:  66 8b 43 06              movw     6(%ebx), %ax
0x06ffdf6d:  8d 50 ff                 leal     -1(%eax), %edx
0x06ffdf70:  b0 04                    movb     $4, %al
0x06ffdf72:  66 83 fa 3e              cmpw     $0x3e, %dx
0x06ffdf76:  0f 86 c8 00 00 00        jbe      0x6ffe044

----------------
IN: 
0x06ffdf7c:  80 3b 20                 cmpb     $0x20, (%ebx)
0x06ffdf7f:  75 24                    jne      0x6ffdfa5

----------------
IN: 
0x06ffdf81:  8b 4b 14                 movl     0x14(%ebx), %ecx
0x06ffdf84:  89 c8                    movl     %ecx, %eax
0x06ffdf86:  c1 e8 02                 shrl     $2, %eax
0x06ffdf89:  83 c0 39                 addl     $0x39, %eax
0x06ffdf8c:  83 c8 80                 orl      $0xffffff80, %eax
0x06ffdf8f:  e6 70                    outb     %al, $0x70

----------------
IN: 
0x06ffdf91:  e4 71                    inb      $0x71, %al

----------------
IN: 
0x06ffdf93:  0f b6 c0                 movzbl   %al, %eax
0x06ffdf96:  83 e1 03                 andl     $3, %ecx
0x06ffdf99:  01 c9                    addl     %ecx, %ecx
0x06ffdf9b:  d3 f8                    sarl     %cl, %eax
0x06ffdf9d:  83 e0 03                 andl     $3, %eax
0x06ffdfa0:  e9 9f 00 00 00           jmp      0x6ffe044

----------------
IN: 
0x06ffe044:  88 43 19                 movb     %al, 0x19(%ebx)
0x06ffe047:  8b 7b 1c                 movl     0x1c(%ebx), %edi
0x06ffe04a:  66 89 7c 24 0c           movw     %di, 0xc(%esp)
0x06ffe04f:  66 8b 4b 1e              movw     0x1e(%ebx), %cx
0x06ffe053:  8b 7b 20                 movl     0x20(%ebx), %edi
0x06ffe056:  66 89 7c 24 10           movw     %di, 0x10(%esp)
0x06ffe05b:  8b 7b 0c                 movl     0xc(%ebx), %edi
0x06ffe05e:  89 3c 24                 movl     %edi, (%esp)
0x06ffe061:  8b 53 10                 movl     0x10(%ebx), %edx
0x06ffe064:  3c 03                    cmpb     $3, %al
0x06ffe066:  0f 84 9b 00 00 00        je       0x6ffe107

----------------
IN: 
0x06ffe06c:  3c 04                    cmpb     $4, %al
0x06ffe06e:  0f 84 e2 00 00 00        je       0x6ffe156

----------------
IN: 
0x06ffe074:  3c 01                    cmpb     $1, %al
0x06ffe076:  74 1c                    je       0x6ffe094

----------------
IN: 
0x06ffe078:  3c 02                    cmpb     $2, %al
0x06ffe07a:  0f 84 b8 00 00 00        je       0x6ffe138

----------------
IN: 
0x06ffe080:  8b 7c 24 10              movl     0x10(%esp), %edi
0x06ffe084:  89 c8                    movl     %ecx, %eax
0x06ffe086:  8b 6c 24 0c              movl     0xc(%esp), %ebp
0x06ffe08a:  ba c6 36 0f 00           movl     $0xf36c6, %edx
0x06ffe08f:  e9 ea 00 00 00           jmp      0x6ffe17e

----------------
IN: 
0x06ffe17e:  66 89 44 24 08           movw     %ax, 8(%esp)
0x06ffe183:  66 3d 00 04              cmpw     $0x400, %ax
0x06ffe187:  76 07                    jbe      0x6ffe190

----------------
IN: 
0x06ffe190:  ff 34 24                 pushl    (%esp)
0x06ffe193:  0f b7 c7                 movzwl   %di, %eax
0x06ffe196:  50                       pushl    %eax
0x06ffe197:  0f b7 c5                 movzwl   %bp, %eax
0x06ffe19a:  50                       pushl    %eax
0x06ffe19b:  0f b7 44 24 14           movzwl   0x14(%esp), %eax
0x06ffe1a0:  50                       pushl    %eax
0x06ffe1a1:  52                       pushl    %edx
0x06ffe1a2:  0f b7 44 24 24           movzwl   0x24(%esp), %eax
0x06ffe1a7:  50                       pushl    %eax
0x06ffe1a8:  0f b7 44 24 24           movzwl   0x24(%esp), %eax
0x06ffe1ad:  50                       pushl    %eax
0x06ffe1ae:  0f b7 c1                 movzwl   %cx, %eax
0x06ffe1b1:  50                       pushl    %eax
0x06ffe1b2:  53                       pushl    %ebx
0x06ffe1b3:  68 ea 3e 0f 00           pushl    $0xf3eea
0x06ffe1b8:  e8 a2 da 0e f9           calll    0xebc5f

----------------
IN: 
0x06ffe1bd:  66 89 6b 02              movw     %bp, 2(%ebx)
0x06ffe1c1:  8b 44 24 30              movl     0x30(%esp), %eax
0x06ffe1c5:  66 89 43 04              movw     %ax, 4(%ebx)
0x06ffe1c9:  66 89 7b 06              movw     %di, 6(%ebx)
0x06ffe1cd:  83 c4 28                 addl     $0x28, %esp
0x06ffe1d0:  83 7c 24 18 01           cmpl     $1, 0x18(%esp)
0x06ffe1d5:  0f 8f cc 00 00 00        jg       0x6ffe2a7

----------------
IN: 
0x06ffe1db:  66 8b 43 1e              movw     0x1e(%ebx), %ax
0x06ffe1df:  66 89 04 24              movw     %ax, (%esp)
0x06ffe1e3:  8b 4b 1c                 movl     0x1c(%ebx), %ecx
0x06ffe1e6:  8b 5b 20                 movl     0x20(%ebx), %ebx
0x06ffe1e9:  66 89 5c 24 0c           movw     %bx, 0xc(%esp)
0x06ffe1ee:  0f b7 1d 0e 04 00 00     movzwl   0x40e, %ebx
0x06ffe1f5:  c1 e3 04                 shll     $4, %ebx
0x06ffe1f8:  0f b6 54 24 14           movzbl   0x14(%esp), %edx
0x06ffe1fd:  c1 e2 04                 shll     $4, %edx
0x06ffe200:  8d 44 13 3d              leal     0x3d(%ebx, %edx), %eax
0x06ffe204:  89 44 24 10              movl     %eax, 0x10(%esp)
0x06ffe208:  01 d3                    addl     %edx, %ebx
0x06ffe20a:  66 c7 43 42 ff ff        movw     $0xffff, 0x42(%ebx)
0x06ffe210:  66 83 f9 09              cmpw     $9, %cx
0x06ffe214:  19 d2                    sbbl     %edx, %edx
0x06ffe216:  83 e2 f8                 andl     $0xfffffff8, %edx
0x06ffe219:  83 ea 38                 subl     $0x38, %edx
0x06ffe21c:  88 53 45                 movb     %dl, 0x45(%ebx)
0x06ffe21f:  8b 04 24                 movl     (%esp), %eax
0x06ffe222:  66 89 43 49              movw     %ax, 0x49(%ebx)
0x06ffe226:  8b 44 24 08              movl     8(%esp), %eax
0x06ffe22a:  66 89 43 3d              movw     %ax, 0x3d(%ebx)
0x06ffe22e:  89 ea                    movl     %ebp, %edx
0x06ffe230:  88 53 3f                 movb     %dl, 0x3f(%ebx)
0x06ffe233:  89 fa                    movl     %edi, %edx
0x06ffe235:  88 53 4b                 movb     %dl, 0x4b(%ebx)
0x06ffe238:  66 39 e9                 cmpw     %bp, %cx
0x06ffe23b:  0f 95 c0                 setne    %al
0x06ffe23e:  66 39 7c 24 0c           cmpw     %di, 0xc(%esp)
0x06ffe243:  0f 95 c2                 setne    %dl
0x06ffe246:  08 c2                    orb      %al, %dl
0x06ffe248:  75 0a                    jne      0x6ffe254

----------------
IN: 
0x06ffe24a:  8b 7c 24 08              movl     8(%esp), %edi
0x06ffe24e:  66 39 3c 24              cmpw     %di, (%esp)
0x06ffe252:  74 26                    je       0x6ffe27a

----------------
IN: 
0x06ffe27a:  66 a1 0e 04 00 00        movw     0x40e, %ax
0x06ffe280:  83 7c 24 18 00           cmpl     $0, 0x18(%esp)
0x06ffe285:  75 11                    jne      0x6ffe298

----------------
IN: 
0x06ffe287:  66 c7 05 04 01 00 00 3d  movw     $0x3d, 0x104
0x06ffe28f:  00
0x06ffe290:  66 a3 06 01 00 00        movw     %ax, 0x106
0x06ffe296:  eb 0f                    jmp      0x6ffe2a7

----------------
IN: 
0x06ffe2a7:  31 d2                    xorl     %edx, %edx
0x06ffe2a9:  b8 02 00 00 00           movl     $2, %eax
0x06ffe2ae:  eb 17                    jmp      0x6ffe2c7

----------------
IN: 
0x06ffe2c7:  e8 46 d4 fe ff           calll    0x6feb712

----------------
IN: 
0x06feb712:  53                       pushl    %ebx
0x06feb713:  89 d1                    movl     %edx, %ecx
0x06feb715:  83 f8 02                 cmpl     $2, %eax
0x06feb718:  75 37                    jne      0x6feb751

----------------
IN: 
0x06feb71a:  8b 15 28 ff ff 06        movl     0x6ffff28, %edx
0x06feb720:  8d 5a 01                 leal     1(%edx), %ebx
0x06feb723:  89 1d 28 ff ff 06        movl     %ebx, 0x6ffff28
0x06feb729:  85 d2                    testl    %edx, %edx
0x06feb72b:  75 3a                    jne      0x6feb767

----------------
IN: 
0x06feb72d:  8b 15 e8 4c 0f 00        movl     0xf4ce8, %edx
0x06feb733:  83 fa 13                 cmpl     $0x13, %edx
0x06feb736:  77 2f                    ja       0x6feb767

----------------
IN: 
0x06feb738:  8d 5a 01                 leal     1(%edx), %ebx
0x06feb73b:  89 1d e8 4c 0f 00        movl     %ebx, 0xf4ce8
0x06feb741:  89 04 d5 00 4d 0f 00     movl     %eax, 0xf4d00(, %edx, 8)
0x06feb748:  89 0c d5 04 4d 0f 00     movl     %ecx, 0xf4d04(, %edx, 8)
0x06feb74f:  eb 16                    jmp      0x6feb767

----------------
IN: 
0x06feb767:  5b                       popl     %ebx
0x06feb768:  c3                       retl     

----------------
IN: 
0x06ffe2cc:  8b 46 10                 movl     0x10(%esi), %eax
0x06ffe2cf:  e9 cb fb ff ff           jmp      0x6ffde9f

----------------
IN: 
0x06ffde9f:  8d 70 f0                 leal     -0x10(%eax), %esi
0x06ffdea2:  83 fe f0                 cmpl     $-0x10, %esi
0x06ffdea5:  0f 84 29 04 00 00        je       0x6ffe2d4

----------------
IN: 
0x06ffdec7:  3d 81 00 00 00           cmpl     $0x81, %eax
0x06ffdecc:  0f 85 f0 03 00 00        jne      0x6ffe2c2

----------------
IN: 
0x06ffded2:  0f b7 56 04              movzwl   4(%esi), %edx
0x06ffded6:  0f b7 46 06              movzwl   6(%esi), %eax
0x06ffdeda:  c1 e0 04                 shll     $4, %eax
0x06ffdedd:  31 c9                    xorl     %ecx, %ecx
0x06ffdedf:  e8 15 fe 0e f9           calll    0xedcf9

----------------
IN: 
0x000cb003:  06                       pushw    %es
0x000cb004:  0e                       pushw    %cs
0x000cb005:  07                       popw     %es
0x000cb006:  31 c0                    xorw     %ax, %ax
0x000cb008:  b9 00 10                 movw     $0x1000, %cx
0x000cb00b:  8d 3e 00 03              leaw     0x300, %di
0x000cb00f:  fc                       cld      
0x000cb010:  f3 ab                    rep stosw %ax, %es:(%di)

----------------
IN: 
0x000cb010:  f3 ab                    rep stosw %ax, %es:(%di)

----------------
IN: 
0x000cb012:  07                       popw     %es
0x000cb013:  b8 20 00                 movw     $0x20, %ax
0x000cb016:  e7 7e                    outw     %ax, $0x7e

----------------
IN: 
0x000cb018:  cb                       lretw    

----------------
IN: 
0x06ffdee4:  e9 be 03 00 00           jmp      0x6ffe2a7

----------------
IN: 
0x06ffdee9:  8b 4e 04                 movl     4(%esi), %ecx
0x06ffdeec:  ba c0 61 0f 00           movl     $0xf61c0, %edx
0x06ffdef1:  b8 00 61 0f 00           movl     $0xf6100, %eax
0x06ffdef6:  e8 40 f8 fe ff           calll    0x6fed73b

----------------
IN: 
0x06ffdefb:  80 3d c0 61 0f 00 01     cmpb     $1, 0xf61c0
0x06ffdf02:  75 1a                    jne      0x6ffdf1e

----------------
IN: 
0x06ffdf04:  a1 10 04 00 00           movl     0x410, %eax
0x06ffdf09:  83 e0 be                 andl     $0xffffffbe, %eax
0x06ffdf0c:  83 c8 01                 orl      $1, %eax
0x06ffdf0f:  66 a3 10 04 00 00        movw     %ax, 0x410
0x06ffdf15:  c6 05 8f 04 00 00 07     movb     $7, 0x48f
0x06ffdf1c:  eb 11                    jmp      0x6ffdf2f

----------------
IN: 
0x06ffdf2f:  31 d2                    xorl     %edx, %edx
0x06ffdf31:  b8 01 00 00 00           movl     $1, %eax
0x06ffdf36:  e9 8c 03 00 00           jmp      0x6ffe2c7

----------------
IN: 
0x06feb751:  83 f8 01                 cmpl     $1, %eax
0x06feb754:  75 d7                    jne      0x6feb72d

----------------
IN: 
0x06feb756:  8b 15 24 ff ff 06        movl     0x6ffff24, %edx
0x06feb75c:  8d 5a 01                 leal     1(%edx), %ebx
0x06feb75f:  89 1d 24 ff ff 06        movl     %ebx, 0x6ffff24
0x06feb765:  eb c2                    jmp      0x6feb729

----------------
IN: 
0x06feb729:  85 d2                    testl    %edx, %edx
0x06feb72b:  75 3a                    jne      0x6feb767

----------------
IN: 
0x06ffe2b0:  8b 4e 04                 movl     4(%esi), %ecx
0x06ffe2b3:  ba 44 ff ff 06           movl     $0x6ffff44, %edx
0x06ffe2b8:  b8 80 61 0f 00           movl     $0xf6180, %eax
0x06ffe2bd:  e8 79 f4 fe ff           calll    0x6fed73b

----------------
IN: 
0x06ffe2c2:  8b 56 04                 movl     4(%esi), %edx
0x06ffe2c5:  8b 06                    movl     (%esi), %eax
0x06ffe2c7:  e8 46 d4 fe ff           calll    0x6feb712

----------------
IN: 
0x06ffe2d4:  31 d2                    xorl     %edx, %edx
0x06ffe2d6:  b8 01 00 00 00           movl     $1, %eax
0x06ffe2db:  e8 32 d4 fe ff           calll    0x6feb712

----------------
IN: 
0x06ffe2e0:  31 d2                    xorl     %edx, %edx
0x06ffe2e2:  b8 02 00 00 00           movl     $2, %eax
0x06ffe2e7:  e8 26 d4 fe ff           calll    0x6feb712

----------------
IN: 
0x06ffe2ec:  80 3d 44 ff ff 06 00     cmpb     $0, 0x6ffff44
0x06ffe2f3:  74 50                    je       0x6ffe345

----------------
IN: 
0x06ffe2f5:  e8 b5 fe fe ff           calll    0x6fee1af

----------------
IN: 
0x06fee1af:  83 3d ec 60 0f 00 00     cmpl     $0, 0xf60ec
0x06fee1b6:  75 26                    jne      0x6fee1de

----------------
IN: 
0x06fee1b8:  b8 00 08 00 00           movl     $0x800, %eax
0x06fee1bd:  e8 5d fc ff ff           calll    0x6fede1f

----------------
IN: 
0x06fede1f:  89 c2                    movl     %eax, %edx
0x06fede21:  b9 10 00 00 00           movl     $0x10, %ecx
0x06fede26:  b8 68 fe ff 06           movl     $0x6fffe68, %eax
0x06fede2b:  e9 e4 fe ff ff           jmp      0x6fedd14

----------------
IN: 
0x06fee1c2:  85 c0                    testl    %eax, %eax
0x06fee1c4:  75 13                    jne      0x6fee1d9

----------------
IN: 
0x06fee1d9:  a3 ec 60 0f 00           movl     %eax, 0xf60ec
0x06fee1de:  31 c0                    xorl     %eax, %eax
0x06fee1e0:  c3                       retl     

----------------
IN: 
0x06ffe2fa:  85 c0                    testl    %eax, %eax
0x06ffe2fc:  78 47                    js       0x6ffe345

----------------
IN: 
0x06ffe2fe:  b8 2c 00 00 00           movl     $0x2c, %eax
0x06ffe303:  e8 28 fb fe ff           calll    0x6fede30

----------------
IN: 
0x06ffe308:  85 c0                    testl    %eax, %eax
0x06ffe30a:  75 11                    jne      0x6ffe31d

----------------
IN: 
0x06ffe31d:  a3 e8 60 0f 00           movl     %eax, 0xf60e8
0x06ffe322:  b9 2c 00 00 00           movl     $0x2c, %ecx
0x06ffe327:  31 d2                    xorl     %edx, %edx
0x06ffe329:  e8 2c bd 0e f9           calll    0xea05a

----------------
IN: 
0x06ffe32e:  c6 00 40                 movb     $0x40, (%eax)
0x06ffe331:  66 c7 40 1a 00 02        movw     $0x200, 0x1a(%eax)
0x06ffe337:  c7 40 0c ff ff ff ff     movl     $0xffffffff, 0xc(%eax)
0x06ffe33e:  c7 40 10 ff ff ff ff     movl     $0xffffffff, 0x10(%eax)
0x06ffe345:  31 db                    xorl     %ebx, %ebx
0x06ffe347:  89 1d f0 55 0f 00        movl     %ebx, 0xf55f0
0x06ffe34d:  89 1d f7 55 0f 00        movl     %ebx, 0xf55f7
0x06ffe353:  e8 4c af 0e f9           calll    0xe92a4

----------------
IN: 
0x06ffe358:  89 c6                    movl     %eax, %esi
0x06ffe35a:  a1 40 fe ff 06           movl     0x6fffe40, %eax
0x06ffe35f:  89 f1                    movl     %esi, %ecx
0x06ffe361:  29 c1                    subl     %eax, %ecx
0x06ffe363:  31 d2                    xorl     %edx, %edx
0x06ffe365:  e8 f0 bc 0e f9           calll    0xea05a

----------------
IN: 
0x06ffe36a:  66 c7 06 55 aa           movw     $0xaa55, (%esi)
0x06ffe36f:  b8 00 00 0f 00           movl     $0xf0000, %eax
0x06ffe374:  29 f0                    subl     %esi, %eax
0x06ffe376:  89 c2                    movl     %eax, %edx
0x06ffe378:  c1 ea 09                 shrl     $9, %edx
0x06ffe37b:  3d ff ff 01 00           cmpl     $0x1ffff, %eax
0x06ffe380:  76 05                    jbe      0x6ffe387

----------------
IN: 
0x06ffe387:  88 56 02                 movb     %dl, 2(%esi)
0x06ffe38a:  0f b7 1d 13 04 00 00     movzwl   0x413, %ebx
0x06ffe391:  c1 e3 0a                 shll     $0xa, %ebx
0x06ffe394:  89 d8                    movl     %ebx, %eax
0x06ffe396:  99                       cltd     
0x06ffe397:  6a 02                    pushl    $2
0x06ffe399:  b9 00 00 0a 00           movl     $0xa0000, %ecx
0x06ffe39e:  29 d9                    subl     %ebx, %ecx
0x06ffe3a0:  31 db                    xorl     %ebx, %ebx
0x06ffe3a2:  53                       pushl    %ebx
0x06ffe3a3:  51                       pushl    %ecx
0x06ffe3a4:  e8 b5 f8 fe ff           calll    0x6fedc5e

----------------
IN: 
0x06fedbc3:  03 41 08                 addl     8(%ecx), %eax
0x06fedbc6:  13 51 0c                 adcl     0xc(%ecx), %edx
0x06fedbc9:  89 44 24 10              movl     %eax, 0x10(%esp)
0x06fedbcd:  89 54 24 14              movl     %edx, 0x14(%esp)
0x06fedbd1:  8b 44 24 10              movl     0x10(%esp), %eax
0x06fedbd5:  39 04 24                 cmpl     %eax, (%esp)
0x06fedbd8:  8b 44 24 04              movl     4(%esp), %eax
0x06fedbdc:  1b 44 24 14              sbbl     0x14(%esp), %eax
0x06fedbe0:  72 09                    jb       0x6fedbeb

----------------
IN: 
0x06fedbe2:  89 d8                    movl     %ebx, %eax
0x06fedbe4:  e8 21 f5 ff ff           calll    0x6fed10a

----------------
IN: 
0x06fed10a:  53                       pushl    %ebx
0x06fed10b:  8b 1d 04 56 0f 00        movl     0xf5604, %ebx
0x06fed111:  8d 4b ff                 leal     -1(%ebx), %ecx
0x06fed114:  89 0d 04 56 0f 00        movl     %ecx, 0xf5604
0x06fed11a:  8d 50 01                 leal     1(%eax), %edx
0x06fed11d:  6b d2 14                 imull    $0x14, %edx, %edx
0x06fed120:  29 c1                    subl     %eax, %ecx
0x06fed122:  6b c9 14                 imull    $0x14, %ecx, %ecx
0x06fed125:  8d 9a 20 56 0f 00        leal     0xf5620(%edx), %ebx
0x06fed12b:  8d 82 0c 56 0f 00        leal     0xf560c(%edx), %eax
0x06fed131:  89 da                    movl     %ebx, %edx
0x06fed133:  5b                       popl     %ebx
0x06fed134:  e9 b3 ff ff ff           jmp      0x6fed0ec

----------------
IN: 
0x06fed0f4:  89 c7                    movl     %eax, %edi
0x06fed0f6:  f3 a4                    rep movsb (%esi), %es:(%edi)

----------------
IN: 
0x06fed0f6:  f3 a4                    rep movsb (%esi), %es:(%edi)

----------------
IN: 
0x06fed0f8:  eb 0d                    jmp      0x6fed107

----------------
IN: 
0x06fedbe9:  eb af                    jmp      0x6fedb9a

----------------
IN: 
0x06fedb9a:  3b 1d 04 56 0f 00        cmpl     0xf5604, %ebx
0x06fedba0:  0f 8d 81 00 00 00        jge      0x6fedc27

----------------
IN: 
0x06ffe3a9:  8b 1d 60 fe ff 06        movl     0x6fffe60, %ebx
0x06ffe3af:  83 c4 0c                 addl     $0xc, %esp
0x06ffe3b2:  31 ff                    xorl     %edi, %edi
0x06ffe3b4:  85 db                    testl    %ebx, %ebx
0x06ffe3b6:  74 06                    je       0x6ffe3be

----------------
IN: 
0x06ffe3b8:  89 df                    movl     %ebx, %edi
0x06ffe3ba:  8b 1b                    movl     (%ebx), %ebx
0x06ffe3bc:  eb f6                    jmp      0x6ffe3b4

----------------
IN: 
0x06ffe3b4:  85 db                    testl    %ebx, %ebx
0x06ffe3b6:  74 06                    je       0x6ffe3be

----------------
IN: 
0x06ffe3be:  8b 47 08                 movl     8(%edi), %eax
0x06ffe3c1:  8b 4f 0c                 movl     0xc(%edi), %ecx
0x06ffe3c4:  29 c1                    subl     %eax, %ecx
0x06ffe3c6:  31 d2                    xorl     %edx, %edx
0x06ffe3c8:  e8 8d bc 0e f9           calll    0xea05a

----------------
IN: 
0x06ffe3cd:  ff 77 0c                 pushl    0xc(%edi)
0x06ffe3d0:  ff 77 08                 pushl    8(%edi)
0x06ffe3d3:  56                       pushl    %esi
0x06ffe3d4:  ff 35 40 fe ff 06        pushl    0x6fffe40
0x06ffe3da:  68 25 3f 0f 00           pushl    $0xf3f25
0x06ffe3df:  e8 7b d8 0e f9           calll    0xebc5f

----------------
IN: 
0x06ffe3e4:  a1 64 fe ff 06           movl     0x6fffe64, %eax
0x06ffe3e9:  83 c4 14                 addl     $0x14, %esp
0x06ffe3ec:  85 c0                    testl    %eax, %eax
0x06ffe3ee:  74 06                    je       0x6ffe3f6

----------------
IN: 
0x06ffe3f0:  89 c3                    movl     %eax, %ebx
0x06ffe3f2:  8b 00                    movl     (%eax), %eax
0x06ffe3f4:  eb f6                    jmp      0x6ffe3ec

----------------
IN: 
0x06ffe3ec:  85 c0                    testl    %eax, %eax
0x06ffe3ee:  74 06                    je       0x6ffe3f6

----------------
IN: 
0x06ffe3f6:  85 db                    testl    %ebx, %ebx
0x06ffe3f8:  74 29                    je       0x6ffe423

----------------
IN: 
0x06ffe3fa:  8b 43 08                 movl     8(%ebx), %eax
0x06ffe3fd:  8b 5b 0c                 movl     0xc(%ebx), %ebx
0x06ffe400:  29 c3                    subl     %eax, %ebx
0x06ffe402:  81 e3 00 f0 ff ff        andl     $0xfffff000, %ebx
0x06ffe408:  31 d2                    xorl     %edx, %edx
0x06ffe40a:  6a 01                    pushl    $1
0x06ffe40c:  31 ff                    xorl     %edi, %edi
0x06ffe40e:  57                       pushl    %edi
0x06ffe40f:  53                       pushl    %ebx
0x06ffe410:  e8 49 f8 fe ff           calll    0x6fedc5e

----------------
IN: 
0x06fedb0c:  43                       incl     %ebx
0x06fedb0d:  eb b8                    jmp      0x6fedac7

----------------
IN: 
0x06fedac7:  8b 44 24 20              movl     0x20(%esp), %eax
0x06fedacb:  39 c3                    cmpl     %eax, %ebx
0x06fedacd:  0f 8d 54 01 00 00        jge      0x6fedc27

----------------
IN: 
0x06fedb2e:  8b 04 24                 movl     (%esp), %eax
0x06fedb31:  8b 54 24 04              movl     4(%esp), %edx
0x06fedb35:  29 f0                    subl     %esi, %eax
0x06fedb37:  19 fa                    sbbl     %edi, %edx
0x06fedb39:  89 44 24 18              movl     %eax, 0x18(%esp)
0x06fedb3d:  89 54 24 1c              movl     %edx, 0x1c(%esp)
0x06fedb41:  89 74 24 08              movl     %esi, 8(%esp)
0x06fedb45:  89 7c 24 0c              movl     %edi, 0xc(%esp)
0x06fedb49:  eb 4c                    jmp      0x6fedb97

----------------
IN: 
0x06fedbeb:  8b 04 24                 movl     (%esp), %eax
0x06fedbee:  8b 54 24 04              movl     4(%esp), %edx
0x06fedbf2:  89 86 20 56 0f 00        movl     %eax, 0xf5620(%esi)
0x06fedbf8:  89 96 24 56 0f 00        movl     %edx, 0xf5624(%esi)
0x06fedbfe:  8b 44 24 10              movl     0x10(%esp), %eax
0x06fedc02:  8b 54 24 14              movl     0x14(%esp), %edx
0x06fedc06:  2b 04 24                 subl     (%esp), %eax
0x06fedc09:  1b 54 24 04              sbbl     4(%esp), %edx
0x06fedc0d:  89 41 08                 movl     %eax, 8(%ecx)
0x06fedc10:  89 51 0c                 movl     %edx, 0xc(%ecx)
0x06fedc13:  3b 69 10                 cmpl     0x10(%ecx), %ebp
0x06fedc16:  75 0f                    jne      0x6fedc27

----------------
IN: 
0x06ffe415:  53                       pushl    %ebx
0x06ffe416:  68 4c 3f 0f 00           pushl    $0xf3f4c
0x06ffe41b:  e8 3f d8 0e f9           calll    0xebc5f

----------------
IN: 
0x06ffe420:  83 c4 14                 addl     $0x14, %esp
0x06ffe423:  e8 a1 d1 fe ff           calll    0x6feb5c9

----------------
IN: 
0x06ffe428:  ff 35 04 56 0f 00        pushl    0xf5604
0x06ffe42e:  68 6b 3f 0f 00           pushl    $0xf3f6b
0x06ffe433:  e8 27 d8 0e f9           calll    0xebc5f

----------------
IN: 
0x06ffe438:  bb 20 56 0f 00           movl     $0xf5620, %ebx
0x06ffe43d:  5a                       popl     %edx
0x06ffe43e:  59                       popl     %ecx
0x06ffe43f:  31 f6                    xorl     %esi, %esi
0x06ffe441:  3b 35 04 56 0f 00        cmpl     0xf5604, %esi
0x06ffe447:  7d 4d                    jge      0x6ffe496

----------------
IN: 
0x06ffe449:  8b 03                    movl     (%ebx), %eax
0x06ffe44b:  8b 53 04                 movl     4(%ebx), %edx
0x06ffe44e:  89 c7                    movl     %eax, %edi
0x06ffe450:  89 d5                    movl     %edx, %ebp
0x06ffe452:  03 7b 08                 addl     8(%ebx), %edi
0x06ffe455:  13 6b 0c                 adcl     0xc(%ebx), %ebp
0x06ffe458:  89 3c 24                 movl     %edi, (%esp)
0x06ffe45b:  89 6c 24 04              movl     %ebp, 4(%esp)
0x06ffe45f:  8b 4b 10                 movl     0x10(%ebx), %ecx
0x06ffe462:  8d 69 ff                 leal     -1(%ecx), %ebp
0x06ffe465:  bf dd 36 0f 00           movl     $0xf36dd, %edi
0x06ffe46a:  83 fd 04                 cmpl     $4, %ebp
0x06ffe46d:  77 07                    ja       0x6ffe476

----------------
IN: 
0x06ffe46f:  8b 3c ad 88 ef ff 06     movl     0x6ffef88(, %ebp, 4), %edi
0x06ffe476:  57                       pushl    %edi
0x06ffe477:  51                       pushl    %ecx
0x06ffe478:  ff 74 24 0c              pushl    0xc(%esp)
0x06ffe47c:  ff 74 24 0c              pushl    0xc(%esp)
0x06ffe480:  52                       pushl    %edx
0x06ffe481:  50                       pushl    %eax
0x06ffe482:  56                       pushl    %esi
0x06ffe483:  68 83 3f 0f 00           pushl    $0xf3f83
0x06ffe488:  e8 d2 d7 0e f9           calll    0xebc5f

----------------
IN: 
0x06ffe48d:  46                       incl     %esi
0x06ffe48e:  83 c3 14                 addl     $0x14, %ebx
0x06ffe491:  83 c4 20                 addl     $0x20, %esp
0x06ffe494:  eb ab                    jmp      0x6ffe441

----------------
IN: 
0x06ffe441:  3b 35 04 56 0f 00        cmpl     0xf5604, %esi
0x06ffe447:  7d 4d                    jge      0x6ffe496

----------------
IN: 
0x06ffe496:  c7 05 28 62 0f 00 02 00  movl     $2, 0xf6228
0x06ffe49e:  00 00
0x06ffe4a0:  ba 00 00 01 00           movl     $0x10000, %edx
0x06ffe4a5:  b8 00 00 0f 00           movl     $0xf0000, %eax
0x06ffe4aa:  e8 d5 ba 0e f9           calll    0xe9f84

----------------
IN: 
0x06ffe4af:  28 05 ff ff 0f 00        subb     %al, 0xfffff
0x06ffe4b5:  e8 66 ee 0e f9           calll    0xed320

----------------
IN: 
0x000ed320:  53                       pushl    %ebx
0x000ed321:  e8 f4 bb ff ff           calll    0xe8f1a

----------------
IN: 
0x000ed326:  85 c0                    testl    %eax, %eax
0x000ed328:  75 3e                    jne      0xed368

----------------
IN: 
0x000ed32a:  8b 1d f8 49 0f 00        movl     0xf49f8, %ebx
0x000ed330:  85 db                    testl    %ebx, %ebx
0x000ed332:  79 0d                    jns      0xed341

----------------
IN: 
0x000ed341:  0f b7 db                 movzwl   %bx, %ebx
0x000ed344:  ba 02 00 00 00           movl     $2, %edx
0x000ed349:  89 d8                    movl     %ebx, %eax
0x000ed34b:  e8 b9 be ff ff           calll    0xe9209

----------------
IN: 
0x000ed350:  ba 59 00 00 00           movl     $0x59, %edx
0x000ed355:  66 3d 37 12              cmpw     $0x1237, %ax
0x000ed359:  74 05                    je       0xed360

----------------
IN: 
0x000ed360:  89 d8                    movl     %ebx, %eax
0x000ed362:  5b                       popl     %ebx
0x000ed363:  e9 96 bf ff ff           jmp      0xe92fe

----------------
IN: 
0x000e92fe:  55                       pushl    %ebp
0x000e92ff:  57                       pushl    %edi
0x000e9300:  56                       pushl    %esi
0x000e9301:  53                       pushl    %ebx
0x000e9302:  83 ec 10                 subl     $0x10, %esp
0x000e9305:  89 d6                    movl     %edx, %esi
0x000e9307:  0f 09                    wbinvd   
0x000e9309:  89 d3                    movl     %edx, %ebx
0x000e930b:  83 e3 fc                 andl     $0xfffffffc, %ebx
0x000e930e:  0f b7 c0                 movzwl   %ax, %eax
0x000e9311:  89 04 24                 movl     %eax, (%esp)
0x000e9314:  89 da                    movl     %ebx, %edx
0x000e9316:  e8 ba fe ff ff           calll    0xe91d5

----------------
IN: 
0x000e931b:  89 44 24 08              movl     %eax, 8(%esp)
0x000e931f:  8d 43 04                 leal     4(%ebx), %eax
0x000e9322:  89 44 24 04              movl     %eax, 4(%esp)
0x000e9326:  89 c2                    movl     %eax, %edx
0x000e9328:  8b 04 24                 movl     (%esp), %eax
0x000e932b:  e8 a5 fe ff ff           calll    0xe91d5

----------------
IN: 
0x000e9330:  89 44 24 0c              movl     %eax, 0xc(%esp)
0x000e9334:  83 e6 03                 andl     $3, %esi
0x000e9337:  89 f2                    movl     %esi, %edx
0x000e9339:  8d 7c 34 08              leal     8(%esp, %esi), %edi
0x000e933d:  e8 62 ff ff ff           calll    0xe92a4

----------------
IN: 
0x000e9342:  89 c1                    movl     %eax, %ecx
0x000e9344:  3d ff 7f 0c 00           cmpl     $0xc7fff, %eax
0x000e9349:  b8 00 00 00 00           movl     $0, %eax
0x000e934e:  77 10                    ja       0xe9360

----------------
IN: 
0x000e9360:  c6 44 07 01 11           movb     $0x11, 1(%edi, %eax)
0x000e9365:  40                       incl     %eax
0x000e9366:  83 f8 06                 cmpl     $6, %eax
0x000e9369:  74 17                    je       0xe9382

----------------
IN: 
0x000e936b:  89 c6                    movl     %eax, %esi
0x000e936d:  c1 e6 0f                 shll     $0xf, %esi
0x000e9370:  8d ae 00 80 0c 00        leal     0xc8000(%esi), %ebp
0x000e9376:  39 e9                    cmpl     %ebp, %ecx
0x000e9378:  73 e6                    jae      0xe9360

----------------
IN: 
0x000e937a:  81 c6 00 40 0c 00        addl     $0xc4000, %esi
0x000e9380:  eb d3                    jmp      0xe9355

----------------
IN: 
0x000e9355:  39 f1                    cmpl     %esi, %ecx
0x000e9357:  72 29                    jb       0xe9382

----------------
IN: 
0x000e9359:  c6 44 07 01 31           movb     $0x31, 1(%edi, %eax)
0x000e935e:  eb 22                    jmp      0xe9382

----------------
IN: 
0x000e9382:  c6 44 14 08 10           movb     $0x10, 8(%esp, %edx)
0x000e9387:  8b 4c 24 08              movl     8(%esp), %ecx
0x000e938b:  89 da                    movl     %ebx, %edx
0x000e938d:  8b 04 24                 movl     (%esp), %eax
0x000e9390:  e8 79 fd ff ff           calll    0xe910e

----------------
IN: 
0x000e9395:  8b 4c 24 0c              movl     0xc(%esp), %ecx
0x000e9399:  8b 54 24 04              movl     4(%esp), %edx
0x000e939d:  8b 04 24                 movl     (%esp), %eax
0x000e93a0:  83 c4 10                 addl     $0x10, %esp
0x000e93a3:  5b                       popl     %ebx
0x000e93a4:  5e                       popl     %esi
0x000e93a5:  5f                       popl     %edi
0x000e93a6:  5d                       popl     %ebp
0x000e93a7:  e9 62 fd ff ff           jmp      0xe910e

----------------
IN: 
0x06ffe4ba:  81 c4 28 01 00 00        addl     $0x128, %esp
0x06ffe4c0:  5b                       popl     %ebx
0x06ffe4c1:  5e                       popl     %esi
0x06ffe4c2:  5f                       popl     %edi
0x06ffe4c3:  5d                       popl     %ebp
0x06ffe4c4:  e9 57 0f 0f f9           jmp      0xef420

----------------
IN: 
0x000ef420:  83 ec 28                 subl     $0x28, %esp
0x000ef423:  b9 00 90 08 00           movl     $0x89000, %ecx
0x000ef428:  31 d2                    xorl     %edx, %edx
0x000ef42a:  b8 00 70 00 00           movl     $0x7000, %eax
0x000ef42f:  e8 26 ac ff ff           calll    0xea05a

----------------
IN: 
0x000ef434:  b9 26 00 00 00           movl     $0x26, %ecx
0x000ef439:  8d 44 24 02              leal     2(%esp), %eax
0x000ef43d:  e8 18 ac ff ff           calll    0xea05a

----------------
IN: 
0x000ef442:  66 c7 44 24 26 00 02     movw     $0x200, 0x26(%esp)
0x000ef449:  ba 6b fa 0f 00           movl     $0xffa6b, %edx
0x000ef44e:  0f b7 d2                 movzwl   %dx, %edx
0x000ef451:  e8 60 c7 ff ff           calll    0xebbb6

Servicing hardware INT=0x08
----------------
IN: 
0x000ffa6b:  cd 19                    int      $0x19

----------------
IN: 
0x000fe6f2:  e9 5a ed                 jmp      0xfd44f

----------------
IN: 
0x000fd44f:  31 d2                    xorw     %dx, %dx
0x000fd451:  8e d2                    movw     %dx, %ss

----------------
IN: 
0x000fd453:  66 bc 00 70 00 00        movl     $0x7000, %esp

----------------
IN: 
0x000fd459:  66 ba 6b f5 0e 00        movl     $0xef56b, %edx
0x000fd45f:  e9 a9 17                 jmp      0xfec0b

----------------
IN: 
0x000fec0b:  fa                       cli      
0x000fec0c:  fc                       cld      
0x000fec0d:  66 89 c1                 movl     %eax, %ecx
0x000fec10:  66 b8 8f 00 00 00        movl     $0x8f, %eax
0x000fec16:  e6 70                    outb     %al, $0x70

----------------
IN: 
0x000fec18:  e4 71                    inb      $0x71, %al

----------------
IN: 
0x000fec1a:  e4 92                    inb      $0x92, %al

----------------
IN: 
0x000fec1c:  0c 02                    orb      $2, %al
0x000fec1e:  e6 92                    outb     %al, $0x92

----------------
IN: 
0x000fec20:  66 89 c8                 movl     %ecx, %eax
0x000fec23:  2e 0f 01 1e 18 62        lidtw    %cs:0x6218
0x000fec29:  2e 0f 01 16 d8 61        lgdtw    %cs:0x61d8
0x000fec2f:  0f 20 c1                 movl     %cr0, %ecx

----------------
IN: 
0x000fec48:  b9 10 00 00 00           movl     $0x10, %ecx
0x000fec4d:  8e d9                    movl     %ecx, %ds

----------------
IN: 
0x000fec4f:  8e c1                    movl     %ecx, %es

----------------
IN: 
0x000ef56b:  68 00 48 0f 00           pushl    $0xf4800
0x000ef570:  68 83 42 0f 00           pushl    $0xf4283
0x000ef575:  e8 e5 c6 ff ff           calll    0xebc5f

----------------
IN: 
0x000ef57a:  68 8e 42 0f 00           pushl    $0xf428e
0x000ef57f:  e8 db c6 ff ff           calll    0xebc5f

----------------
IN: 
0x000ef584:  31 c0                    xorl     %eax, %eax
0x000ef586:  a3 58 86 0e 00           movl     %eax, 0xe8658
0x000ef58b:  83 c4 0c                 addl     $0xc, %esp
0x000ef58e:  31 c0                    xorl     %eax, %eax
0x000ef590:  e9 f2 f9 ff ff           jmp      0xeef87

----------------
IN: 
0x000eef87:  56                       pushl    %esi
0x000eef88:  53                       pushl    %ebx
0x000eef89:  83 ec 28                 subl     $0x28, %esp
0x000eef8c:  39 05 e8 4c 0f 00        cmpl     %eax, 0xf4ce8
0x000eef92:  0f 8e 2e 01 00 00        jle      0xef0c6

----------------
IN: 
0x000eef98:  8b 14 c5 00 4d 0f 00     movl     0xf4d00(, %eax, 8), %edx
0x000eef9f:  83 fa 03                 cmpl     $3, %edx
0x000eefa2:  74 60                    je       0xef004

----------------
IN: 
0x000eefa4:  7f 24                    jg       0xeefca

----------------
IN: 
0x000eefa6:  83 fa 01                 cmpl     $1, %edx
0x000eefa9:  74 3c                    je       0xeefe7

----------------
IN: 
0x000eefab:  83 fa 02                 cmpl     $2, %edx
0x000eefae:  0f 85 17 01 00 00        jne      0xef0cb

----------------
IN: 
0x000eefb4:  68 19 30 0f 00           pushl    $0xf3019
0x000eefb9:  e8 ae ec ff ff           calll    0xedc6c

----------------
IN: 
0x000eb823:  83 3d 28 62 0f 00 01     cmpl     $1, 0xf6228
0x000eb82a:  74 05                    je       0xeb831

----------------
IN: 
0x000eb82c:  b9 7f cf 0f 00           movl     $0xfcf7f, %ecx
0x000eb831:  89 f0                    movl     %esi, %eax
0x000eb833:  ba 56 62 00 00           movl     $0x6256, %edx
0x000eb838:  ff e1                    jmpl     *%ecx

----------------
IN: 
0x000fcf7f:  b9 20 00 00 00           movl     $0x20, %ecx
0x000fcf84:  8e d9                    movl     %ecx, %ds

----------------
IN: 
0x000fcf86:  8e c1                    movl     %ecx, %es

----------------
IN: 
0x000fcf88:  8e d1                    movl     %ecx, %ss

----------------
IN: 
0x000fcf8a:  8e e1                    movl     %ecx, %fs

----------------
IN: 
0x000fcf8c:  8e e9                    movl     %ecx, %gs
0x000fcf8e:  66 ea a9 cf 18 00        ljmpw    $0x18:$0xcfa9

----------------
IN: 
0x000eefbe:  ba 01 00 00 00           movl     $1, %edx
0x000eefc3:  b8 80 00 00 00           movl     $0x80, %eax
0x000eefc8:  eb 2f                    jmp      0xeeff9

----------------
IN: 
0x000eeff9:  e8 ee ed ff ff           calll    0xeddec

----------------
IN: 
0x000eddec:  56                       pushl    %esi
0x000edded:  53                       pushl    %ebx
0x000eddee:  83 ec 28                 subl     $0x28, %esp
0x000eddf1:  89 c3                    movl     %eax, %ebx
0x000eddf3:  89 d6                    movl     %edx, %esi
0x000eddf5:  b9 26 00 00 00           movl     $0x26, %ecx
0x000eddfa:  31 d2                    xorl     %edx, %edx
0x000eddfc:  8d 44 24 02              leal     2(%esp), %eax
0x000ede00:  e8 55 c2 ff ff           calll    0xea05a

----------------
IN: 
0x000ede05:  66 c7 44 24 26 00 02     movw     $0x200, 0x26(%esp)
0x000ede0c:  88 5c 24 16              movb     %bl, 0x16(%esp)
0x000ede10:  66 c7 44 24 04 c0 07     movw     $0x7c0, 4(%esp)
0x000ede17:  66 c7 44 24 1e 01 02     movw     $0x201, 0x1e(%esp)
0x000ede1e:  c6 44 24 1a 01           movb     $1, 0x1a(%esp)
0x000ede23:  ba 63 d0 0f 00           movl     $0xfd063, %edx
0x000ede28:  0f b7 d2                 movzwl   %dx, %edx
0x000ede2b:  e8 86 dd ff ff           calll    0xebbb6

----------------
IN: 
0x000fd063:  cd 13                    int      $0x13

----------------
IN: 
0x000fe3fe:  e9 0f f0                 jmp      0xfd410

----------------
IN: 
0x000fd410:  66 68 39 ba 00 00        pushl    $0xba39
0x000fd416:  e9 55 ff                 jmp      0xfd36e

----------------
IN: 
0x000fba39:  66 57                    pushl    %edi
0x000fba3b:  66 56                    pushl    %esi
0x000fba3d:  66 53                    pushl    %ebx
0x000fba3f:  67 8a 50 14              movb     0x14(%eax), %dl
0x000fba43:  66 bb 00 d9 00 00        movl     $0xd900, %ebx
0x000fba49:  67 80 78 1d 4b           cmpb     $0x4b, 0x1d(%eax)
0x000fba4e:  75 3d                    jne      0xfba8d

----------------
IN: 
0x000fba8d:  8e c3                    movw     %bx, %es
0x000fba8f:  26 8a 0e ad f6           movb     %es:0xf6ad, %cl
0x000fba94:  84 c9                    testb    %cl, %cl
0x000fba96:  74 36                    je       0xfbace

----------------
IN: 
0x000fbace:  66 0f b6 d2              movzbl   %dl, %edx
0x000fbad2:  66 5b                    popl     %ebx
0x000fbad4:  66 5e                    popl     %esi
0x000fbad6:  66 5f                    popl     %edi
0x000fbad8:  e9 4b fc                 jmp      0xfb726

----------------
IN: 
0x000fb726:  84 d2                    testb    %dl, %dl
0x000fb728:  78 37                    js       0xfb761

----------------
IN: 
0x000fb761:  80 fa df                 cmpb     $0xdf, %dl
0x000fb764:  76 10                    jbe      0xfb776

----------------
IN: 
0x000fb776:  67 66 8d 4a 80           leal     -0x80(%edx), %ecx
0x000fb77b:  80 f9 0f                 cmpb     $0xf, %cl
0x000fb77e:  77 1a                    ja       0xfb79a

----------------
IN: 
0x000fb780:  66 83 ea 70              subl     $0x70, %edx
0x000fb784:  66 0f b6 d2              movzbl   %dl, %edx
0x000fb788:  2e 67 66 8b 14 95 00 61  movl     %cs:0x6100(, %edx, 4), %edx
0x000fb790:  00 00
0x000fb792:  66 85 d2                 testl    %edx, %edx
0x000fb795:  74 03                    je       0xfb79a

----------------
IN: 
0x000fb797:  e9 7d 3d                 jmp      0xff517

----------------
IN: 
0x000ff517:  66 53                    pushl    %ebx
0x000ff519:  66 89 c3                 movl     %eax, %ebx
0x000ff51c:  66 b9 40 00 00 00        movl     $0x40, %ecx
0x000ff522:  8e c1                    movw     %cx, %es
0x000ff524:  66 31 c0                 xorl     %eax, %eax
0x000ff527:  26 a2 8e 00              movb     %al, %es:0x8e
0x000ff52b:  67 8a 43 1d              movb     0x1d(%ebx), %al
0x000ff52f:  3c 14                    cmpb     $0x14, %al
0x000ff531:  0f 84 48 01              je       0xff67d

----------------
IN: 
0x000ff535:  77 6a                    ja       0xff5a1

----------------
IN: 
0x000ff537:  3c 08                    cmpb     $8, %al
0x000ff539:  0f 84 1e 01              je       0xff65b

----------------
IN: 
0x000ff53d:  77 30                    ja       0xff56f

----------------
IN: 
0x000ff53f:  3c 03                    cmpb     $3, %al
0x000ff541:  0f 84 00 01              je       0xff645

----------------
IN: 
0x000ff545:  77 14                    ja       0xff55b

----------------
IN: 
0x000ff547:  3c 01                    cmpb     $1, %al
0x000ff549:  0f 84 be 00              je       0xff60b

----------------
IN: 
0x000ff54d:  3c 02                    cmpb     $2, %al
0x000ff54f:  0f 84 ea 00              je       0xff63d

----------------
IN: 
0x000ff63d:  66 b9 02 00 00 00        movl     $2, %ecx
0x000ff643:  eb 06                    jmp      0xff64b

----------------
IN: 
0x000ff64b:  66 89 d8                 movl     %ebx, %eax
0x000ff64e:  66 5b                    popl     %ebx
0x000ff650:  e9 68 bd                 jmp      0xfb3bb

----------------
IN: 
0x000fb3bb:  66 57                    pushl    %edi
0x000fb3bd:  66 56                    pushl    %esi
0x000fb3bf:  66 53                    pushl    %ebx
0x000fb3c1:  66 83 ec 18              subl     $0x18, %esp
0x000fb3c5:  66 89 c3                 movl     %eax, %ebx
0x000fb3c8:  66 89 d7                 movl     %edx, %edi
0x000fb3cb:  67 66 89 54 24 08        movl     %edx, 8(%esp)
0x000fb3d1:  67 88 4c 24 0c           movb     %cl, 0xc(%esp)
0x000fb3d6:  67 8a 40 1c              movb     0x1c(%eax), %al
0x000fb3da:  67 88 44 24 03           movb     %al, 3(%esp)
0x000fb3df:  67 66 0f b6 53 19        movzbl   0x19(%ebx), %edx
0x000fb3e5:  67 8a 4b 18              movb     0x18(%ebx), %cl
0x000fb3e9:  88 c8                    movb     %cl, %al
0x000fb3eb:  66 83 e0 3f              andl     $0x3f, %eax
0x000fb3ef:  67 88 44 24 01           movb     %al, 1(%esp)
0x000fb3f4:  67 8a 43 15              movb     0x15(%ebx), %al
0x000fb3f8:  67 88 44 24 02           movb     %al, 2(%esp)
0x000fb3fd:  67 8a 44 24 03           movb     3(%esp), %al
0x000fb402:  fe c8                    decb     %al
0x000fb404:  78 08                    js       0xfb40e

----------------
IN: 
0x000fb406:  67 80 7c 24 01 00        cmpb     $0, 1(%esp)
0x000fb40c:  75 09                    jne      0xfb417

----------------
IN: 
0x000fb417:  67 66 8d 34 8d 00 00 00  leal     (, %ecx, 4), %esi
0x000fb41f:  00
0x000fb420:  81 e6 00 03              andw     $0x300, %si
0x000fb424:  66 09 d6                 orl      %edx, %esi
0x000fb427:  67 66 0f b6 44 24 03     movzbl   3(%esp), %eax
0x000fb42e:  67 89 44 24 0e           movw     %ax, 0xe(%esp)
0x000fb433:  66 89 f8                 movl     %edi, %eax
0x000fb436:  66 e8 b0 b9 ff ff        calll    0xf6dec

----------------
IN: 
0x000f6dec:  66 89 c2                 movl     %eax, %edx
0x000f6def:  2e 66 a1 e8 60           movl     %cs:0x60e8, %eax
0x000f6df4:  66 39 c2                 cmpl     %eax, %edx
0x000f6df7:  75 47                    jne      0xf6e40

----------------
IN: 
0x000f6e40:  66 53                    pushl    %ebx
0x000f6e42:  67 66 8d 42 04           leal     4(%edx), %eax
0x000f6e47:  66 89 c1                 movl     %eax, %ecx
0x000f6e4a:  66 c1 e9 04              shrl     $4, %ecx
0x000f6e4e:  8e c1                    movw     %cx, %es
0x000f6e50:  66 83 e0 0f              andl     $0xf, %eax
0x000f6e54:  26 67 8b 08              movw     %es:(%eax), %cx
0x000f6e58:  67 66 8d 42 02           leal     2(%edx), %eax
0x000f6e5d:  66 89 c3                 movl     %eax, %ebx
0x000f6e60:  66 c1 eb 04              shrl     $4, %ebx
0x000f6e64:  8e c3                    movw     %bx, %es
0x000f6e66:  66 83 e0 0f              andl     $0xf, %eax
0x000f6e6a:  26 67 8b 00              movw     %es:(%eax), %ax
0x000f6e6e:  66 83 c2 06              addl     $6, %edx
0x000f6e72:  66 89 d3                 movl     %edx, %ebx
0x000f6e75:  66 c1 eb 04              shrl     $4, %ebx
0x000f6e79:  8e c3                    movw     %bx, %es
0x000f6e7b:  66 83 e2 0f              andl     $0xf, %edx
0x000f6e7f:  26 67 8b 12              movw     %es:(%edx), %dx
0x000f6e83:  66 c1 e1 10              shll     $0x10, %ecx
0x000f6e87:  66 0f b7 c0              movzwl   %ax, %eax
0x000f6e8b:  66 09 c8                 orl      %ecx, %eax
0x000f6e8e:  66 0f b7 d2              movzwl   %dx, %edx
0x000f6e92:  66 5b                    popl     %ebx
0x000f6e94:  66 c3                    retl     

----------------
IN: 
0x000fb43c:  66 89 c7                 movl     %eax, %edi
0x000fb43f:  67 66 0f b6 44 24 02     movzbl   2(%esp), %eax
0x000fb446:  39 f8                    cmpw     %di, %ax
0x000fb448:  0f 93 c1                 setae    %cl
0x000fb44b:  67 66 0f b6 44 24 01     movzbl   1(%esp), %eax
0x000fb452:  39 c2                    cmpw     %ax, %dx
0x000fb454:  0f 92 c0                 setb     %al
0x000fb457:  08 c8                    orb      %cl, %al
0x000fb459:  75 0b                    jne      0xfb466

----------------
IN: 
0x000fb45b:  66 89 f8                 movl     %edi, %eax
0x000fb45e:  66 c1 e8 10              shrl     $0x10, %eax
0x000fb462:  39 c6                    cmpw     %ax, %si
0x000fb464:  72 08                    jb       0xfb46e

----------------
IN: 
0x000fb46e:  66 0f bf f6              movswl   %si, %esi
0x000fb472:  66 0f b7 ff              movzwl   %di, %edi
0x000fb476:  66 0f af f7              imull    %edi, %esi
0x000fb47a:  67 66 0f b6 44 24 02     movzbl   2(%esp), %eax
0x000fb481:  66 01 c6                 addl     %eax, %esi
0x000fb484:  66 0f b7 d2              movzwl   %dx, %edx
0x000fb488:  66 0f af f2              imull    %edx, %esi
0x000fb48c:  67 66 0f b6 4c 24 01     movzbl   1(%esp), %ecx
0x000fb493:  67 66 8d 44 0e ff        leal     -1(%esi, %ecx), %eax
0x000fb499:  67 66 89 44 24 10        movl     %eax, 0x10(%esp)
0x000fb49f:  66 31 c0                 xorl     %eax, %eax
0x000fb4a2:  67 66 89 44 24 14        movl     %eax, 0x14(%esp)
0x000fb4a8:  67 66 0f b7 43 02        movzwl   2(%ebx), %eax
0x000fb4ae:  66 c1 e0 04              shll     $4, %eax
0x000fb4b2:  67 66 0f b7 53 10        movzwl   0x10(%ebx), %edx
0x000fb4b8:  66 01 d0                 addl     %edx, %eax
0x000fb4bb:  67 66 89 44 24 04        movl     %eax, 4(%esp)
0x000fb4c1:  67 66 8d 44 24 04        leal     4(%esp), %eax
0x000fb4c7:  66 e8 06 f9 ff ff        calll    0xfadd3

----------------
IN: 
0x000fadd3:  66 55                    pushl    %ebp
0x000fadd5:  66 57                    pushl    %edi
0x000fadd7:  66 56                    pushl    %esi
0x000fadd9:  66 53                    pushl    %ebx
0x000faddb:  66 51                    pushl    %ecx
0x000faddd:  66 89 c6                 movl     %eax, %esi
0x000fade0:  67 66 0f b7 78 0a        movzwl   0xa(%eax), %edi
0x000fade6:  67 66 8b 58 04           movl     4(%eax), %ebx
0x000fadeb:  67 66 8d 43 1a           leal     0x1a(%ebx), %eax
0x000fadf0:  66 89 c2                 movl     %eax, %edx
0x000fadf3:  66 c1 ea 04              shrl     $4, %edx
0x000fadf7:  8e c2                    movw     %dx, %es
0x000fadf9:  66 83 e0 0f              andl     $0xf, %eax
0x000fadfd:  26 67 8b 00              movw     %es:(%eax), %ax
0x000fae01:  66 0f b7 c0              movzwl   %ax, %eax
0x000fae05:  66 0f af c7              imull    %edi, %eax
0x000fae09:  66 3d 00 00 01 00        cmpl     $0x10000, %eax
0x000fae0f:  7e 0f                    jle      0xfae20

----------------
IN: 
0x000fae20:  66 89 d8                 movl     %ebx, %eax
0x000fae23:  66 c1 e8 04              shrl     $4, %eax
0x000fae27:  8e c0                    movw     %ax, %es
0x000fae29:  66 89 d8                 movl     %ebx, %eax
0x000fae2c:  66 83 e0 0f              andl     $0xf, %eax
0x000fae30:  26 67 8a 00              movb     %es:(%eax), %al
0x000fae34:  3c 30                    cmpb     $0x30, %al
0x000fae36:  0f 84 05 02              je       0xfb03f

----------------
IN: 
0x000fae3a:  77 0d                    ja       0xfae49

----------------
IN: 
0x000fae3c:  3c 10                    cmpb     $0x10, %al
0x000fae3e:  74 12                    je       0xfae52

----------------
IN: 
0x000fae40:  3c 20                    cmpb     $0x20, %al
0x000fae42:  0f 84 ab 00              je       0xfaef1

----------------
IN: 
0x000faef1:  67 8a 46 08              movb     8(%esi), %al
0x000faef5:  3c 03                    cmpb     $3, %al
0x000faef7:  74 3e                    je       0xfaf37

----------------
IN: 
0x000faef9:  77 0e                    ja       0xfaf09

----------------
IN: 
0x000faefb:  84 c0                    testb    %al, %al
0x000faefd:  74 4a                    je       0xfaf49

----------------
IN: 
0x000faeff:  66 31 d2                 xorl     %edx, %edx
0x000faf02:  3c 02                    cmpb     $2, %al
0x000faf04:  74 37                    je       0xfaf3d

----------------
IN: 
0x000faf3d:  66 89 f0                 movl     %esi, %eax
0x000faf40:  66 e8 77 fb ff ff        calll    0xfaabd

----------------
IN: 
0x000faabd:  66 55                    pushl    %ebp
0x000faabf:  66 57                    pushl    %edi
0x000faac1:  66 56                    pushl    %esi
0x000faac3:  66 53                    pushl    %ebx
0x000faac5:  66 83 ec 18              subl     $0x18, %esp
0x000faac9:  66 89 c3                 movl     %eax, %ebx
0x000faacc:  66 89 d5                 movl     %edx, %ebp
0x000faacf:  67 66 8b 70 0c           movl     0xc(%eax), %esi
0x000faad4:  67 66 8b 78 10           movl     0x10(%eax), %edi
0x000faad9:  66 b9 0c 00 00 00        movl     $0xc, %ecx
0x000faadf:  66 31 d2                 xorl     %edx, %edx
0x000faae2:  67 66 8d 44 24 0c        leal     0xc(%esp), %eax
0x000faae8:  66 e8 99 c5 ff ff        calll    0xf7087

----------------
IN: 
0x000faaee:  67 66 0f b7 43 0a        movzwl   0xa(%ebx), %eax
0x000faaf4:  67 89 44 24 02           movw     %ax, 2(%esp)
0x000faaf9:  3d ff 00                 cmpw     $0xff, %ax
0x000faafc:  77 36                    ja       0xfab34

----------------
IN: 
0x000faafe:  66 89 f2                 movl     %esi, %edx
0x000fab01:  66 89 f9                 movl     %edi, %ecx
0x000fab04:  66 01 c2                 addl     %eax, %edx
0x000fab07:  66 83 d1 00              adcl     $0, %ecx
0x000fab0b:  67 66 89 54 24 04        movl     %edx, 4(%esp)
0x000fab11:  67 66 89 4c 24 08        movl     %ecx, 8(%esp)
0x000fab17:  66 b8 ff ff ff 0f        movl     $0xfffffff, %eax
0x000fab1d:  67 66 8b 4c 24 04        movl     4(%esp), %ecx
0x000fab23:  66 39 c8                 cmpl     %ecx, %eax
0x000fab26:  66 b8 00 00 00 00        movl     $0, %eax
0x000fab2c:  67 66 1b 44 24 08        sbbl     8(%esp), %eax
0x000fab32:  73 46                    jae      0xfab7a

----------------
IN: 
0x000fab7a:  66 83 fd 01              cmpl     $1, %ebp
0x000fab7e:  66 19 c0                 sbbl     %eax, %eax
0x000fab81:  66 83 e0 f0              andl     $0xfffffff0, %eax
0x000fab85:  66 83 c0 30              addl     $0x30, %eax
0x000fab89:  67 88 44 24 12           movb     %al, 0x12(%esp)
0x000fab8e:  67 8a 44 24 02           movb     2(%esp), %al
0x000fab93:  67 88 44 24 0d           movb     %al, 0xd(%esp)
0x000fab98:  67 89 74 24 0e           movw     %si, 0xe(%esp)
0x000fab9d:  66 89 f0                 movl     %esi, %eax
0x000faba0:  66 89 fa                 movl     %edi, %edx
0x000faba3:  66 0f ac d0 10           shrdl    $0x10, %edx, %eax
0x000faba8:  66 c1 ea 10              shrl     $0x10, %edx
0x000fabac:  67 88 44 24 10           movb     %al, 0x10(%esp)
0x000fabb1:  66 0f ac fe 18           shrdl    $0x18, %edi, %esi
0x000fabb6:  66 c1 ef 18              shrl     $0x18, %edi
0x000fabba:  66 83 e6 0f              andl     $0xf, %esi
0x000fabbe:  66 89 f0                 movl     %esi, %eax
0x000fabc1:  66 83 c8 40              orl      $0x40, %eax
0x000fabc5:  67 88 44 24 11           movb     %al, 0x11(%esp)
0x000fabca:  67 66 8b 4b 04           movl     4(%ebx), %ecx
0x000fabcf:  2e 67 66 8b 81 2c 00 f1  movl     %cs:-0xeffd4(%ecx), %eax
0x000fabd7:  ff
0x000fabd8:  2e 67 8b b8 00 00 f1 ff  movw     %cs:-0xf0000(%eax), %di
0x000fabe0:  2e 67 8b b0 02 00 f1 ff  movw     %cs:-0xefffe(%eax), %si
0x000fabe8:  66 83 c6 02              addl     $2, %esi
0x000fabec:  b0 0a                    movb     $0xa, %al
0x000fabee:  66 89 f2                 movl     %esi, %edx
0x000fabf1:  ee                       outb     %al, %dx

----------------
IN: 
0x000fabf2:  67 66 8d 54 24 0c        leal     0xc(%esp), %edx
0x000fabf8:  66 89 c8                 movl     %ecx, %eax
0x000fabfb:  66 e8 5d fc ff ff        calll    0xfa85e

----------------
IN: 
0x000fa85e:  66 55                    pushl    %ebp
0x000fa860:  66 57                    pushl    %edi
0x000fa862:  66 56                    pushl    %esi
0x000fa864:  66 53                    pushl    %ebx
0x000fa866:  66 83 ec 08              subl     $8, %esp
0x000fa86a:  66 89 d6                 movl     %edx, %esi
0x000fa86d:  2e 67 66 8b 90 2c 00 f1  movl     %cs:-0xeffd4(%eax), %edx
0x000fa875:  ff
0x000fa876:  2e 67 8a 98 30 00 f1 ff  movb     %cs:-0xeffd0(%eax), %bl
0x000fa87e:  2e 67 8b aa 00 00 f1 ff  movw     %cs:-0xf0000(%edx), %bp
0x000fa886:  66 0f b7 fd              movzwl   %bp, %edi
0x000fa88a:  66 89 f8                 movl     %edi, %eax
0x000fa88d:  66 e8 3f ff ff ff        calll    0xfa7d2

----------------
IN: 
0x000fa7d2:  66 0f b7 c8              movzwl   %ax, %ecx
0x000fa7d6:  66 31 d2                 xorl     %edx, %edx
0x000fa7d9:  66 b8 80 00 00 00        movl     $0x80, %eax
0x000fa7df:  e9 7f ff                 jmp      0xfa761

----------------
IN: 
0x000fa761:  66 55                    pushl    %ebp
0x000fa763:  66 57                    pushl    %edi
0x000fa765:  66 56                    pushl    %esi
0x000fa767:  66 53                    pushl    %ebx
0x000fa769:  66 89 c6                 movl     %eax, %esi
0x000fa76c:  66 89 d7                 movl     %edx, %edi
0x000fa76f:  66 89 cd                 movl     %ecx, %ebp
0x000fa772:  66 b8 00 7d 00 00        movl     $0x7d00, %eax
0x000fa778:  66 e8 3d ce ff ff        calll    0xf75bb

----------------
IN: 
0x000f75bb:  66 53                    pushl    %ebx
0x000f75bd:  66 89 c3                 movl     %eax, %ebx
0x000f75c0:  66 e8 58 ff ff ff        calll    0xf751e

----------------
IN: 
0x000f751e:  2e 8b 16 98 60           movw     %cs:0x6098, %dx
0x000f7523:  85 d2                    testw    %dx, %dx
0x000f7525:  75 1b                    jne      0xf7542

----------------
IN: 
0x000f7542:  66 b9 00 d9 00 00        movl     $0xd900, %ecx
0x000f7548:  83 fa 40                 cmpw     $0x40, %dx
0x000f754b:  74 2a                    je       0xf7577

----------------
IN: 
0x000f754d:  66 ed                    inl      %dx, %eax

----------------
IN: 
0x000f754f:  8e c1                    movw     %cx, %es
0x000f7551:  26 66 8b 16 74 f6        movl     %es:0xf674, %edx
0x000f7557:  66 31 d0                 xorl     %edx, %eax
0x000f755a:  66 25 ff ff ff 00        andl     $0xffffff, %eax
0x000f7560:  66 31 d0                 xorl     %edx, %eax
0x000f7563:  66 39 d0                 cmpl     %edx, %eax
0x000f7566:  73 06                    jae      0xf756e

----------------
IN: 
0x000f756e:  8e c1                    movw     %cx, %es
0x000f7570:  26 66 a3 74 f6           movl     %eax, %es:0xf674
0x000f7575:  66 c3                    retl     

----------------
IN: 
0x000f75c6:  2e 66 8b 16 9c 60        movl     %cs:0x609c, %edx
0x000f75cc:  66 0f af da              imull    %edx, %ebx
0x000f75d0:  66 01 d8                 addl     %ebx, %eax
0x000f75d3:  66 5b                    popl     %ebx
0x000f75d5:  66 c3                    retl     

----------------
IN: 
0x000fa77e:  66 89 c3                 movl     %eax, %ebx
0x000fa781:  67 66 8d 55 07           leal     7(%ebp), %edx
0x000fa786:  ec                       inb      %dx, %al

----------------
IN: 
0x000fa787:  66 89 f2                 movl     %esi, %edx
0x000fa78a:  66 21 c2                 andl     %eax, %edx
0x000fa78d:  66 89 f9                 movl     %edi, %ecx
0x000fa790:  38 ca                    cmpb     %cl, %dl
0x000fa792:  75 06                    jne      0xfa79a

----------------
IN: 
0x000fa794:  66 0f b6 c0              movzbl   %al, %eax
0x000fa798:  eb 2e                    jmp      0xfa7c8

----------------
IN: 
0x000fa7c8:  66 5b                    popl     %ebx
0x000fa7ca:  66 5e                    popl     %esi
0x000fa7cc:  66 5f                    popl     %edi
0x000fa7ce:  66 5d                    popl     %ebp
0x000fa7d0:  66 c3                    retl     

----------------
IN: 
0x000fa893:  66 85 c0                 testl    %eax, %eax
0x000fa896:  0f 88 e2 00              js       0xfa97c

----------------
IN: 
0x000fa89a:  67 8a 56 05              movb     5(%esi), %dl
0x000fa89e:  66 83 e2 4f              andl     $0x4f, %edx
0x000fa8a2:  80 fb 01                 cmpb     $1, %bl
0x000fa8a5:  66 19 c0                 sbbl     %eax, %eax
0x000fa8a8:  66 83 e0 f0              andl     $0xfffffff0, %eax
0x000fa8ac:  66 83 e8 50              subl     $0x50, %eax
0x000fa8b0:  66 09 d0                 orl      %edx, %eax
0x000fa8b3:  88 c1                    movb     %al, %cl
0x000fa8b5:  67 66 8d 55 06           leal     6(%ebp), %edx
0x000fa8ba:  ec                       inb      %dx, %al

----------------
IN: 
0x000fa8bb:  88 c3                    movb     %al, %bl
0x000fa8bd:  88 c8                    movb     %cl, %al
0x000fa8bf:  ee                       outb     %al, %dx

----------------
IN: 
0x000fa8c0:  66 31 d8                 xorl     %ebx, %eax
0x000fa8c3:  a8 10                    testb    $0x10, %al
0x000fa8c5:  75 6c                    jne      0xfa933

----------------
IN: 
0x000fa933:  66 89 f8                 movl     %edi, %eax
0x000fa936:  66 e8 a6 fe ff ff        calll    0xfa7e2

----------------
IN: 
0x000fa7e2:  66 56                    pushl    %esi
0x000fa7e4:  66 53                    pushl    %ebx
0x000fa7e6:  66 89 c6                 movl     %eax, %esi
0x000fa7e9:  66 e8 2f cd ff ff        calll    0xf751e

----------------
IN: 
0x000fa7ef:  66 89 c1                 movl     %eax, %ecx
0x000fa7f2:  2e 66 a1 9c 60           movl     %cs:0x609c, %eax
0x000fa7f7:  66 69 c0 90 01 00 00     imull    $0x190, %eax, %eax
0x000fa7fe:  66 05 3f 42 0f 00        addl     $0xf423f, %eax
0x000fa804:  66 bb 40 42 0f 00        movl     $0xf4240, %ebx
0x000fa80a:  66 31 d2                 xorl     %edx, %edx
0x000fa80d:  66 f7 f3                 divl     %ebx
0x000fa810:  67 66 8d 1c 08           leal     (%eax, %ecx), %ebx
0x000fa815:  66 89 d8                 movl     %ebx, %eax
0x000fa818:  66 e8 e9 cd ff ff        calll    0xf7607

----------------
IN: 
0x000f7607:  66 53                    pushl    %ebx
0x000f7609:  66 89 c3                 movl     %eax, %ebx
0x000f760c:  66 e8 0c ff ff ff        calll    0xf751e

----------------
IN: 
0x000f7612:  66 29 d8                 subl     %ebx, %eax
0x000f7615:  66 85 c0                 testl    %eax, %eax
0x000f7618:  0f 9f c0                 setg     %al
0x000f761b:  66 0f b6 c0              movzbl   %al, %eax
0x000f761f:  66 5b                    popl     %ebx
0x000f7621:  66 c3                    retl     

----------------
IN: 
0x000fa81e:  66 85 c0                 testl    %eax, %eax
0x000fa821:  75 04                    jne      0xfa827

----------------
IN: 
0x000fa827:  66 0f b7 c6              movzwl   %si, %eax
0x000fa82b:  66 5b                    popl     %ebx
0x000fa82d:  66 5e                    popl     %esi
0x000fa82f:  e9 a0 ff                 jmp      0xfa7d2

----------------
IN: 
0x000fa93c:  66 85 c0                 testl    %eax, %eax
0x000fa93f:  79 86                    jns      0xfa8c7

----------------
IN: 
0x000fa8c7:  67 8a 4e 06              movb     6(%esi), %cl
0x000fa8cb:  67 66 8d 45 01           leal     1(%ebp), %eax
0x000fa8d0:  67 89 44 24 02           movw     %ax, 2(%esp)
0x000fa8d5:  67 66 8d 7d 02           leal     2(%ebp), %edi
0x000fa8da:  67 66 8d 5d 03           leal     3(%ebp), %ebx
0x000fa8df:  67 66 8d 45 04           leal     4(%ebp), %eax
0x000fa8e4:  67 89 44 24 04           movw     %ax, 4(%esp)
0x000fa8e9:  67 66 8d 45 05           leal     5(%ebp), %eax
0x000fa8ee:  67 89 44 24 06           movw     %ax, 6(%esp)
0x000fa8f3:  66 89 c8                 movl     %ecx, %eax
0x000fa8f6:  66 25 ee 00 00 00        andl     $0xee, %eax
0x000fa8fc:  66 83 f8 24              cmpl     $0x24, %eax
0x000fa900:  75 41                    jne      0xfa943

----------------
IN: 
0x000fa943:  67 8a 06                 movb     (%esi), %al
0x000fa946:  67 8b 54 24 02           movw     2(%esp), %dx
0x000fa94b:  ee                       outb     %al, %dx

----------------
IN: 
0x000fa94c:  67 8a 46 01              movb     1(%esi), %al
0x000fa950:  66 89 fa                 movl     %edi, %edx
0x000fa953:  ee                       outb     %al, %dx

----------------
IN: 
0x000fa954:  67 8a 46 02              movb     2(%esi), %al
0x000fa958:  66 89 da                 movl     %ebx, %edx
0x000fa95b:  ee                       outb     %al, %dx

----------------
IN: 
0x000fa95c:  67 8a 46 03              movb     3(%esi), %al
0x000fa960:  67 66 8b 54 24 04        movl     4(%esp), %edx
0x000fa966:  ee                       outb     %al, %dx

----------------
IN: 
0x000fa967:  67 8a 46 04              movb     4(%esi), %al
0x000fa96b:  67 8b 54 24 06           movw     6(%esp), %dx
0x000fa970:  ee                       outb     %al, %dx

----------------
IN: 
0x000fa971:  67 66 8d 55 07           leal     7(%ebp), %edx
0x000fa976:  88 c8                    movb     %cl, %al
0x000fa978:  ee                       outb     %al, %dx

----------------
IN: 
0x000fa979:  66 31 c0                 xorl     %eax, %eax
0x000fa97c:  66 83 c4 08              addl     $8, %esp
0x000fa980:  66 5b                    popl     %ebx
0x000fa982:  66 5e                    popl     %esi
0x000fa984:  66 5f                    popl     %edi
0x000fa986:  66 5d                    popl     %ebp
0x000fa988:  66 c3                    retl     

----------------
IN: 
0x000fac01:  66 85 c0                 testl    %eax, %eax
0x000fac04:  74 0e                    je       0xfac14

----------------
IN: 
0x000fac14:  66 0f b7 c7              movzwl   %di, %eax
0x000fac18:  66 e8 14 fc ff ff        calll    0xfa832

----------------
IN: 
0x000fa832:  66 0f b7 c0              movzwl   %ax, %eax
0x000fa836:  66 e8 a6 ff ff ff        calll    0xfa7e2

----------------
IN: 
0x000fa83c:  66 85 c0                 testl    %eax, %eax
0x000fa83f:  78 1b                    js       0xfa85c

----------------
IN: 
0x000fa841:  a8 01                    testb    $1, %al
0x000fa843:  75 11                    jne      0xfa856

----------------
IN: 
0x000fa845:  66 83 e0 08              andl     $8, %eax
0x000fa849:  66 83 f8 01              cmpl     $1, %eax
0x000fa84d:  66 19 c0                 sbbl     %eax, %eax
0x000fa850:  66 83 e0 fb              andl     $0xfffffffb, %eax
0x000fa854:  66 c3                    retl     

----------------
IN: 
0x000fac1e:  66 85 c0                 testl    %eax, %eax
0x000fac21:  75 e3                    jne      0xfac06

----------------
IN: 
0x000fac23:  66 b9 00 02 00 00        movl     $0x200, %ecx
0x000fac29:  66 89 ea                 movl     %ebp, %edx
0x000fac2c:  66 89 d8                 movl     %ebx, %eax
0x000fac2f:  66 e8 55 fd ff ff        calll    0xfa98a

----------------
IN: 
0x000fa98a:  66 55                    pushl    %ebp
0x000fa98c:  66 57                    pushl    %edi
0x000fa98e:  66 56                    pushl    %esi
0x000fa990:  66 53                    pushl    %ebx
0x000fa992:  66 83 ec 18              subl     $0x18, %esp
0x000fa996:  66 89 c3                 movl     %eax, %ebx
0x000fa999:  67 66 89 54 24 08        movl     %edx, 8(%esp)
0x000fa99f:  67 66 89 4c 24 0c        movl     %ecx, 0xc(%esp)
0x000fa9a5:  67 66 8b 40 04           movl     4(%eax), %eax
0x000fa9aa:  2e 67 66 8b 80 2c 00 f1  movl     %cs:-0xeffd4(%eax), %eax
0x000fa9b2:  ff
0x000fa9b3:  2e 67 8b b0 00 00 f1 ff  movw     %cs:-0xf0000(%eax), %si
0x000fa9bb:  67 89 74 24 10           movw     %si, 0x10(%esp)
0x000fa9c0:  2e 67 8b 80 02 00 f1 ff  movw     %cs:-0xefffe(%eax), %ax
0x000fa9c8:  67 89 44 24 12           movw     %ax, 0x12(%esp)
0x000fa9cd:  67 66 0f b7 6b 0a        movzwl   0xa(%ebx), %ebp
0x000fa9d3:  67 66 8b 03              movl     (%ebx), %eax
0x000fa9d7:  67 66 89 04 24           movl     %eax, (%esp)
0x000fa9dc:  66 b9 02 00 00 00        movl     $2, %ecx
0x000fa9e2:  67 66 8b 44 24 0c        movl     0xc(%esp), %eax
0x000fa9e8:  66 99                    cltd     
0x000fa9ea:  66 f7 f9                 idivl    %ecx
0x000fa9ed:  66 0f b7 c0              movzwl   %ax, %eax
0x000fa9f1:  67 66 89 44 24 04        movl     %eax, 4(%esp)
0x000fa9f7:  66 0f b7 c6              movzwl   %si, %eax
0x000fa9fb:  67 66 89 44 24 14        movl     %eax, 0x14(%esp)
0x000faa01:  67 66 8b 04 24           movl     (%esp), %eax
0x000faa06:  66 c1 e8 04              shrl     $4, %eax
0x000faa0a:  67 66 8b 3c 24           movl     (%esp), %edi
0x000faa0f:  66 83 e7 0f              andl     $0xf, %edi
0x000faa13:  67 66 83 7c 24 08 00     cmpl     $0, 8(%esp)
0x000faa1a:  74 17                    je       0xfaa33

----------------
IN: 
0x000faa33:  8e c0                    movw     %ax, %es
0x000faa35:  67 66 8b 4c 24 04        movl     4(%esp), %ecx
0x000faa3b:  67 66 8b 54 24 10        movl     0x10(%esp), %edx
0x000faa41:  67 f3 6d                 rep insw %dx, %es:(%edi)

----------------
IN: 
0x000faa41:  67 f3 6d                 rep insw %dx, %es:(%edi)

----------------
IN: 
0x000faa44:  67 66 8b 74 24 0c        movl     0xc(%esp), %esi
0x000faa4a:  67 66 01 34 24           addl     %esi, (%esp)
0x000faa4f:  67 8b 44 24 12           movw     0x12(%esp), %ax
0x000faa54:  67 66 8d 50 02           leal     2(%eax), %edx
0x000faa59:  ec                       inb      %dx, %al

----------------
IN: 
0x000faa5a:  67 66 8b 44 24 14        movl     0x14(%esp), %eax
0x000faa60:  66 e8 6c fd ff ff        calll    0xfa7d2

----------------
IN: 
0x000faa66:  66 85 c0                 testl    %eax, %eax
0x000faa69:  79 06                    jns      0xfaa71

----------------
IN: 
0x000faa71:  66 4d                    decl     %ebp
0x000faa73:  74 18                    je       0xfaa8d

----------------
IN: 
0x000faa8d:  67 66 83 7c 24 08 00     cmpl     $0, 8(%esp)
0x000faa94:  74 08                    je       0xfaa9e

----------------
IN: 
0x000faa9e:  66 25 89 00 00 00        andl     $0x89, %eax
0x000faaa4:  66 85 c0                 testl    %eax, %eax
0x000faaa7:  74 06                    je       0xfaaaf

----------------
IN: 
0x000faaaf:  66 83 c4 18              addl     $0x18, %esp
0x000faab3:  66 5b                    popl     %ebx
0x000faab5:  66 5e                    popl     %esi
0x000faab7:  66 5f                    popl     %edi
0x000faab9:  66 5d                    popl     %ebp
0x000faabb:  66 c3                    retl     

----------------
IN: 
0x000fac35:  66 89 c1                 movl     %eax, %ecx
0x000fac38:  b0 08                    movb     $8, %al
0x000fac3a:  66 89 f2                 movl     %esi, %edx
0x000fac3d:  ee                       outb     %al, %dx

----------------
IN: 
0x000fac3e:  66 85 c9                 testl    %ecx, %ecx
0x000fac41:  75 c9                    jne      0xfac0c

----------------
IN: 
0x000fac43:  66 89 c8                 movl     %ecx, %eax
0x000fac46:  66 83 c4 18              addl     $0x18, %esp
0x000fac4a:  66 5b                    popl     %ebx
0x000fac4c:  66 5e                    popl     %esi
0x000fac4e:  66 5f                    popl     %edi
0x000fac50:  66 5d                    popl     %ebp
0x000fac52:  66 c3                    retl     

----------------
IN: 
0x000faf46:  e9 0a 01                 jmp      0xfb053

----------------
IN: 
0x000fb053:  66 85 c0                 testl    %eax, %eax
0x000fb056:  0f 85 e3 00              jne      0xfb13d

----------------
IN: 
0x000fb05a:  66 31 c0                 xorl     %eax, %eax
0x000fb05d:  e9 ee 00                 jmp      0xfb14e

----------------
IN: 
0x000fb14e:  66 5a                    popl     %edx
0x000fb150:  66 5b                    popl     %ebx
0x000fb152:  66 5e                    popl     %esi
0x000fb154:  66 5f                    popl     %edi
0x000fb156:  66 5d                    popl     %ebp
0x000fb158:  66 c3                    retl     

----------------
IN: 
0x000fb4cd:  67 8b 54 24 0e           movw     0xe(%esp), %dx
0x000fb4d2:  67 88 53 1c              movb     %dl, 0x1c(%ebx)
0x000fb4d6:  80 cc 9e                 orb      $0x9e, %ah
0x000fb4d9:  66 89 c2                 movl     %eax, %edx
0x000fb4dc:  66 89 d8                 movl     %ebx, %eax
0x000fb4df:  66 e8 1f bc ff ff        calll    0xf7104

----------------
IN: 
0x000f7104:  66 b9 40 00 00 00        movl     $0x40, %ecx
0x000f710a:  67 80 78 14 00           cmpb     $0, 0x14(%eax)
0x000f710f:  78 09                    js       0xf711a

----------------
IN: 
0x000f711a:  8e c1                    movw     %cx, %es
0x000f711c:  26 88 16 74 00           movb     %dl, %es:0x74
0x000f7121:  84 d2                    testb    %dl, %dl
0x000f7123:  74 0b                    je       0xf7130

----------------
IN: 
0x000f7130:  e9 4d fa                 jmp      0xf6b80

----------------
IN: 
0x000fb4e5:  66 83 c4 18              addl     $0x18, %esp
0x000fb4e9:  66 5b                    popl     %ebx
0x000fb4eb:  66 5e                    popl     %esi
0x000fb4ed:  66 5f                    popl     %edi
0x000fb4ef:  66 c3                    retl     

Servicing hardware INT=0x08
----------------
IN: 
0x000fd065:  cb                       lretw    

----------------
IN: 
0x000ede30:  f6 44 24 26 01           testb    $1, 0x26(%esp)
0x000ede35:  74 07                    je       0xede3e

----------------
IN: 
0x000ede3e:  85 f6                    testl    %esi, %esi
0x000ede40:  74 1b                    je       0xede5d

----------------
IN: 
0x000ede42:  66 81 3d fe 7d 00 00 55  cmpw     $0xaa55, 0x7dfe
0x000ede4a:  aa
0x000ede4b:  74 10                    je       0xede5d

----------------
IN: 
0x000ede5d:  80 3d 41 86 0e 00 00     cmpb     $0, 0xe8641
0x000ede64:  74 6b                    je       0xeded1

----------------
IN: 
0x000eded1:  0f b6 d3                 movzbl   %bl, %edx
0x000eded4:  b8 00 7c 00 00           movl     $0x7c00, %eax
0x000eded9:  e8 ac fe ff ff           calll    0xedd8a

----------------
IN: 
0x000edd8a:  56                       pushl    %esi
0x000edd8b:  53                       pushl    %ebx
0x000edd8c:  83 ec 28                 subl     $0x28, %esp
0x000edd8f:  89 c3                    movl     %eax, %ebx
0x000edd91:  89 d6                    movl     %edx, %esi
0x000edd93:  0f b7 c0                 movzwl   %ax, %eax
0x000edd96:  50                       pushl    %eax
0x000edd97:  89 d8                    movl     %ebx, %eax
0x000edd99:  c1 e8 10                 shrl     $0x10, %eax
0x000edd9c:  50                       pushl    %eax
0x000edd9d:  68 a9 15 0f 00           pushl    $0xf15a9
0x000edda2:  e8 b8 de ff ff           calll    0xebc5f

----------------
IN: 
0x000edda7:  b9 26 00 00 00           movl     $0x26, %ecx
0x000eddac:  31 d2                    xorl     %edx, %edx
0x000eddae:  8d 44 24 0e              leal     0xe(%esp), %eax
0x000eddb2:  e8 a3 c2 ff ff           calll    0xea05a

----------------
IN: 
0x000eddb7:  66 c7 44 24 32 00 02     movw     $0x200, 0x32(%esp)
0x000eddbe:  89 5c 24 2e              movl     %ebx, 0x2e(%esp)
0x000eddc2:  89 f0                    movl     %esi, %eax
0x000eddc4:  88 44 24 22              movb     %al, 0x22(%esp)
0x000eddc8:  66 c7 44 24 2a 55 aa     movw     $0xaa55, 0x2a(%esp)
0x000eddcf:  31 c0                    xorl     %eax, %eax
0x000eddd1:  e8 ab d8 ff ff           calll    0xeb681

----------------
IN: 
0x000eb6b3:  c6 05 de 8e 0e 00 01     movb     $1, 0xe8ede
0x000eb6ba:  5b                       popl     %ebx
0x000eb6bb:  c3                       retl     

----------------
IN: 
0x000eddd6:  b9 31 82 0f 00           movl     $0xf8231, %ecx
0x000edddb:  31 d2                    xorl     %edx, %edx
0x000edddd:  8d 44 24 0e              leal     0xe(%esp), %eax
0x000edde1:  e8 e6 d9 ff ff           calll    0xeb7cc

----------------
IN: 
0x00007c00:  31 c0                    xorw     %ax, %ax
0x00007c02:  8e d8                    movw     %ax, %ds
0x00007c04:  8e c0                    movw     %ax, %es
0x00007c06:  88 16 b3 7c              movb     %dl, 0x7cb3
0x00007c0a:  be c0 7c                 movw     $0x7cc0, %si
0x00007c0d:  8a 04                    movb     (%si), %al
0x00007c0f:  3c 00                    cmpb     $0, %al
0x00007c11:  74 09                    je       0x7c1c

----------------
IN: 
0x00007c13:  b4 0e                    movb     $0xe, %ah
0x00007c15:  cd 10                    int      $0x10

----------------
IN: 
0x00007c17:  83 c6 01                 addw     $1, %si
0x00007c1a:  eb f1                    jmp      0x7c0d

----------------
IN: 
0x00007c0d:  8a 04                    movb     (%si), %al
0x00007c0f:  3c 00                    cmpb     $0, %al
0x00007c11:  74 09                    je       0x7c1c

----------------
IN: 
0x00007c1c:  b8 00 86                 movw     $0x8600, %ax
0x00007c1f:  cd 15                    int      $0x15

----------------
IN: 
0x000ff859:  80 fc 89                 cmpb     $0x89, %ah
0x000ff85c:  0f 84 e1 d9              je       0xfd241

----------------
IN: 
0x000ff860:  66 68 3f bd 00 00        pushl    $0xbd3f
0x000ff866:  e9 05 db                 jmp      0xfd36e

----------------
IN: 
0x000fbd3f:  66 55                    pushl    %ebp
0x000fbd41:  66 57                    pushl    %edi
0x000fbd43:  66 56                    pushl    %esi
0x000fbd45:  66 53                    pushl    %ebx
0x000fbd47:  66 83 ec 08              subl     $8, %esp
0x000fbd4b:  66 89 c3                 movl     %eax, %ebx
0x000fbd4e:  67 8a 40 1d              movb     0x1d(%eax), %al
0x000fbd52:  3c 86                    cmpb     $0x86, %al
0x000fbd54:  0f 84 98 02              je       0xfbff0

----------------
IN: 
0x000fbff0:  67 c6 44 24 05 00        movb     $0, 5(%esp)
0x000fbff6:  8c d2                    movw     %ss, %dx
0x000fbff8:  67 66 8d 4c 24 05        leal     5(%esp), %ecx

----------------
IN: 
0x000fbffe:  66 0f b7 c9              movzwl   %cx, %ecx

----------------
IN: 
0x000fc002:  66 0f b7 d2              movzwl   %dx, %edx
0x000fc006:  67 66 0f b7 43 18        movzwl   0x18(%ebx), %eax
0x000fc00c:  66 c1 e0 10              shll     $0x10, %eax
0x000fc010:  67 66 0f b7 73 14        movzwl   0x14(%ebx), %esi
0x000fc016:  66 09 f0                 orl      %esi, %eax
0x000fc019:  66 e8 86 b4 ff ff        calll    0xf74a5

----------------
IN: 
0x000f74a5:  66 57                    pushl    %edi
0x000f74a7:  66 56                    pushl    %esi
0x000f74a9:  66 53                    pushl    %ebx
0x000f74ab:  66 89 c7                 movl     %eax, %edi
0x000f74ae:  66 bb 40 00 00 00        movl     $0x40, %ebx
0x000f74b4:  8e c3                    movw     %bx, %es
0x000f74b6:  26 a0 a0 00              movb     %es:0xa0, %al
0x000f74ba:  a8 01                    testb    $1, %al
0x000f74bc:  75 4c                    jne      0xf750a

----------------
IN: 
0x000f74be:  b0 01                    movb     $1, %al
0x000f74c0:  26 a2 a0 00              movb     %al, %es:0xa0
0x000f74c4:  66 c1 e2 10              shll     $0x10, %edx
0x000f74c8:  66 0f b7 c9              movzwl   %cx, %ecx
0x000f74cc:  66 09 d1                 orl      %edx, %ecx
0x000f74cf:  8e c3                    movw     %bx, %es
0x000f74d1:  26 66 89 0e 98 00        movl     %ecx, %es:0x98
0x000f74d7:  8e c3                    movw     %bx, %es
0x000f74d9:  26 66 89 3e 9c 00        movl     %edi, %es:0x9c
0x000f74df:  66 b8 00 d9 00 00        movl     $0xd900, %eax
0x000f74e5:  8e c0                    movw     %ax, %es
0x000f74e7:  26 66 8b 16 70 f6        movl     %es:0xf670, %edx
0x000f74ed:  67 66 8d 42 01           leal     1(%edx), %eax
0x000f74f2:  26 66 a3 70 f6           movl     %eax, %es:0xf670
0x000f74f7:  66 85 d2                 testl    %edx, %edx
0x000f74fa:  75 14                    jne      0xf7510

----------------
IN: 
0x000f74fc:  b0 8b                    movb     $0x8b, %al
0x000f74fe:  e6 70                    outb     %al, $0x70

----------------
IN: 
0x000f7500:  e4 71                    inb      $0x71, %al

----------------
IN: 
0x000f7502:  66 83 c8 40              orl      $0x40, %eax
0x000f7506:  e6 71                    outb     %al, $0x71

----------------
IN: 
0x000f7508:  eb 09                    jmp      0xf7513

----------------
IN: 
0x000f7513:  66 89 d0                 movl     %edx, %eax
0x000f7516:  66 5b                    popl     %ebx
0x000f7518:  66 5e                    popl     %esi
0x000f751a:  66 5f                    popl     %edi
0x000f751c:  66 c3                    retl     

----------------
IN: 
0x000fc01f:  66 85 c0                 testl    %eax, %eax
0x000fc022:  74 08                    je       0xfc02c

----------------
IN: 
0x000fc02c:  67 80 7c 24 05 00        cmpb     $0, 5(%esp)
0x000fc032:  0f 85 3e 04              jne      0xfc474

----------------
IN: 
0x000fc036:  66 e8 6a f7 ff ff        calll    0xfb7a6

----------------
IN: 
0x000fb7a6:  66 e8 81 b4 ff ff        calll    0xf6c2d

----------------
IN: 
0x000fb7ac:  66 85 c0                 testl    %eax, %eax
0x000fb7af:  74 0f                    je       0xfb7c0

----------------
IN: 
0x000fb7b1:  66 b9 a6 b7 00 00        movl     $0xb7a6, %ecx
0x000fb7b7:  66 31 d2                 xorl     %edx, %edx
0x000fb7ba:  66 31 c0                 xorl     %eax, %eax
0x000fb7bd:  e9 f6 c4                 jmp      0xf7cb6

----------------
IN: 
0x000fb7c0:  fb                       sti      

----------------
IN: 
0x000fb7c1:  f4                       hlt      

Servicing hardware INT=0x08
Servicing hardware INT=0x70
----------------
IN: 
0x000fd422:  66 68 42 e7 00 00        pushl    $0xe742
0x000fd428:  e9 b6 fe                 jmp      0xfd2e1

----------------
IN: 
0x000fe742:  b0 8b                    movb     $0x8b, %al
0x000fe744:  e6 70                    outb     %al, $0x70

----------------
IN: 
0x000fe746:  e4 71                    inb      $0x71, %al

----------------
IN: 
0x000fe748:  88 c2                    movb     %al, %dl
0x000fe74a:  b0 8c                    movb     $0x8c, %al
0x000fe74c:  e6 70                    outb     %al, $0x70

----------------
IN: 
0x000fe74e:  e4 71                    inb      $0x71, %al

----------------
IN: 
0x000fe750:  80 e2 60                 andb     $0x60, %dl
0x000fe753:  0f 84 cf 00              je       0xfe826

----------------
IN: 
0x000fe757:  66 53                    pushl    %ebx
0x000fe759:  66 83 ec 28              subl     $0x28, %esp
0x000fe75d:  88 c3                    movb     %al, %bl
0x000fe75f:  a8 20                    testb    $0x20, %al
0x000fe761:  74 2c                    je       0xfe78f

----------------
IN: 
0x000fe78f:  80 e3 40                 andb     $0x40, %bl
0x000fe792:  0f 84 8a 00              je       0xfe820

----------------
IN: 
0x000fe796:  2e 66 a1 c4 61           movl     %cs:0x61c4, %eax
0x000fe79b:  66 85 c0                 testl    %eax, %eax
0x000fe79e:  74 32                    je       0xfe7d2

----------------
IN: 
0x000fe7d2:  66 b8 40 00 00 00        movl     $0x40, %eax
0x000fe7d8:  8e c0                    movw     %ax, %es
0x000fe7da:  26 a0 a0 00              movb     %es:0xa0, %al
0x000fe7de:  84 c0                    testb    %al, %al
0x000fe7e0:  74 3e                    je       0xfe820

----------------
IN: 
0x000fe7e2:  26 66 a1 9c 00           movl     %es:0x9c, %eax
0x000fe7e7:  66 3d d0 03 00 00        cmpl     $0x3d0, %eax
0x000fe7ed:  77 26                    ja       0xfe815

----------------
IN: 
0x000fe7ef:  26 66 a1 98 00           movl     %es:0x98, %eax
0x000fe7f4:  66 89 c2                 movl     %eax, %edx
0x000fe7f7:  66 c1 ea 10              shrl     $0x10, %edx
0x000fe7fb:  66 0f b7 c0              movzwl   %ax, %eax
0x000fe7ff:  8e c2                    movw     %dx, %es
0x000fe801:  26 67 8a 10              movb     %es:(%eax), %dl
0x000fe805:  66 83 ca 80              orl      $0xffffff80, %edx
0x000fe809:  26 67 88 10              movb     %dl, %es:(%eax)
0x000fe80d:  66 e8 83 86 ff ff        calll    0xf6e96

----------------
IN: 
0x000f6e96:  66 b8 40 00 00 00        movl     $0x40, %eax
0x000f6e9c:  8e c0                    movw     %ax, %es
0x000f6e9e:  26 a0 a0 00              movb     %es:0xa0, %al
0x000f6ea2:  a8 01                    testb    $1, %al
0x000f6ea4:  74 2f                    je       0xf6ed5

----------------
IN: 
0x000f6ea6:  66 31 c0                 xorl     %eax, %eax
0x000f6ea9:  26 a2 a0 00              movb     %al, %es:0xa0
0x000f6ead:  66 b8 00 d9 00 00        movl     $0xd900, %eax
0x000f6eb3:  8e c0                    movw     %ax, %es
0x000f6eb5:  26 66 a1 70 f6           movl     %es:0xf670, %eax
0x000f6eba:  67 66 8d 50 ff           leal     -1(%eax), %edx
0x000f6ebf:  26 66 89 16 70 f6        movl     %edx, %es:0xf670
0x000f6ec5:  66 48                    decl     %eax
0x000f6ec7:  75 0c                    jne      0xf6ed5

----------------
IN: 
0x000f6ec9:  b0 8b                    movb     $0x8b, %al
0x000f6ecb:  e6 70                    outb     %al, $0x70

----------------
IN: 
0x000f6ecd:  e4 71                    inb      $0x71, %al

----------------
IN: 
0x000f6ecf:  66 83 e0 bf              andl     $0xffffffbf, %eax
0x000f6ed3:  e6 71                    outb     %al, $0x71

----------------
IN: 
0x000f6ed5:  66 c3                    retl     

----------------
IN: 
0x000fe813:  eb 0b                    jmp      0xfe820

----------------
IN: 
0x000fe820:  66 83 c4 28              addl     $0x28, %esp
0x000fe824:  66 5b                    popl     %ebx
0x000fe826:  e9 63 83                 jmp      0xf6b8c

----------------
IN: 
0x000f6b8c:  b0 20                    movb     $0x20, %al
0x000f6b8e:  e6 a0                    outb     %al, $0xa0

----------------
IN: 
0x000f6b90:  e6 20                    outb     %al, $0x20

----------------
IN: 
0x000f6b92:  66 c3                    retl     

Servicing hardware INT=0x70
----------------
IN: 
0x000fe826:  e9 63 83                 jmp      0xf6b8c

----------------
IN: 
0x000fb7c2:  fa                       cli      
0x000fb7c3:  fc                       cld      
0x000fb7c4:  66 c3                    retl     

----------------
IN: 
0x000fc03c:  eb ee                    jmp      0xfc02c

----------------
IN: 
0x000fc474:  67 83 63 24 fe           andw     $0xfffe, 0x24(%ebx)
0x000fc479:  eb 24                    jmp      0xfc49f

----------------
IN: 
0x000fc49f:  66 83 c4 08              addl     $8, %esp
0x000fc4a3:  66 5b                    popl     %ebx
0x000fc4a5:  66 5e                    popl     %esi
0x000fc4a7:  66 5f                    popl     %edi
0x000fc4a9:  66 5d                    popl     %ebp
0x000fc4ab:  66 c3                    retl     

----------------
IN: 
0x00007c21:  b4 00                    movb     $0, %ah
0x00007c23:  cd 13                    int      $0x13

----------------
IN: 
0x000ff553:  66 89 d8                 movl     %ebx, %eax
0x000ff556:  66 5b                    popl     %ebx
0x000ff558:  e9 0b fb                 jmp      0xff066

----------------
IN: 
0x000ff066:  66 53                    pushl    %ebx
0x000ff068:  66 83 ec 14              subl     $0x14, %esp
0x000ff06c:  66 89 c3                 movl     %eax, %ebx
0x000ff06f:  67 66 89 54 24 04        movl     %edx, 4(%esp)
0x000ff075:  67 c6 44 24 08 00        movb     $0, 8(%esp)
0x000ff07b:  67 c7 44 24 0a 00 00     movw     $0, 0xa(%esp)
0x000ff082:  66 89 e0                 movl     %esp, %eax
0x000ff085:  66 e8 48 bd ff ff        calll    0xfadd3

----------------
IN: 
0x000faf49:  2e 67 66 8b 83 2c 00 f1  movl     %cs:-0xeffd4(%ebx), %eax
0x000faf51:  ff
0x000faf52:  2e 67 8a 8b 30 00 f1 ff  movb     %cs:-0xeffd0(%ebx), %cl
0x000faf5a:  66 89 cd                 movl     %ecx, %ebp
0x000faf5d:  2e 67 8b b0 00 00 f1 ff  movw     %cs:-0xf0000(%eax), %si
0x000faf65:  2e 67 8b 80 02 00 f1 ff  movw     %cs:-0xefffe(%eax), %ax
0x000faf6d:  66 83 c0 02              addl     $2, %eax
0x000faf71:  67 89 44 24 02           movw     %ax, 2(%esp)
0x000faf76:  b0 0e                    movb     $0xe, %al
0x000faf78:  67 8b 54 24 02           movw     2(%esp), %dx
0x000faf7d:  ee                       outb     %al, %dx

----------------
IN: 
0x000faf7e:  66 b8 05 00 00 00        movl     $5, %eax
0x000faf84:  66 e8 99 c6 ff ff        calll    0xf7623

----------------
IN: 
0x000f7623:  66 53                    pushl    %ebx
0x000f7625:  66 e8 ac ff ff ff        calll    0xf75d7

----------------
IN: 
0x000f75d7:  66 53                    pushl    %ebx
0x000f75d9:  66 89 c3                 movl     %eax, %ebx
0x000f75dc:  66 e8 3c ff ff ff        calll    0xf751e

----------------
IN: 
0x000f75e2:  66 89 c1                 movl     %eax, %ecx
0x000f75e5:  2e 66 a1 9c 60           movl     %cs:0x609c, %eax
0x000f75ea:  66 0f af c3              imull    %ebx, %eax
0x000f75ee:  66 05 e7 03 00 00        addl     $0x3e7, %eax
0x000f75f4:  66 bb e8 03 00 00        movl     $0x3e8, %ebx
0x000f75fa:  66 31 d2                 xorl     %edx, %edx
0x000f75fd:  66 f7 f3                 divl     %ebx
0x000f7600:  66 01 c8                 addl     %ecx, %eax
0x000f7603:  66 5b                    popl     %ebx
0x000f7605:  66 c3                    retl     

----------------
IN: 
0x000f762b:  66 89 c3                 movl     %eax, %ebx
0x000f762e:  66 89 d8                 movl     %ebx, %eax
0x000f7631:  66 e8 d0 ff ff ff        calll    0xf7607

----------------
IN: 
0x000f7637:  66 85 c0                 testl    %eax, %eax
0x000f763a:  75 04                    jne      0xf7640

----------------
IN: 
0x000f7640:  66 5b                    popl     %ebx
0x000f7642:  66 c3                    retl     

----------------
IN: 
0x000faf8a:  b0 0a                    movb     $0xa, %al
0x000faf8c:  67 8b 54 24 02           movw     2(%esp), %dx
0x000faf91:  ee                       outb     %al, %dx

----------------
IN: 
0x000faf92:  66 b8 02 00 00 00        movl     $2, %eax
0x000faf98:  66 e8 1d c6 ff ff        calll    0xf75bb

----------------
IN: 
0x000faf9e:  66 e8 a2 40 00 00        calll    0xff046

----------------
IN: 
0x000ff046:  66 53                    pushl    %ebx
0x000ff048:  66 89 c3                 movl     %eax, %ebx
0x000ff04b:  66 89 d8                 movl     %ebx, %eax
0x000ff04e:  66 e8 b3 85 ff ff        calll    0xf7607

----------------
IN: 
0x000ff054:  66 85 c0                 testl    %eax, %eax
0x000ff057:  75 08                    jne      0xff061

----------------
IN: 
0x000ff059:  66 e8 af 99 ff ff        calll    0xf8a0e

----------------
IN: 
0x000ff05f:  eb ea                    jmp      0xff04b

----------------
IN: 
0x000ff04b:  66 89 d8                 movl     %ebx, %eax
0x000ff04e:  66 e8 b3 85 ff ff        calll    0xf7607

----------------
IN: 
0x000ff061:  66 5b                    popl     %ebx
0x000ff063:  66 c3                    retl     

----------------
IN: 
0x000fafa4:  66 0f b7 fe              movzwl   %si, %edi
0x000fafa8:  66 89 f8                 movl     %edi, %eax
0x000fafab:  66 e8 21 f8 ff ff        calll    0xfa7d2

----------------
IN: 
0x000fafb1:  66 85 c0                 testl    %eax, %eax
0x000fafb4:  78 7f                    js       0xfb035

----------------
IN: 
0x000fafb6:  66 83 c6 06              addl     $6, %esi
0x000fafba:  66 89 e8                 movl     %ebp, %eax
0x000fafbd:  84 c0                    testb    %al, %al
0x000fafbf:  74 4d                    je       0xfb00e

----------------
IN: 
0x000fb00e:  b0 a0                    movb     $0xa0, %al
0x000fb010:  66 89 f2                 movl     %esi, %edx
0x000fb013:  ee                       outb     %al, %dx

----------------
IN: 
0x000fb014:  2e 67 8a 83 00 00 f1 ff  movb     %cs:-0xf0000(%ebx), %al
0x000fb01c:  3c 20                    cmpb     $0x20, %al
0x000fb01e:  75 15                    jne      0xfb035

----------------
IN: 
0x000fb020:  66 89 f9                 movl     %edi, %ecx
0x000fb023:  66 ba 40 00 00 00        movl     $0x40, %edx
0x000fb029:  66 b8 40 00 00 00        movl     $0x40, %eax
0x000fb02f:  66 e8 2c f7 ff ff        calll    0xfa761

----------------
IN: 
0x000fb035:  b0 08                    movb     $8, %al
0x000fb037:  67 8b 54 24 02           movw     2(%esp), %dx
0x000fb03c:  ee                       outb     %al, %dx

----------------
IN: 
0x000fb03d:  eb 1b                    jmp      0xfb05a

----------------
IN: 
0x000ff08b:  80 cc ce                 orb      $0xce, %ah
0x000ff08e:  66 89 c2                 movl     %eax, %edx
0x000ff091:  66 89 d8                 movl     %ebx, %eax
0x000ff094:  66 e8 6a 80 ff ff        calll    0xf7104

----------------
IN: 
0x000ff09a:  66 83 c4 14              addl     $0x14, %esp
0x000ff09e:  66 5b                    popl     %ebx
0x000ff0a0:  66 c3                    retl     

----------------
IN: 
0x00007c25:  b4 02                    movb     $2, %ah
0x00007c27:  b0 01                    movb     $1, %al
0x00007c29:  b5 00                    movb     $0, %ch
0x00007c2b:  b6 00                    movb     $0, %dh
0x00007c2d:  b1 02                    movb     $2, %cl
0x00007c2f:  8a 16 b3 7c              movb     0x7cb3, %dl
0x00007c33:  bb 00 10                 movw     $0x1000, %bx
0x00007c36:  cd 13                    int      $0x13

----------------
IN: 
0x00007c38:  eb 27                    jmp      0x7c61

----------------
IN: 
0x00007c61:  b8 01 24                 movw     $0x2401, %ax
0x00007c64:  cd 15                    int      $0x15

----------------
IN: 
0x000fbd58:  77 30                    ja       0xfbd8a

----------------
IN: 
0x000fbd5a:  3c 53                    cmpb     $0x53, %al
0x000fbd5c:  0f 84 cb 00              je       0xfbe2b

----------------
IN: 
0x000fbd60:  77 13                    ja       0xfbd75

----------------
IN: 
0x000fbd62:  3c 4f                    cmpb     $0x4f, %al
0x000fbd64:  0f 84 b2 06              je       0xfc41a

----------------
IN: 
0x000fbd68:  3c 52                    cmpb     $0x52, %al
0x000fbd6a:  0f 84 8b 00              je       0xfbdf9

----------------
IN: 
0x000fbd6e:  3c 24                    cmpb     $0x24, %al
0x000fbd70:  74 5c                    je       0xfbdce

----------------
IN: 
0x000fbdce:  67 8a 43 1c              movb     0x1c(%ebx), %al
0x000fbdd2:  3c 02                    cmpb     $2, %al
0x000fbdd4:  74 35                    je       0xfbe0b

----------------
IN: 
0x000fbdd6:  77 09                    ja       0xfbde1

----------------
IN: 
0x000fbdd8:  84 c0                    testb    %al, %al
0x000fbdda:  75 11                    jne      0xfbded

----------------
IN: 
0x000fbded:  66 b8 01 00 00 00        movl     $1, %eax
0x000fbdf3:  66 e8 67 ad ff ff        calll    0xf6b60

----------------
IN: 
0x000fbdf9:  66 89 d8                 movl     %ebx, %eax
0x000fbdfc:  66 83 c4 08              addl     $8, %esp
0x000fbe00:  66 5b                    popl     %ebx
0x000fbe02:  66 5e                    popl     %esi
0x000fbe04:  66 5f                    popl     %edi
0x000fbe06:  66 5d                    popl     %ebp
0x000fbe08:  e9 75 ad                 jmp      0xf6b80

----------------
IN: 
0x00007c66:  b8 03 00                 movw     $3, %ax
0x00007c69:  cd 10                    int      $0x10

Servicing hardware INT=0x08
----------------
IN: 
0x00007c6b:  fa                       cli      
0x00007c6c:  0f 01 16 5b 7c           lgdtw    0x7c5b
0x00007c71:  0f 20 c0                 movl     %cr0, %eax

----------------
IN: 
0x00007c74:  66 83 c8 01              orl      $1, %eax
0x00007c78:  0f 22 c0                 movl     %eax, %cr0

----------------
IN: 
0x00007c7b:  ea 80 7c 08 00           ljmpw    $0x8:$0x7c80

----------------
IN: 
0x00007c80:  66 b8 10 00              movw     $0x10, %ax
0x00007c84:  8e d8                    movl     %eax, %ds

----------------
IN: 
0x00007c86:  8e d0                    movl     %eax, %ss

----------------
IN: 
0x00007c88:  8e c0                    movl     %eax, %es

----------------
IN: 
0x00007c8a:  8e e0                    movl     %eax, %fs
0x00007c8c:  8e e8                    movl     %eax, %gs
0x00007c8e:  bd 00 00 09 00           movl     $0x90000, %ebp
0x00007c93:  89 ec                    movl     %ebp, %esp
0x00007c95:  e8 a2 ff ff ff           calll    0x7c3c

----------------
IN: 
0x00007c3c:  e9 bf 93 ff ff           jmp      0x1000

----------------
IN: 
0x00001000:  e8 dc 00 00 00           calll    0x10e1

----------------
IN: 
0x000010e1:  55                       pushl    %ebp
0x000010e2:  89 e5                    movl     %esp, %ebp
0x000010e4:  83 ec 58                 subl     $0x58, %esp
0x000010e7:  c7 44 24 04 20 00 00 00  movl     $0x20, 4(%esp)
0x000010ef:  c7 04 24 00 00 00 00     movl     $0, (%esp)
0x000010f6:  e8 5c ff ff ff           calll    0x1057

----------------
IN: 
0x00001057:  55                       pushl    %ebp
0x00001058:  89 e5                    movl     %esp, %ebp
0x0000105a:  83 ec 14                 subl     $0x14, %esp
0x0000105d:  8b 45 0c                 movl     0xc(%ebp), %eax
0x00001060:  88 45 ec                 movb     %al, -0x14(%ebp)
0x00001063:  c7 45 fc 00 80 0b 00     movl     $0xb8000, -4(%ebp)
0x0000106a:  c7 45 f8 00 00 00 00     movl     $0, -8(%ebp)
0x00001071:  eb 21                    jmp      0x1094

----------------
IN: 
0x00001094:  81 7d f8 cf 07 00 00     cmpl     $0x7cf, -8(%ebp)
0x0000109b:  7e d6                    jle      0x1073

----------------
IN: 
0x00001073:  8b 45 fc                 movl     -4(%ebp), %eax
0x00001076:  8d 50 01                 leal     1(%eax), %edx
0x00001079:  89 55 fc                 movl     %edx, -4(%ebp)
0x0000107c:  0f b6 55 ec              movzbl   -0x14(%ebp), %edx
0x00001080:  88 10                    movb     %dl, (%eax)
0x00001082:  8b 45 fc                 movl     -4(%ebp), %eax
0x00001085:  8d 50 01                 leal     1(%eax), %edx
0x00001088:  89 55 fc                 movl     %edx, -4(%ebp)
0x0000108b:  8b 55 08                 movl     8(%ebp), %edx
0x0000108e:  88 10                    movb     %dl, (%eax)
0x00001090:  83 45 f8 01              addl     $1, -8(%ebp)
0x00001094:  81 7d f8 cf 07 00 00     cmpl     $0x7cf, -8(%ebp)
0x0000109b:  7e d6                    jle      0x1073

----------------
IN: 
0x00001080:  88 10                    movb     %dl, (%eax)

----------------
IN: 
0x00001082:  8b 45 fc                 movl     -4(%ebp), %eax
0x00001085:  8d 50 01                 leal     1(%eax), %edx
0x00001088:  89 55 fc                 movl     %edx, -4(%ebp)
0x0000108b:  8b 55 08                 movl     8(%ebp), %edx
0x0000108e:  88 10                    movb     %dl, (%eax)
0x00001090:  83 45 f8 01              addl     $1, -8(%ebp)
0x00001094:  81 7d f8 cf 07 00 00     cmpl     $0x7cf, -8(%ebp)
0x0000109b:  7e d6                    jle      0x1073

----------------
IN: 
0x0000108e:  88 10                    movb     %dl, (%eax)

----------------
IN: 
0x00001090:  83 45 f8 01              addl     $1, -8(%ebp)
0x00001094:  81 7d f8 cf 07 00 00     cmpl     $0x7cf, -8(%ebp)
0x0000109b:  7e d6                    jle      0x1073

----------------
IN: 
0x0000109d:  90                       nop      
0x0000109e:  c9                       leave    
0x0000109f:  c3                       retl     

----------------
IN: 
0x000010fb:  c7 45 b8 71 77 65 72     movl     $0x72657771, -0x48(%ebp)
0x00001102:  c7 45 bc 74 79 75 69     movl     $0x69757974, -0x44(%ebp)
0x00001109:  c7 45 c0 6f 70 5b 5d     movl     $0x5d5b706f, -0x40(%ebp)
0x00001110:  c7 45 c4 61 73 64 66     movl     $0x66647361, -0x3c(%ebp)
0x00001117:  c7 45 c8 67 68 6a 6b     movl     $0x6b6a6867, -0x38(%ebp)
0x0000111e:  c7 45 cc 6c 3b 27 7a     movl     $0x7a273b6c, -0x34(%ebp)
0x00001125:  c7 45 d0 78 63 76 62     movl     $0x62766378, -0x30(%ebp)
0x0000112c:  c7 45 d4 6e 6d 2c 2e     movl     $0x2e2c6d6e, -0x2c(%ebp)
0x00001133:  c7 45 d8 2f 60 31 32     movl     $0x3231602f, -0x28(%ebp)
0x0000113a:  c7 45 dc 33 34 35 36     movl     $0x36353433, -0x24(%ebp)
0x00001141:  c7 45 e0 37 38 39 30     movl     $0x30393837, -0x20(%ebp)
0x00001148:  c7 45 e4 2d 3d 5f 2b     movl     $0x2b5f3d2d, -0x1c(%ebp)
0x0000114f:  c7 45 e8 21 40 23 24     movl     $0x24234021, -0x18(%ebp)
0x00001156:  c7 45 ec 5c 25 5e 26     movl     $0x265e255c, -0x14(%ebp)
0x0000115d:  c7 45 f0 2a 28 29 30     movl     $0x3029282a, -0x10(%ebp)
0x00001164:  c7 45 f4 31 32 33 00     movl     $0x333231, -0xc(%ebp)
0x0000116b:  8d 45 b8                 leal     -0x48(%ebp), %eax
0x0000116e:  89 44 24 04              movl     %eax, 4(%esp)
0x00001172:  c7 04 24 a0 00 00 00     movl     $0xa0, (%esp)
0x00001179:  e8 22 ff ff ff           calll    0x10a0

----------------
IN: 
0x000010a0:  55                       pushl    %ebp
0x000010a1:  89 e5                    movl     %esp, %ebp
0x000010a3:  83 ec 10                 subl     $0x10, %esp
0x000010a6:  c7 45 fc 00 80 0b 00     movl     $0xb8000, -4(%ebp)
0x000010ad:  eb 25                    jmp      0x10d4

----------------
IN: 
0x000010d4:  8b 45 0c                 movl     0xc(%ebp), %eax
0x000010d7:  0f b6 00                 movzbl   (%eax), %eax
0x000010da:  84 c0                    testb    %al, %al
0x000010dc:  75 d1                    jne      0x10af

----------------
IN: 
0x000010af:  8b 45 fc                 movl     -4(%ebp), %eax
0x000010b2:  8d 50 01                 leal     1(%eax), %edx
0x000010b5:  89 55 fc                 movl     %edx, -4(%ebp)
0x000010b8:  8b 55 0c                 movl     0xc(%ebp), %edx
0x000010bb:  8d 4a 01                 leal     1(%edx), %ecx
0x000010be:  89 4d 0c                 movl     %ecx, 0xc(%ebp)
0x000010c1:  0f b6 12                 movzbl   (%edx), %edx
0x000010c4:  88 10                    movb     %dl, (%eax)
0x000010c6:  8b 45 fc                 movl     -4(%ebp), %eax
0x000010c9:  8d 50 01                 leal     1(%eax), %edx
0x000010cc:  89 55 fc                 movl     %edx, -4(%ebp)
0x000010cf:  8b 55 08                 movl     8(%ebp), %edx
0x000010d2:  88 10                    movb     %dl, (%eax)
0x000010d4:  8b 45 0c                 movl     0xc(%ebp), %eax
0x000010d7:  0f b6 00                 movzbl   (%eax), %eax
0x000010da:  84 c0                    testb    %al, %al
0x000010dc:  75 d1                    jne      0x10af

----------------
IN: 
0x000010c4:  88 10                    movb     %dl, (%eax)

----------------
IN: 
0x000010c6:  8b 45 fc                 movl     -4(%ebp), %eax
0x000010c9:  8d 50 01                 leal     1(%eax), %edx
0x000010cc:  89 55 fc                 movl     %edx, -4(%ebp)
0x000010cf:  8b 55 08                 movl     8(%ebp), %edx
0x000010d2:  88 10                    movb     %dl, (%eax)
0x000010d4:  8b 45 0c                 movl     0xc(%ebp), %eax
0x000010d7:  0f b6 00                 movzbl   (%eax), %eax
0x000010da:  84 c0                    testb    %al, %al
0x000010dc:  75 d1                    jne      0x10af

----------------
IN: 
0x000010d2:  88 10                    movb     %dl, (%eax)

----------------
IN: 
0x000010de:  90                       nop      
0x000010df:  c9                       leave    
0x000010e0:  c3                       retl     

----------------
IN: 
0x0000117e:  e8 03 00 00 00           calll    0x1186

----------------
IN: 
0x00001186:  55                       pushl    %ebp
0x00001187:  89 e5                    movl     %esp, %ebp
0x00001189:  eb fe                    jmp      0x1189

----------------
IN: 
0x00001189:  eb fe                    jmp      0x1189

